
Optional file libmchp_peripheral.a not found

Optional file libmchp_peripheral_32MX795F512L.a not found
Archive member included because of file (symbol)

/Applications/microchip/xc32/v2.15/bin/bin/../../lib/gcc/pic32mx/4.8.3/libgcc.a(floatunsisf.o)
                              build/Board4/production/_ext/676718598/http.o (__floatunsisf)
/Applications/microchip/xc32/v2.15/bin/bin/../../lib/gcc/pic32mx/4.8.3/../../../../pic32mx/lib/libpic32.a(memcpy.o)
                              build/Board4/production/_ext/676718598/cJSON.o (memcpy)
/Applications/microchip/xc32/v2.15/bin/bin/../../lib/gcc/pic32mx/4.8.3/../../../../pic32mx/lib/libpic32.a(memset.o)
                              build/Board4/production/_ext/676718598/cJSON.o (memset)
/Applications/microchip/xc32/v2.15/bin/bin/../../lib/gcc/pic32mx/4.8.3/../../../../pic32mx/lib/libpic32.a(strcmp.o)
                              build/Board4/production/_ext/676718598/cJSON.o (strcmp)
/Applications/microchip/xc32/v2.15/bin/bin/../../lib/gcc/pic32mx/4.8.3/../../../../pic32mx/lib/libpic32.a(strcpy.o)
                              build/Board4/production/_ext/676718598/wifi_state.o (strcpy)
/Applications/microchip/xc32/v2.15/bin/bin/../../lib/gcc/pic32mx/4.8.3/../../../../pic32mx/lib/libpic32.a(strlen.o)
                              build/Board4/production/_ext/676718598/cJSON.o (strlen)
/Applications/microchip/xc32/v2.15/bin/bin/../../lib/gcc/pic32mx/4.8.3/../../../../pic32mx/lib/libpic32.a(default-bootstrap-exception-handler.o)
                              /var/folders/d5/v4194pgj4rldzq4h08l7349w0000gn/T//cc0qJCyj.o (_bootstrap_exception_handler)
/Applications/microchip/xc32/v2.15/bin/bin/../../lib/gcc/pic32mx/4.8.3/../../../../pic32mx/lib/libpic32.a(default-on-reset.o)
                              /var/folders/d5/v4194pgj4rldzq4h08l7349w0000gn/T//cc0qJCyj.o (_on_reset)
/Applications/microchip/xc32/v2.15/bin/bin/../../lib/gcc/pic32mx/4.8.3/../../../../pic32mx/lib/libpic32.a(default-on-bootstrap.o)
                              /var/folders/d5/v4194pgj4rldzq4h08l7349w0000gn/T//cc0qJCyj.o (_on_bootstrap)
/Applications/microchip/xc32/v2.15/bin/bin/../../lib/gcc/pic32mx/4.8.3/../../../../pic32mx/lib/libpic32.a(default-nmi-handler.o)
                              /var/folders/d5/v4194pgj4rldzq4h08l7349w0000gn/T//cc0qJCyj.o (_nmi_handler)
/Applications/microchip/xc32/v2.15/bin/bin/../../lib/gcc/pic32mx/4.8.3/../../../../pic32mx/lib/libpic32.a(pic32_data_init.o)
                              /var/folders/d5/v4194pgj4rldzq4h08l7349w0000gn/T//cc0qJCyj.o (__pic32_data_init)
/Applications/microchip/xc32/v2.15/bin/bin/../../lib/gcc/pic32mx/4.8.3/../../../../pic32mx/lib/libpic32.a(general-exception.o)
                              /var/folders/d5/v4194pgj4rldzq4h08l7349w0000gn/T//cc0qJCyj.o (_general_exception_context)
/Applications/microchip/xc32/v2.15/bin/bin/../../lib/gcc/pic32mx/4.8.3/../../../../pic32mx/lib/libpic32.a(vector0.o)
                              /var/folders/d5/v4194pgj4rldzq4h08l7349w0000gn/T//ccuGGR6u.o (__vector_dispatch_0)
/Applications/microchip/xc32/v2.15/bin/bin/../../lib/gcc/pic32mx/4.8.3/../../../../pic32mx/lib/libpic32.a(vector2.o)
                              /var/folders/d5/v4194pgj4rldzq4h08l7349w0000gn/T//ccuGGR6u.o (__vector_dispatch_2)
/Applications/microchip/xc32/v2.15/bin/bin/../../lib/gcc/pic32mx/4.8.3/../../../../pic32mx/lib/libpic32.a(vector3.o)
                              /var/folders/d5/v4194pgj4rldzq4h08l7349w0000gn/T//ccuGGR6u.o (__vector_dispatch_3)
/Applications/microchip/xc32/v2.15/bin/bin/../../lib/gcc/pic32mx/4.8.3/../../../../pic32mx/lib/libpic32.a(vector5.o)
                              /var/folders/d5/v4194pgj4rldzq4h08l7349w0000gn/T//ccuGGR6u.o (__vector_dispatch_5)
/Applications/microchip/xc32/v2.15/bin/bin/../../lib/gcc/pic32mx/4.8.3/../../../../pic32mx/lib/libpic32.a(vector6.o)
                              /var/folders/d5/v4194pgj4rldzq4h08l7349w0000gn/T//ccuGGR6u.o (__vector_dispatch_6)
/Applications/microchip/xc32/v2.15/bin/bin/../../lib/gcc/pic32mx/4.8.3/../../../../pic32mx/lib/libpic32.a(vector7.o)
                              /var/folders/d5/v4194pgj4rldzq4h08l7349w0000gn/T//ccuGGR6u.o (__vector_dispatch_7)
/Applications/microchip/xc32/v2.15/bin/bin/../../lib/gcc/pic32mx/4.8.3/../../../../pic32mx/lib/libpic32.a(vector9.o)
                              /var/folders/d5/v4194pgj4rldzq4h08l7349w0000gn/T//ccuGGR6u.o (__vector_dispatch_9)
/Applications/microchip/xc32/v2.15/bin/bin/../../lib/gcc/pic32mx/4.8.3/../../../../pic32mx/lib/libpic32.a(vector10.o)
                              /var/folders/d5/v4194pgj4rldzq4h08l7349w0000gn/T//ccuGGR6u.o (__vector_dispatch_10)
/Applications/microchip/xc32/v2.15/bin/bin/../../lib/gcc/pic32mx/4.8.3/../../../../pic32mx/lib/libpic32.a(vector11.o)
                              /var/folders/d5/v4194pgj4rldzq4h08l7349w0000gn/T//ccuGGR6u.o (__vector_dispatch_11)
/Applications/microchip/xc32/v2.15/bin/bin/../../lib/gcc/pic32mx/4.8.3/../../../../pic32mx/lib/libpic32.a(vector13.o)
                              /var/folders/d5/v4194pgj4rldzq4h08l7349w0000gn/T//ccuGGR6u.o (__vector_dispatch_13)
/Applications/microchip/xc32/v2.15/bin/bin/../../lib/gcc/pic32mx/4.8.3/../../../../pic32mx/lib/libpic32.a(vector14.o)
                              /var/folders/d5/v4194pgj4rldzq4h08l7349w0000gn/T//ccuGGR6u.o (__vector_dispatch_14)
/Applications/microchip/xc32/v2.15/bin/bin/../../lib/gcc/pic32mx/4.8.3/../../../../pic32mx/lib/libpic32.a(vector15.o)
                              /var/folders/d5/v4194pgj4rldzq4h08l7349w0000gn/T//ccuGGR6u.o (__vector_dispatch_15)
/Applications/microchip/xc32/v2.15/bin/bin/../../lib/gcc/pic32mx/4.8.3/../../../../pic32mx/lib/libpic32.a(vector16.o)
                              /var/folders/d5/v4194pgj4rldzq4h08l7349w0000gn/T//ccuGGR6u.o (__vector_dispatch_16)
/Applications/microchip/xc32/v2.15/bin/bin/../../lib/gcc/pic32mx/4.8.3/../../../../pic32mx/lib/libpic32.a(vector17.o)
                              /var/folders/d5/v4194pgj4rldzq4h08l7349w0000gn/T//ccuGGR6u.o (__vector_dispatch_17)
/Applications/microchip/xc32/v2.15/bin/bin/../../lib/gcc/pic32mx/4.8.3/../../../../pic32mx/lib/libpic32.a(vector18.o)
                              /var/folders/d5/v4194pgj4rldzq4h08l7349w0000gn/T//ccuGGR6u.o (__vector_dispatch_18)
/Applications/microchip/xc32/v2.15/bin/bin/../../lib/gcc/pic32mx/4.8.3/../../../../pic32mx/lib/libpic32.a(vector19.o)
                              /var/folders/d5/v4194pgj4rldzq4h08l7349w0000gn/T//ccuGGR6u.o (__vector_dispatch_19)
/Applications/microchip/xc32/v2.15/bin/bin/../../lib/gcc/pic32mx/4.8.3/../../../../pic32mx/lib/libpic32.a(vector21.o)
                              /var/folders/d5/v4194pgj4rldzq4h08l7349w0000gn/T//ccuGGR6u.o (__vector_dispatch_21)
/Applications/microchip/xc32/v2.15/bin/bin/../../lib/gcc/pic32mx/4.8.3/../../../../pic32mx/lib/libpic32.a(vector22.o)
                              /var/folders/d5/v4194pgj4rldzq4h08l7349w0000gn/T//ccuGGR6u.o (__vector_dispatch_22)
/Applications/microchip/xc32/v2.15/bin/bin/../../lib/gcc/pic32mx/4.8.3/../../../../pic32mx/lib/libpic32.a(vector23.o)
                              /var/folders/d5/v4194pgj4rldzq4h08l7349w0000gn/T//ccuGGR6u.o (__vector_dispatch_23)
/Applications/microchip/xc32/v2.15/bin/bin/../../lib/gcc/pic32mx/4.8.3/../../../../pic32mx/lib/libpic32.a(vector25.o)
                              /var/folders/d5/v4194pgj4rldzq4h08l7349w0000gn/T//ccuGGR6u.o (__vector_dispatch_25)
/Applications/microchip/xc32/v2.15/bin/bin/../../lib/gcc/pic32mx/4.8.3/../../../../pic32mx/lib/libpic32.a(vector26.o)
                              /var/folders/d5/v4194pgj4rldzq4h08l7349w0000gn/T//ccuGGR6u.o (__vector_dispatch_26)
/Applications/microchip/xc32/v2.15/bin/bin/../../lib/gcc/pic32mx/4.8.3/../../../../pic32mx/lib/libpic32.a(vector27.o)
                              /var/folders/d5/v4194pgj4rldzq4h08l7349w0000gn/T//ccuGGR6u.o (__vector_dispatch_27)
/Applications/microchip/xc32/v2.15/bin/bin/../../lib/gcc/pic32mx/4.8.3/../../../../pic32mx/lib/libpic32.a(vector28.o)
                              /var/folders/d5/v4194pgj4rldzq4h08l7349w0000gn/T//ccuGGR6u.o (__vector_dispatch_28)
/Applications/microchip/xc32/v2.15/bin/bin/../../lib/gcc/pic32mx/4.8.3/../../../../pic32mx/lib/libpic32.a(vector29.o)
                              /var/folders/d5/v4194pgj4rldzq4h08l7349w0000gn/T//ccuGGR6u.o (__vector_dispatch_29)
/Applications/microchip/xc32/v2.15/bin/bin/../../lib/gcc/pic32mx/4.8.3/../../../../pic32mx/lib/libpic32.a(vector30.o)
                              /var/folders/d5/v4194pgj4rldzq4h08l7349w0000gn/T//ccuGGR6u.o (__vector_dispatch_30)
/Applications/microchip/xc32/v2.15/bin/bin/../../lib/gcc/pic32mx/4.8.3/../../../../pic32mx/lib/libpic32.a(vector31.o)
                              /var/folders/d5/v4194pgj4rldzq4h08l7349w0000gn/T//ccuGGR6u.o (__vector_dispatch_31)
/Applications/microchip/xc32/v2.15/bin/bin/../../lib/gcc/pic32mx/4.8.3/../../../../pic32mx/lib/libpic32.a(vector33.o)
                              /var/folders/d5/v4194pgj4rldzq4h08l7349w0000gn/T//ccuGGR6u.o (__vector_dispatch_33)
/Applications/microchip/xc32/v2.15/bin/bin/../../lib/gcc/pic32mx/4.8.3/../../../../pic32mx/lib/libpic32.a(vector34.o)
                              /var/folders/d5/v4194pgj4rldzq4h08l7349w0000gn/T//ccuGGR6u.o (__vector_dispatch_34)
/Applications/microchip/xc32/v2.15/bin/bin/../../lib/gcc/pic32mx/4.8.3/../../../../pic32mx/lib/libpic32.a(vector35.o)
                              /var/folders/d5/v4194pgj4rldzq4h08l7349w0000gn/T//ccuGGR6u.o (__vector_dispatch_35)
/Applications/microchip/xc32/v2.15/bin/bin/../../lib/gcc/pic32mx/4.8.3/../../../../pic32mx/lib/libpic32.a(vector36.o)
                              /var/folders/d5/v4194pgj4rldzq4h08l7349w0000gn/T//ccuGGR6u.o (__vector_dispatch_36)
/Applications/microchip/xc32/v2.15/bin/bin/../../lib/gcc/pic32mx/4.8.3/../../../../pic32mx/lib/libpic32.a(vector37.o)
                              /var/folders/d5/v4194pgj4rldzq4h08l7349w0000gn/T//ccuGGR6u.o (__vector_dispatch_37)
/Applications/microchip/xc32/v2.15/bin/bin/../../lib/gcc/pic32mx/4.8.3/../../../../pic32mx/lib/libpic32.a(vector38.o)
                              /var/folders/d5/v4194pgj4rldzq4h08l7349w0000gn/T//ccuGGR6u.o (__vector_dispatch_38)
/Applications/microchip/xc32/v2.15/bin/bin/../../lib/gcc/pic32mx/4.8.3/../../../../pic32mx/lib/libpic32.a(vector39.o)
                              /var/folders/d5/v4194pgj4rldzq4h08l7349w0000gn/T//ccuGGR6u.o (__vector_dispatch_39)
/Applications/microchip/xc32/v2.15/bin/bin/../../lib/gcc/pic32mx/4.8.3/../../../../pic32mx/lib/libpic32.a(vector40.o)
                              /var/folders/d5/v4194pgj4rldzq4h08l7349w0000gn/T//ccuGGR6u.o (__vector_dispatch_40)
/Applications/microchip/xc32/v2.15/bin/bin/../../lib/gcc/pic32mx/4.8.3/../../../../pic32mx/lib/libpic32.a(vector41.o)
                              /var/folders/d5/v4194pgj4rldzq4h08l7349w0000gn/T//ccuGGR6u.o (__vector_dispatch_41)
/Applications/microchip/xc32/v2.15/bin/bin/../../lib/gcc/pic32mx/4.8.3/../../../../pic32mx/lib/libpic32.a(vector42.o)
                              /var/folders/d5/v4194pgj4rldzq4h08l7349w0000gn/T//ccuGGR6u.o (__vector_dispatch_42)
/Applications/microchip/xc32/v2.15/bin/bin/../../lib/gcc/pic32mx/4.8.3/../../../../pic32mx/lib/libpic32.a(vector43.o)
                              /var/folders/d5/v4194pgj4rldzq4h08l7349w0000gn/T//ccuGGR6u.o (__vector_dispatch_43)
/Applications/microchip/xc32/v2.15/bin/bin/../../lib/gcc/pic32mx/4.8.3/../../../../pic32mx/lib/libpic32.a(vector44.o)
                              /var/folders/d5/v4194pgj4rldzq4h08l7349w0000gn/T//ccuGGR6u.o (__vector_dispatch_44)
/Applications/microchip/xc32/v2.15/bin/bin/../../lib/gcc/pic32mx/4.8.3/../../../../pic32mx/lib/libpic32.a(vector45.o)
                              /var/folders/d5/v4194pgj4rldzq4h08l7349w0000gn/T//ccuGGR6u.o (__vector_dispatch_45)
/Applications/microchip/xc32/v2.15/bin/bin/../../lib/gcc/pic32mx/4.8.3/../../../../pic32mx/lib/libpic32.a(vector46.o)
                              /var/folders/d5/v4194pgj4rldzq4h08l7349w0000gn/T//ccuGGR6u.o (__vector_dispatch_46)
/Applications/microchip/xc32/v2.15/bin/bin/../../lib/gcc/pic32mx/4.8.3/../../../../pic32mx/lib/libpic32.a(vector47.o)
                              /var/folders/d5/v4194pgj4rldzq4h08l7349w0000gn/T//ccuGGR6u.o (__vector_dispatch_47)
/Applications/microchip/xc32/v2.15/bin/bin/../../lib/gcc/pic32mx/4.8.3/../../../../pic32mx/lib/libpic32.a(vector48.o)
                              /var/folders/d5/v4194pgj4rldzq4h08l7349w0000gn/T//ccuGGR6u.o (__vector_dispatch_48)
/Applications/microchip/xc32/v2.15/bin/bin/../../lib/gcc/pic32mx/4.8.3/../../../../pic32mx/lib/libpic32.a(vector50.o)
                              /var/folders/d5/v4194pgj4rldzq4h08l7349w0000gn/T//ccuGGR6u.o (__vector_dispatch_50)
/Applications/microchip/xc32/v2.15/bin/bin/../../lib/gcc/pic32mx/4.8.3/../../../../pic32mx/lib/libpic32.a(vector51.o)
                              /var/folders/d5/v4194pgj4rldzq4h08l7349w0000gn/T//ccuGGR6u.o (__vector_dispatch_51)
/Applications/microchip/xc32/v2.15/bin/bin/../../lib/gcc/pic32mx/4.8.3/../../../../pic32mx/lib/libpic32.a(defaultinterrupt.o)
                              /Applications/microchip/xc32/v2.15/bin/bin/../../lib/gcc/pic32mx/4.8.3/../../../../pic32mx/lib/libpic32.a(vector0.o) (_DefaultInterrupt)
/Applications/microchip/xc32/v2.15/bin/bin/../../lib/gcc/pic32mx/4.8.3/../../../../pic32mx/lib/libc.a(ctypef.o)
                              build/Board4/production/_ext/676718598/cJSON.o (tolower)
/Applications/microchip/xc32/v2.15/bin/bin/../../lib/gcc/pic32mx/4.8.3/../../../../pic32mx/lib/libc.a(malloc.o)
                              build/Board4/production/_ext/676718598/cJSON.o (malloc)
/Applications/microchip/xc32/v2.15/bin/bin/../../lib/gcc/pic32mx/4.8.3/../../../../pic32mx/lib/libc.a(strcat.o)
                              build/Board4/production/_ext/676718598/http.o (strcat)
/Applications/microchip/xc32/v2.15/bin/bin/../../lib/gcc/pic32mx/4.8.3/../../../../pic32mx/lib/libc.a(strncmp.o)
                              build/Board4/production/_ext/676718598/cJSON.o (strncmp)
/Applications/microchip/xc32/v2.15/bin/bin/../../lib/gcc/pic32mx/4.8.3/../../../../pic32mx/lib/libc.a(strtod.o)
                              build/Board4/production/_ext/676718598/cJSON.o (strtod)
/Applications/microchip/xc32/v2.15/bin/bin/../../lib/gcc/pic32mx/4.8.3/../../../../pic32mx/lib/libc.a(sprintf_cdgGnopuxX.eo)
                              build/Board4/production/_ext/676718598/cJSON.o (_sprintf_cdgGnopuxX)
/Applications/microchip/xc32/v2.15/bin/bin/../../lib/gcc/pic32mx/4.8.3/../../../../pic32mx/lib/libc.a(sprintf_cdnopuxX.eo)
                              build/Board4/production/_ext/676718598/cJSON.o (_sprintf_cdnopuxX)
/Applications/microchip/xc32/v2.15/bin/bin/../../lib/gcc/pic32mx/4.8.3/../../../../pic32mx/lib/libc.a(sscanf_gG.eo)
                              build/Board4/production/_ext/676718598/cJSON.o (_sscanf_gG)
/Applications/microchip/xc32/v2.15/bin/bin/../../lib/gcc/pic32mx/4.8.3/../../../../pic32mx/lib/libc.a(ctype.o)
                              /Applications/microchip/xc32/v2.15/bin/bin/../../lib/gcc/pic32mx/4.8.3/../../../../pic32mx/lib/libc.a(ctypef.o) (_ctype)
/Applications/microchip/xc32/v2.15/bin/bin/../../lib/gcc/pic32mx/4.8.3/../../../../pic32mx/lib/libc.a(doprnt_cdgGnopuxX.eo)
                              /Applications/microchip/xc32/v2.15/bin/bin/../../lib/gcc/pic32mx/4.8.3/../../../../pic32mx/lib/libc.a(sprintf_cdgGnopuxX.eo) (_vfprintf_cdgGnopuxX)
/Applications/microchip/xc32/v2.15/bin/bin/../../lib/gcc/pic32mx/4.8.3/../../../../pic32mx/lib/libc.a(doprnt_cdnopuxX.eo)
                              /Applications/microchip/xc32/v2.15/bin/bin/../../lib/gcc/pic32mx/4.8.3/../../../../pic32mx/lib/libc.a(sprintf_cdnopuxX.eo) (_vfprintf_cdnopuxX)
/Applications/microchip/xc32/v2.15/bin/bin/../../lib/gcc/pic32mx/4.8.3/../../../../pic32mx/lib/libc.a(doscan_gG.eo)
                              /Applications/microchip/xc32/v2.15/bin/bin/../../lib/gcc/pic32mx/4.8.3/../../../../pic32mx/lib/libc.a(sscanf_gG.eo) (_vfscanf_gG)
/Applications/microchip/xc32/v2.15/bin/bin/../../lib/gcc/pic32mx/4.8.3/../../../../pic32mx/lib/libc.a(fgetc.o)
                              /Applications/microchip/xc32/v2.15/bin/bin/../../lib/gcc/pic32mx/4.8.3/../../../../pic32mx/lib/libc.a(doscan_gG.eo) (fgetc)
/Applications/microchip/xc32/v2.15/bin/bin/../../lib/gcc/pic32mx/4.8.3/../../../../pic32mx/lib/libc.a(_fputc_simple.o)
                              /Applications/microchip/xc32/v2.15/bin/bin/../../lib/gcc/pic32mx/4.8.3/../../../../pic32mx/lib/libc.a(doprnt_cdgGnopuxX.eo) (fputc)
/Applications/microchip/xc32/v2.15/bin/bin/../../lib/gcc/pic32mx/4.8.3/../../../../pic32mx/lib/libc.a(atoi.o)
                              /Applications/microchip/xc32/v2.15/bin/bin/../../lib/gcc/pic32mx/4.8.3/../../../../pic32mx/lib/libc.a(doscan_gG.eo) (atoi)
/Applications/microchip/xc32/v2.15/bin/bin/../../lib/gcc/pic32mx/4.8.3/../../../../pic32mx/lib/libc.a(ldpowers.o)
                              /Applications/microchip/xc32/v2.15/bin/bin/../../lib/gcc/pic32mx/4.8.3/../../../../pic32mx/lib/libc.a(doprnt_cdgGnopuxX.eo) (_npowers_)
/Applications/microchip/xc32/v2.15/bin/bin/../../lib/gcc/pic32mx/4.8.3/../../../../pic32mx/lib/libc.a(strtof.o)
                              /Applications/microchip/xc32/v2.15/bin/bin/../../lib/gcc/pic32mx/4.8.3/../../../../pic32mx/lib/libc.a(doscan_gG.eo) (strtof)
/Applications/microchip/xc32/v2.15/bin/bin/../../lib/gcc/pic32mx/4.8.3/../../../../pic32mx/lib/libc.a(ungetc.o)
                              /Applications/microchip/xc32/v2.15/bin/bin/../../lib/gcc/pic32mx/4.8.3/../../../../pic32mx/lib/libc.a(doscan_gG.eo) (ungetc)
/Applications/microchip/xc32/v2.15/bin/bin/../../lib/gcc/pic32mx/4.8.3/../../../../pic32mx/lib/libc.a(_iob.o)
                              /Applications/microchip/xc32/v2.15/bin/bin/../../lib/gcc/pic32mx/4.8.3/../../../../pic32mx/lib/libc.a(_fputc_simple.o) (_outdone)
/Applications/microchip/xc32/v2.15/bin/bin/../../lib/gcc/pic32mx/4.8.3/../../../../pic32mx/lib/libc.a(filbuf.o)
                              /Applications/microchip/xc32/v2.15/bin/bin/../../lib/gcc/pic32mx/4.8.3/../../../../pic32mx/lib/libc.a(fgetc.o) (_filbuf)
/Applications/microchip/xc32/v2.15/bin/bin/../../lib/gcc/pic32mx/4.8.3/../../../../pic32mx/lib/libc.a(_flsbuf_simple.o)
                              /Applications/microchip/xc32/v2.15/bin/bin/../../lib/gcc/pic32mx/4.8.3/../../../../pic32mx/lib/libc.a(_fputc_simple.o) (_flsbuf)
/Applications/microchip/xc32/v2.15/bin/bin/../../lib/gcc/pic32mx/4.8.3/../../../../pic32mx/lib/libc.a(fflush.o)
                              /Applications/microchip/xc32/v2.15/bin/bin/../../lib/gcc/pic32mx/4.8.3/../../../../pic32mx/lib/libc.a(filbuf.o) (fflush)
/Applications/microchip/xc32/v2.15/bin/bin/../../lib/gcc/pic32mx/4.8.3/../../../../pic32mx/lib/libm.a(dpfrexp.o)
                              /Applications/microchip/xc32/v2.15/bin/bin/../../lib/gcc/pic32mx/4.8.3/../../../../pic32mx/lib/libc.a(doprnt_cdgGnopuxX.eo) (frexpl)
/Applications/microchip/xc32/v2.15/bin/bin/../../lib/gcc/pic32mx/4.8.3/../../../../pic32mx/lib/libm.a(dp32div.o)
                              /Applications/microchip/xc32/v2.15/bin/bin/../../lib/gcc/pic32mx/4.8.3/../../../../pic32mx/lib/libc.a(doprnt_cdgGnopuxX.eo) (dpdiv)
/Applications/microchip/xc32/v2.15/bin/bin/../../lib/gcc/pic32mx/4.8.3/../../../../pic32mx/lib/libm.a(dp32mul.o)
                              /Applications/microchip/xc32/v2.15/bin/bin/../../lib/gcc/pic32mx/4.8.3/../../../../pic32mx/lib/libc.a(doprnt_cdgGnopuxX.eo) (dpmul)
/Applications/microchip/xc32/v2.15/bin/bin/../../lib/gcc/pic32mx/4.8.3/../../../../pic32mx/lib/libm.a(dp32subadd.o)
                              /Applications/microchip/xc32/v2.15/bin/bin/../../lib/gcc/pic32mx/4.8.3/../../../../pic32mx/lib/libc.a(doprnt_cdgGnopuxX.eo) (dpsub)
/Applications/microchip/xc32/v2.15/bin/bin/../../lib/gcc/pic32mx/4.8.3/../../../../pic32mx/lib/libm.a(dpcmp.o)
                              /Applications/microchip/xc32/v2.15/bin/bin/../../lib/gcc/pic32mx/4.8.3/../../../../pic32mx/lib/libc.a(doprnt_cdgGnopuxX.eo) (dpcmp)
/Applications/microchip/xc32/v2.15/bin/bin/../../lib/gcc/pic32mx/4.8.3/../../../../pic32mx/lib/libm.a(dptofp.o)
                              /Applications/microchip/xc32/v2.15/bin/bin/../../lib/gcc/pic32mx/4.8.3/../../../../pic32mx/lib/libc.a(strtod.o) (dptofp)
/Applications/microchip/xc32/v2.15/bin/bin/../../lib/gcc/pic32mx/4.8.3/../../../../pic32mx/lib/libm.a(dptoul.o)
                              /Applications/microchip/xc32/v2.15/bin/bin/../../lib/gcc/pic32mx/4.8.3/../../../../pic32mx/lib/libc.a(doprnt_cdgGnopuxX.eo) (dptoul)
/Applications/microchip/xc32/v2.15/bin/bin/../../lib/gcc/pic32mx/4.8.3/../../../../pic32mx/lib/libm.a(fp32mul.o)
                              build/Board4/production/_ext/676718598/cJSON.o (fpmul)
/Applications/microchip/xc32/v2.15/bin/bin/../../lib/gcc/pic32mx/4.8.3/../../../../pic32mx/lib/libm.a(fp32subadd.o)
                              build/Board4/production/_ext/676718598/http.o (fpadd)
/Applications/microchip/xc32/v2.15/bin/bin/../../lib/gcc/pic32mx/4.8.3/../../../../pic32mx/lib/libm.a(fpcmp.o)
                              build/Board4/production/_ext/676718598/cJSON.o (fpcmp)
/Applications/microchip/xc32/v2.15/bin/bin/../../lib/gcc/pic32mx/4.8.3/../../../../pic32mx/lib/libm.a(fptodp.o)
                              /Applications/microchip/xc32/v2.15/bin/bin/../../lib/gcc/pic32mx/4.8.3/../../../../pic32mx/lib/libc.a(doprnt_cdgGnopuxX.eo) (fptodp)
/Applications/microchip/xc32/v2.15/bin/bin/../../lib/gcc/pic32mx/4.8.3/../../../../pic32mx/lib/libm.a(fptoli.o)
                              build/Board4/production/_ext/676718598/cJSON.o (fptosi)
/Applications/microchip/xc32/v2.15/bin/bin/../../lib/gcc/pic32mx/4.8.3/../../../../pic32mx/lib/libm.a(sitofp.o)
                              build/Board4/production/_ext/676718598/cJSON.o (sitofp)
/Applications/microchip/xc32/v2.15/bin/bin/../../lib/gcc/pic32mx/4.8.3/../../../../pic32mx/lib/libm.a(w_powf.o)
                              build/Board4/production/_ext/676718598/http.o (powf)
/Applications/microchip/xc32/v2.15/bin/bin/../../lib/gcc/pic32mx/4.8.3/../../../../pic32mx/lib/libm.a(__strtod.o)
                              /Applications/microchip/xc32/v2.15/bin/bin/../../lib/gcc/pic32mx/4.8.3/../../../../pic32mx/lib/libc.a(strtod.o) (__strtod)
/Applications/microchip/xc32/v2.15/bin/bin/../../lib/gcc/pic32mx/4.8.3/../../../../pic32mx/lib/libm.a(__strtof.o)
                              /Applications/microchip/xc32/v2.15/bin/bin/../../lib/gcc/pic32mx/4.8.3/../../../../pic32mx/lib/libc.a(strtof.o) (__strtof)
/Applications/microchip/xc32/v2.15/bin/bin/../../lib/gcc/pic32mx/4.8.3/../../../../pic32mx/lib/libm.a(fp32div.o)
                              /Applications/microchip/xc32/v2.15/bin/bin/../../lib/gcc/pic32mx/4.8.3/../../../../pic32mx/lib/libm.a(__strtof.o) (__divsf3)
/Applications/microchip/xc32/v2.15/bin/bin/../../lib/gcc/pic32mx/4.8.3/../../../../pic32mx/lib/libm.a(fpmodf.o)
                              /Applications/microchip/xc32/v2.15/bin/bin/../../lib/gcc/pic32mx/4.8.3/../../../../pic32mx/lib/libm.a(w_powf.o) (modff)
/Applications/microchip/xc32/v2.15/bin/bin/../../lib/gcc/pic32mx/4.8.3/../../../../pic32mx/lib/libm.a(fppow32.o)
                              /Applications/microchip/xc32/v2.15/bin/bin/../../lib/gcc/pic32mx/4.8.3/../../../../pic32mx/lib/libm.a(w_powf.o) (__mchp_powf)
/Applications/microchip/xc32/v2.15/bin/bin/../../lib/gcc/pic32mx/4.8.3/../../../../pic32mx/lib/libm.a(litodp.o)
                              /Applications/microchip/xc32/v2.15/bin/bin/../../lib/gcc/pic32mx/4.8.3/../../../../pic32mx/lib/libm.a(__strtod.o) (__floatsidf)
/Applications/microchip/xc32/v2.15/bin/bin/../../lib/gcc/pic32mx/4.8.3/../../../../pic32mx/lib/libm.a(negdf2.o)
                              /Applications/microchip/xc32/v2.15/bin/bin/../../lib/gcc/pic32mx/4.8.3/../../../../pic32mx/lib/libm.a(__strtod.o) (__negdf2)
/Applications/microchip/xc32/v2.15/bin/bin/../../lib/gcc/pic32mx/4.8.3/../../../../pic32mx/lib/libm.a(negsf2.o)
                              /Applications/microchip/xc32/v2.15/bin/bin/../../lib/gcc/pic32mx/4.8.3/../../../../pic32mx/lib/libm.a(__strtof.o) (__negsf2)
/Applications/microchip/xc32/v2.15/bin/bin/../../lib/gcc/pic32mx/4.8.3/../../../../pic32mx/lib/libm.a(s_lib_ver.o)
                              /Applications/microchip/xc32/v2.15/bin/bin/../../lib/gcc/pic32mx/4.8.3/../../../../pic32mx/lib/libm.a(w_powf.o) (math_errhandling)
/Applications/microchip/xc32/v2.15/bin/bin/../../lib/gcc/pic32mx/4.8.3/../../../../pic32mx/lib/libm.a(fpexlog.o)
                              /Applications/microchip/xc32/v2.15/bin/bin/../../lib/gcc/pic32mx/4.8.3/../../../../pic32mx/lib/libm.a(fppow32.o) (fpexlog)
/Applications/microchip/xc32/v2.15/bin/bin/../../lib/gcc/pic32mx/4.8.3/../../../../pic32mx/lib/libm.a(fpexp32.o)
                              /Applications/microchip/xc32/v2.15/bin/bin/../../lib/gcc/pic32mx/4.8.3/../../../../pic32mx/lib/libm.a(fppow32.o) (fpexexp)
/Applications/microchip/xc32/v2.15/bin/bin/../../lib/gcc/pic32mx/4.8.3/../../../../pic32mx/lib/libe.a(_fixunsdfdi.o)
                              /Applications/microchip/xc32/v2.15/bin/bin/../../lib/gcc/pic32mx/4.8.3/../../../../pic32mx/lib/libc.a(doprnt_cdgGnopuxX.eo) (__fixunsdfdi)
/Applications/microchip/xc32/v2.15/bin/bin/../../lib/gcc/pic32mx/4.8.3/../../../../pic32mx/lib/libe.a(_orderdf2.o)
                              /Applications/microchip/xc32/v2.15/bin/bin/../../lib/gcc/pic32mx/4.8.3/../../../../pic32mx/lib/libe.a(_fixunsdfdi.o) (__orderdf2)
/Applications/microchip/xc32/v2.15/bin/bin/../../lib/gcc/pic32mx/4.8.3/../../../../pic32mx/lib/libe.a(_ldexp.o)
                              /Applications/microchip/xc32/v2.15/bin/bin/../../lib/gcc/pic32mx/4.8.3/../../../../pic32mx/lib/libm.a(__strtod.o) (__ldexp)
/Applications/microchip/xc32/v2.15/bin/bin/../../lib/gcc/pic32mx/4.8.3/../../../../pic32mx/lib/libe.a(_ldexpf.o)
                              /Applications/microchip/xc32/v2.15/bin/bin/../../lib/gcc/pic32mx/4.8.3/../../../../pic32mx/lib/libm.a(__strtof.o) (__ldexpf)
/Applications/microchip/xc32/v2.15/bin/bin/../../lib/gcc/pic32mx/4.8.3/../../../../pic32mx/lib/libe.a(_fixdfdi.o)
                              /Applications/microchip/xc32/v2.15/bin/bin/../../lib/gcc/pic32mx/4.8.3/../../../../pic32mx/lib/libe.a(_fixunsdfdi.o) (__fixdfdi)
/Applications/microchip/xc32/v2.15/bin/bin/../../lib/gcc/pic32mx/4.8.3/libgcc.a(_lshrdi3.o)
                              /Applications/microchip/xc32/v2.15/bin/bin/../../lib/gcc/pic32mx/4.8.3/../../../../pic32mx/lib/libe.a(_ldexp.o) (__lshrdi3)
/Applications/microchip/xc32/v2.15/bin/bin/../../lib/gcc/pic32mx/4.8.3/libgcc.a(_ashldi3.o)
                              /Applications/microchip/xc32/v2.15/bin/bin/../../lib/gcc/pic32mx/4.8.3/../../../../pic32mx/lib/libe.a(_ldexp.o) (__ashldi3)
/Applications/microchip/xc32/v2.15/bin/bin/../../lib/gcc/pic32mx/4.8.3/libgcc.a(_floatundidf.o)
                              /Applications/microchip/xc32/v2.15/bin/bin/../../lib/gcc/pic32mx/4.8.3/../../../../pic32mx/lib/libc.a(doprnt_cdgGnopuxX.eo) (__floatundidf)
/Applications/microchip/xc32/v2.15/bin/bin/../../lib/gcc/pic32mx/4.8.3/libgcc.a(_udivdi3.o)
                              /Applications/microchip/xc32/v2.15/bin/bin/../../lib/gcc/pic32mx/4.8.3/../../../../pic32mx/lib/libc.a(doprnt_cdgGnopuxX.eo) (__udivdi3)
/Applications/microchip/xc32/v2.15/bin/bin/../../lib/gcc/pic32mx/4.8.3/libgcc.a(_umoddi3.o)
                              /Applications/microchip/xc32/v2.15/bin/bin/../../lib/gcc/pic32mx/4.8.3/../../../../pic32mx/lib/libc.a(doprnt_cdgGnopuxX.eo) (__umoddi3)
/Applications/microchip/xc32/v2.15/bin/bin/../../lib/gcc/pic32mx/4.8.3/libgcc.a(floatunsidf.o)
                              /Applications/microchip/xc32/v2.15/bin/bin/../../lib/gcc/pic32mx/4.8.3/../../../../pic32mx/lib/libc.a(doprnt_cdgGnopuxX.eo) (__floatunsidf)
/Applications/microchip/xc32/v2.15/bin/bin/../../lib/gcc/pic32mx/4.8.3/../../../../pic32mx/lib/libpic32.a(sbrk.o)
                              /Applications/microchip/xc32/v2.15/bin/bin/../../lib/gcc/pic32mx/4.8.3/../../../../pic32mx/lib/libc.a(malloc.o) (sbrk)
/Applications/microchip/xc32/v2.15/bin/bin/../../lib/gcc/pic32mx/4.8.3/../../../../pic32mx/lib/libpic32.a(read.o)
                              /Applications/microchip/xc32/v2.15/bin/bin/../../lib/gcc/pic32mx/4.8.3/../../../../pic32mx/lib/libc.a(filbuf.o) (read)
/Applications/microchip/xc32/v2.15/bin/bin/../../lib/gcc/pic32mx/4.8.3/../../../../pic32mx/lib/libpic32.a(write.o)
                              /Applications/microchip/xc32/v2.15/bin/bin/../../lib/gcc/pic32mx/4.8.3/../../../../pic32mx/lib/libc.a(_fputc_simple.o) (write)
/Applications/microchip/xc32/v2.15/bin/bin/../../lib/gcc/pic32mx/4.8.3/../../../../pic32mx/lib/libpic32.a(xc32_uart.o)
                              /Applications/microchip/xc32/v2.15/bin/bin/../../lib/gcc/pic32mx/4.8.3/../../../../pic32mx/lib/libpic32.a(read.o) (__XC_UART)
/Applications/microchip/xc32/v2.15/bin/bin/../../lib/gcc/pic32mx/4.8.3/../../../../pic32mx/lib/libpic32.a(errno.o)
                              /Applications/microchip/xc32/v2.15/bin/bin/../../lib/gcc/pic32mx/4.8.3/../../../../pic32mx/lib/libm.a(w_powf.o) (errno)
/Applications/microchip/xc32/v2.15/bin/bin/../../lib/gcc/pic32mx/4.8.3/../../../../pic32mx/lib/libpic32.a(isinf.o)
                              /Applications/microchip/xc32/v2.15/bin/bin/../../lib/gcc/pic32mx/4.8.3/../../../../pic32mx/lib/libm.a(w_powf.o) (isinfl)
/Applications/microchip/xc32/v2.15/bin/bin/../../lib/gcc/pic32mx/4.8.3/../../../../pic32mx/lib/libpic32.a(_mon_putc.o)
                              /Applications/microchip/xc32/v2.15/bin/bin/../../lib/gcc/pic32mx/4.8.3/../../../../pic32mx/lib/libpic32.a(write.o) (_mon_putc)
/Applications/microchip/xc32/v2.15/bin/bin/../../lib/gcc/pic32mx/4.8.3/../../../../pic32mx/lib/libe.a(_unorddf2.o)
                              /Applications/microchip/xc32/v2.15/bin/bin/../../lib/gcc/pic32mx/4.8.3/../../../../pic32mx/lib/libpic32.a(isinf.o) (__unorddf2)

Allocating common symbols
Common symbol       size              file

Uart_tx_queue       0x4               build/Board4/production/_ext/1210681131/drv_oc_mapping.o
Pixy_UART_ISR       0x4               build/Board4/production/_ext/1210681131/drv_oc_mapping.o
timerHndl1Sec       0x4               build/Board4/production/_ext/1210681131/drv_oc_mapping.o
Mt_LEDHandle        0x4               build/Board4/production/_ext/1210681131/drv_oc_mapping.o
Mt_SWTimerHandle    0x4               build/Board4/production/_ext/1210681131/drv_oc_mapping.o
gDrvUSART0Obj       0x8               build/Board4/production/_ext/1303525714/drv_usart_static.o
sysObj              0x18              build/Board4/production/_ext/1445490757/system_init.o
gDrvUSART2Obj       0x8               build/Board4/production/_ext/1303525714/drv_usart_static.o
PixyThread          0x4               build/Board4/production/_ext/1210681131/drv_oc_mapping.o
statistic_handle    0x4               build/Board4/production/_ext/676718598/wifi_timer.o
Mt_AdjustHandle     0x4               build/Board4/production/_ext/1210681131/drv_oc_mapping.o
gDrvUSART1Obj       0x8               build/Board4/production/_ext/1303525714/drv_usart_static.o
UARTqueue           0x4               build/Board4/production/_ext/1210681131/drv_oc_mapping.o
UART_Thread_queue   0x4               build/Board4/production/_ext/1210681131/drv_oc_mapping.o
PixyT_Handle        0x4               build/Board4/production/_ext/1210681131/drv_oc_mapping.o
sysDevconObj        0x8               build/Board4/production/_ext/652723559/sys_devcon.o
Mt_ReqHandle        0x4               build/Board4/production/_ext/1210681131/drv_oc_mapping.o
mtQueueHandle       0x4               build/Board4/production/_ext/1210681131/drv_oc_mapping.o
pi_start_handle     0x4               build/Board4/production/_ext/1210681131/drv_oc_mapping.o

Microchip PIC32 Memory-Usage Report

kseg0 Program-Memory Usage
section                    address  length [bytes]      (dec)  Description
-------                 ----------  -------------------------  -----------
.text._vfprintf_cdgGnop 0x9d000000         0x1c44        7236   
.text._vfscanf_gG       0x9d001c44          0xb98        2968   
.text.parse_value       0x9d0027dc          0x740        1856   
.text.print_value       0x9d002f1c          0x67c        1660   
.text.parse_string      0x9d003598          0x530        1328   
.text.dp32mul           0x9d003ac8          0x4b8        1208   
.text                   0x9d003f80          0x8bc        2236  App's exec code 
.text                   0x9d00483c          0x454        1108  App's exec code 
.text.dp32subadd        0x9d004c90          0x430        1072   
.text.libm              0x9d0050c0          0x408        1032   
.text.__strtod          0x9d0054c8          0x3d0         976   
.text.motorPixy         0x9d005898          0x388         904   
.rodata                 0x9d005c20          0x364         868  Read-only const 
.text.__strtof          0x9d005f84          0x358         856   
.text.dp32mul           0x9d0062dc          0x32c         812   
.dinit                  0x9d006608          0x300         768   
.text.xTaskCreate       0x9d006908          0x2c8         712   
.text.libm              0x9d006bd0          0x2b4         692   
.text.print_string_ptr  0x9d006e84          0x2a8         680   
.text.fpsubadd          0x9d00712c          0x278         632   
.text.prvTimerTask      0x9d0073a4          0x270         624   
.text.scale             0x9d007614          0x23c         572   
.text.pixy2fsm          0x9d007850          0x230         560   
.text.fp32div           0x9d007a80          0x230         560   
.text.xQueueGenericSend 0x9d007cb0          0x20c         524   
.text                   0x9d007ebc          0x204         516  App's exec code 
.text.UART_Proxy        0x9d0080c0          0x1cc         460   
.text.fround            0x9d00828c          0x1cc         460   
.text.StateMachineHelpe 0x9d008458          0x1c4         452   
.text.WaitingStateHelpe 0x9d00861c          0x1c0         448   
.text.xQueueReceive     0x9d0087dc          0x1c0         448   
.text.cJSON_ParseWithOp 0x9d00899c          0x1bc         444   
.text.fp32mul           0x9d008b58          0x1bc         444   
.DrvTmrInstance1_vector 0x9d008d14          0x1b4         436   
.DrvTmrInstance2_vector 0x9d008ec8          0x1b4         436   
.DrvTmrInstance3_vector 0x9d00907c          0x1b4         436   
.DrvUsartInstance0_vect 0x9d009230          0x1b4         436   
.DrvUsartInstance1_vect 0x9d0093e4          0x1b4         436   
.DrvUsartInstance2_vect 0x9d009598          0x1b4         436   
.text.PIXYMOTOR_PUT_con 0x9d00974c          0x1a8         424   
.text.__ldexp           0x9d0098f4          0x1a8         424   
.text                   0x9d009a9c          0x1a0         416  App's exec code 
.text.xTaskIncrementTic 0x9d009c3c          0x198         408   
.text.DRV_USART0_Initia 0x9d009dd4          0x18c         396   
.text.DRV_USART1_Initia 0x9d009f60          0x18c         396   
.text.DRV_USART2_Initia 0x9d00a0ec          0x18c         396   
.text._filbuf           0x9d00a278          0x188         392   
.text.GETnumHelpFunc    0x9d00a400          0x17c         380   
.text.IntHandlerDrvUsar 0x9d00a57c          0x16c         364   
.text.print             0x9d00a6e8          0x168         360   
.text                   0x9d00a850          0x2d0         720  App's exec code 
.rodata                 0x9d00ab20          0x160         352  Read-only const 
.text.SYS_Initialize    0x9d00ac80          0x15c         348   
.text.pvPortMalloc      0x9d00addc          0x15c         348   
.text.read              0x9d00af38          0x158         344   
.text.ensure            0x9d00b090          0x154         340   
.text.xTaskResumeAll    0x9d00b1e4          0x148         328   
.text.powf              0x9d00b32c          0x148         328   
.text.stat_http_constru 0x9d00b474          0x144         324   
.text.fputc             0x9d00b5b8          0x144         324   
.text.http_parse        0x9d00b6fc          0x140         320   
.text.pixy_uart_fsm     0x9d00b83c          0x134         308   
.text.get_object_item   0x9d00b970          0x130         304   
.text.GETrecieveHelpFun 0x9d00baa0          0x130         304   
.text._flsbuf           0x9d00bbd0          0x12c         300   
.text.dpcmp             0x9d00bcfc          0x12c         300   
.rodata                 0x9d00be28          0x128         296  Read-only const 
.text.jsonDecode        0x9d00bf50          0x124         292   
.text                   0x9d00c074          0x120         288  App's exec code 
.text.isHttp            0x9d00c194          0x11c         284   
.text.sensorStateMachin 0x9d00c2b0          0x11c         284   
.text.GET_construct_Hel 0x9d00c3cc          0x110         272   
.text.GETcontentHelpFun 0x9d00c4dc          0x110         272   
.text.prvSampleTimeNow  0x9d00c5ec          0x104         260   
.rodata                 0x9d00c6f0          0x104         260  Read-only const 
.text.fgetc             0x9d00c7f4          0x104         260   
.text.__ldexpf          0x9d00c8f8          0x104         260   
.text.IntHandlerDrvUsar 0x9d00c9fc          0x100         256   
.text.prvUnlockQueue    0x9d00cafc          0x100         256   
.text.dptofp            0x9d00cbfc          0x100         256   
.text.xTaskPriorityDisi 0x9d00ccfc           0xf8         248   
.rodata                 0x9d00cdf4            0x4           4  Read-only const 
.rodata                 0x9d00cdf8           0xf8         248  Read-only const 
.text.MT_PUT_construct_ 0x9d00cef0           0xf4         244   
.text.MT_PUT_Enco_const 0x9d00cfe4           0xf4         244   
.text.SONAR_PUT_constru 0x9d00d0d8           0xf4         244   
.text.prvCopyDataToQueu 0x9d00d1cc           0xf4         244   
.text.xQueueGenericSend 0x9d00d2c0           0xf0         240   
.text.autoAdjustPWM     0x9d00d3b0           0xec         236   
.text.__fixdfdi         0x9d00d49c           0xe8         232   
.text.IntHandlerDrvUsar 0x9d00d584           0xe4         228   
.text.add_item_to_objec 0x9d00d668           0xe4         228   
.text.prvAddCurrentTask 0x9d00d74c           0xe4         228   
.text.SYS_DEVCON_Perfor 0x9d00d830           0xe0         224   
.text.xQueueReceiveFrom 0x9d00d910           0xe0         224   
.text.vTaskSwitchContex 0x9d00d9f0           0xe0         224   
.text.SYS_Tasks         0x9d00dad0           0xdc         220   
.text.general_exception 0x9d00dbac           0xdc         220   
.text.http_construct    0x9d00dc88           0xd8         216   
.text.Uart_tx_queue_Rec 0x9d00dd60           0xd4         212   
.text.libm              0x9d00de34           0xd4         212   
.text._mon_putc         0x9d00df08           0xd4         212   
.text.setPixy2Universal 0x9d00dfdc           0xd0         208   
.text.SendValsToUART    0x9d00e0ac           0xd0         208   
.text.Step_1_handler    0x9d00e17c           0xcc         204   
.text.setXs             0x9d00e248           0xcc         204   
.text.setYs             0x9d00e314           0xcc         204   
.text.setSigMap         0x9d00e3e0           0xcc         204   
.text.setAngles         0x9d00e4ac           0xcc         204   
.text.setWidth          0x9d00e578           0xcc         204   
.text.cJSON_Delete      0x9d00e644           0xc0         192   
.text.queueData         0x9d00e704           0xc0         192   
.text.get_color_index   0x9d00e7c4           0xc0         192   
.text.xQueueGenericRese 0x9d00e884           0xc0         192   
.text.TurnLeftSpecificD 0x9d00e944           0xbc         188   
.text.TurnRightSpecific 0x9d00ea00           0xbc         188   
.text.xTaskRemoveFromEv 0x9d00eabc           0xbc         188   
.text.SYS_PORTS_Initial 0x9d00eb78           0xb0         176   
.text.Step_2_handler    0x9d00ec28           0xb0         176   
.text.fptodp            0x9d00ecd8           0xac         172   
.text.Stat_CallBack     0x9d00ed84           0xa8         168   
.text                   0x9d00ee2c           0xa8         168  App's exec code 
.text.range             0x9d00eed4           0xa8         168   
.text.atoi              0x9d00ef7c           0xa8         168   
.text.libm              0x9d00f024           0xa8         168   
.text.buffer_skip_white 0x9d00f0cc           0xa4         164   
.text.mt_Send_Running   0x9d00f170           0xa4         164   
.text.xTaskCheckForTime 0x9d00f214           0xa4         164   
.text.mt_Send_Finish    0x9d00f2b8           0xa0         160   
.text.prvIdleTask       0x9d00f358           0xa0         160   
.text.fflush            0x9d00f3f8           0xa0         160   
.text.cJSON_CreateNumbe 0x9d00f498           0x9c         156   
.text.recieveHelpFunc   0x9d00f534           0x9c         156   
.text.mt_Send_GET       0x9d00f5d0           0x9c         156   
.text.fpcmp             0x9d00f66c           0x9c         156   
.text.write             0x9d00f708           0x9c         156   
.text.WIFI_QUEUE_Recv   0x9d00f7a4           0x94         148   
.text.xQueueGenericCrea 0x9d00f838           0x94         148   
.text.xTimerGenericComm 0x9d00f8cc           0x94         148   
.text.WIFI_APP_Tasks    0x9d00f960           0x8c         140   
.text.parse_hex4        0x9d00f9ec           0x8c         140   
.text.Mt_LEDTimer_Init  0x9d00fa78           0x8c         140   
.text.Mt_AdjustTimer_In 0x9d00fb04           0x8c         140   
.text.vQueueWaitForMess 0x9d00fb90           0x8c         140   
.text.vTaskStartSchedul 0x9d00fc1c           0x8c         140   
.text.dptoul            0x9d00fca8           0x8c         140   
.text.__orderdf2        0x9d00fd34           0x8c         140   
.text.xTimerCreate      0x9d00fdc0           0x88         136   
.text.Mt_ReqTimer_Start 0x9d00fe48           0x84         132   
.text                   0x9d00fecc           0x84         132  App's exec code 
.text.Pixy_look_up_init 0x9d00ff50           0x80         128   
.text.fptoli            0x9d00ffd0           0x80         128   
.text.__fixunsdfdi      0x9d010050           0x80         128   
.text.DRV_TMR1_Initiali 0x9d0100d0           0x7c         124   
.text.litodp            0x9d01014c           0x78         120   
.text.DRV_TMR2_Initiali 0x9d0101c4           0x74         116   
.text.DRV_TMR3_Initiali 0x9d010238           0x74         116   
.text.cJSON_strdup      0x9d0102ac           0x74         116   
.text.cJSON_CreateStrin 0x9d010320           0x74         116   
.text.MtStateMachine    0x9d010394           0x74         116   
.text.xQueuePeekFromISR 0x9d010408           0x74         116   
.text.prvInsertTimerInA 0x9d01047c           0x74         116   
.text.prvCheckForValidL 0x9d0104f0           0x74         116   
.text.ungetc            0x9d010564           0x74         116   
.text.Tx_isr_fsm        0x9d0105d8           0x70         112   
.text.Stat_Timer_Init   0x9d010648           0x70         112   
.text.vPortFree         0x9d0106b8           0x70         112   
.text.strncmp           0x9d010728           0x70         112   
.text.BusyStateHelper   0x9d010798           0x6c         108   
.text.vApplicationSetup 0x9d010804           0x6c         108   
.text.DRV_USART_Initial 0x9d010870           0x68         104   
.text._sprintf_cdgGnopu 0x9d0108d8           0x68         104   
.text.MOTROR_INIT       0x9d010940           0x64         100   
.text.popMtQueue        0x9d0109a4           0x64         100   
.text.Pixy_Timer_Init   0x9d010a08           0x64         100   
.text.PixyThreadReceive 0x9d010a6c           0x64         100   
.text                   0x9d010ad0           0x64         100  App's exec code 
.text.dbgOutputLoc      0x9d010b34           0x60          96   
.text.dbgOutputVal      0x9d010b94           0x60          96   
.text.pushMtQueue       0x9d010bf4           0x60          96   
.text.Pixy_UART2_ISR_Re 0x9d010c54           0x60          96   
.text.vListInsert       0x9d010cb4           0x60          96   
.text.vTaskExitCritical 0x9d010d14           0x60          96   
.text.wspace            0x9d010d74           0x60          96   
.text.sitofp            0x9d010dd4           0x60          96   
.text.sendFromUARTISR   0x9d010e34           0x5c          92   
.text.xPortStartSchedul 0x9d010e90           0x5c          92   
.text.xTimerCreateTimer 0x9d010eec           0x5c          92   
.text.SYS_DEVCON_System 0x9d010f48           0x58          88   
.text.add_item_to_array 0x9d010fa0           0x58          88   
.text.Mt_SWTimer_Start  0x9d010ff8           0x58          88   
.text.send_2_WIFI_QUEUE 0x9d011050           0x58          88   
.text.send_2_WIFI_QUEUE 0x9d0110a8           0x58          88   
.text.send_2_Tx_queue   0x9d011100           0x58          88   
.text.xQueueCreateMutex 0x9d011158           0x58          88   
.text.init_WIFI_queue   0x9d0111b0           0x54          84   
.text.PixyQueueInit     0x9d011204           0x54          84   
.text.UARTReceiveFromQu 0x9d011258           0x54          84   
.text.SYS_INT_SourceDis 0x9d0112ac           0x54          84   
.text.pxPortInitialiseS 0x9d011300           0x54          84   
.text.vPortIncrementTic 0x9d011354           0x54          84   
.text.main_entry        0x9d0113a8           0x54          84   
.text._sscanf_gG        0x9d0113fc           0x54          84   
.rodata                 0x9d011450           0x50          80  Read-only const 
.text.MOTOR_APP_Tasks   0x9d0114a0           0x50          80   
.text.Mt_ReqTimer_Init  0x9d0114f0           0x50          80   
.text.sendFromTimer     0x9d011540           0x50          80   
.text.sendToISR         0x9d011590           0x50          80   
.text.prvCopyDataFromQu 0x9d0115e0           0x50          80   
.text.update_offset     0x9d011630           0x4c          76   
.rodata                 0x9d01167c           0x4c          76  Read-only const 
.text.uxListRemove      0x9d0116c8           0x4c          76   
.text                   0x9d011714           0x4c          76  App's exec code 
.text.SYS_DEVCON_System 0x9d011760           0x48          72   
.text.SET_LEFT_PWM      0x9d0117a8           0x48          72   
.text.SET_RIGHT_PWM     0x9d0117f0           0x48          72   
.text.GoStraightLine    0x9d011838           0x48          72   
.text.GoBackStraightLin 0x9d011880           0x48          72   
.text.Mt_TimerCallback  0x9d0118c8           0x48          72   
.text.Mt_SWTimer_Init   0x9d011910           0x48          72   
.text.PixyCallback      0x9d011958           0x48          72   
.text.vTaskPlaceOnEvent 0x9d0119a0           0x48          72   
.text.vTaskEnterCritica 0x9d0119e8           0x48          72   
.text._bootstrap_except 0x9d011a30           0x48          72   
.vector_default         0x9d011a78           0x48          72   
.rodata                 0x9d011ac0           0x48          72  Read-only const 
.text.SYS_CLK_Initializ 0x9d011b08           0x44          68   
.text.MOTOR_APP_Initial 0x9d011b4c           0x44          68   
.text.cJSON_New_Item    0x9d011b90           0x44          68   
.text                   0x9d011bd4           0x44          68  App's exec code 
.text.strcat            0x9d011c18           0x44          68   
.text                   0x9d011c5c           0x44          68  App's exec code 
.text._general_exceptio 0x9d011ca0           0x40          64   
.text.Mt_SWTimer_SetPer 0x9d011ce0           0x40          64   
.text.PIXY_APP_Tasks    0x9d011d20           0x40          64   
.text.SENSOR_APP_Tasks  0x9d011d60           0x40          64   
.text                   0x9d011da0           0x80         128  App's exec code 
.text.DRV_OC0_Initializ 0x9d011e20           0x3c          60   
.text.DRV_OC1_Initializ 0x9d011e5c           0x3c          60   
.text.DRV_TMR1_Start    0x9d011e98           0x3c          60   
.text.DRV_TMR2_Start    0x9d011ed4           0x3c          60   
.text.DRV_TMR3_Start    0x9d011f10           0x3c          60   
.text.reStartTimer      0x9d011f4c           0x3c          60   
.text.sendFromISRtoQueu 0x9d011f88           0x3c          60   
.text.OSAL_MUTEX_Create 0x9d011fc4           0x3c          60   
.text.uxPortSetInterrup 0x9d012000           0x3c          60   
.text.prvResetNextTaskU 0x9d01203c           0x38          56   
.text.vTaskPlaceOnEvent 0x9d012074           0x38          56   
.text.motorQueue_init   0x9d0120ac           0x34          52   
.text.Mt_ReqTimer_Stop  0x9d0120e0           0x34          52   
.text.UARTQueue_init    0x9d012114           0x34          52   
.text.vListInsertEnd    0x9d012148           0x34          52   
.text.prvIsQueueEmpty   0x9d01217c           0x34          52   
.text.fetchBlocks       0x9d0121b0           0x30          48   
.text.pvTimerGetTimerID 0x9d0121e0           0x30          48   
.text.cJSON_CreateObjec 0x9d012210           0x2c          44   
.text.everythingStop    0x9d01223c           0x2c          44   
.text.MotorStop         0x9d012268           0x2c          44   
.text.PIXY_APP_Initiali 0x9d012294           0x2c          44   
.text.TurnLeft_90_Degre 0x9d0122c0           0x28          40   
.text.TurnRight_90_Degr 0x9d0122e8           0x28          40   
.rodata                 0x9d012310           0x28          40  Read-only const 
.text.tx_queue_empty_fr 0x9d012338           0x28          40   
.text.SENSOR_APP_Initia 0x9d012360           0x28          40   
.text.strtod            0x9d012388           0x28          40   
.text.isinfl            0x9d0123b0           0x28          40   
.text.vApplicationStack 0x9d0123d8           0x24          36   
.text.vApplicationMallo 0x9d0123fc           0x24          36   
.text.WIFI_APP_Initiali 0x9d012420           0x24          36   
.text.cJSON_PrintUnform 0x9d012444           0x24          36   
.text.cJSON_AddItemToOb 0x9d012468           0x24          36   
.text.Mt_LEDTimerCallba 0x9d01248c           0x24          36   
.text.Mt_AdjustTimerCal 0x9d0124b0           0x24          36   
.text.Mt_ReqTimerCallba 0x9d0124d4           0x24          36   
.text.prvTaskExitError  0x9d0124f8           0x24          36   
.text.vListInitialise   0x9d01251c           0x24          36   
.text.tolower           0x9d012540           0x24          36   
.text.main              0x9d012564           0x20          32   
.text.cJSON_Parse       0x9d012584           0x20          32   
.text.sendFinishFeedBac 0x9d0125a4           0x20          32   
.text.sendAdjustFeedBac 0x9d0125c4           0x20          32   
.text.SYS_INT_Disable   0x9d0125e4           0x20          32   
.text.xTaskGetScheduler 0x9d012604           0x20          32   
.text.IntHandlerDrvTmrI 0x9d012624           0x1c          28   
.text.IntHandlerDrvTmrI 0x9d012640           0x1c          28   
.text.IntHandlerDrvTmrI 0x9d01265c           0x1c          28   
.text.cJSON_GetObjectIt 0x9d012678           0x1c          28   
.text.vPortClearInterru 0x9d012694           0x1c          28   
.text.strtof            0x9d0126b0           0x1c          28   
.text.negdf2            0x9d0126cc           0x1c          28   
.text.SYS_DEVCON_JTAGDi 0x9d0126e8           0x18          24   
.text._PIXY_APP_Tasks   0x9d012700           0x18          24   
.text._SENSOR_APP_Tasks 0x9d012718           0x18          24   
.text._WIFI_APP_Tasks   0x9d012730           0x18          24   
.text._MOTOR_APP_Tasks  0x9d012748           0x18          24   
.text.LED_Test          0x9d012760           0x18          24   
.text                   0x9d012778           0x18          24  App's exec code 
.rodata                 0x9d012790           0x18          24  Read-only const 
.text.DRV_OC0_Start     0x9d0127a8           0x14          20   
.text.DRV_OC0_PulseWidt 0x9d0127bc           0x14          20   
.text.DRV_OC1_Start     0x9d0127d0           0x14          20   
.text.DRV_OC1_PulseWidt 0x9d0127e4           0x14          20   
.text.DRV_TMR1_PeriodVa 0x9d0127f8           0x14          20   
.text.DRV_TMR2_CounterV 0x9d01280c           0x14          20   
.text.DRV_TMR3_CounterV 0x9d012820           0x14          20   
.text.SYS_DEVCON_Initia 0x9d012834           0x14          20   
.text.SYS_INT_Initializ 0x9d012848           0x14          20   
.text.vTaskSuspendAll   0x9d01285c           0x14          20   
.text.vTaskInternalSetT 0x9d012870           0x14          20   
.text.negsf2            0x9d012884           0x14          20   
.text.DRV_TMR2_CounterC 0x9d012898           0x10          16   
.text.DRV_TMR3_CounterC 0x9d0128a8           0x10          16   
.rodata                 0x9d0128b8           0x10          16  Read-only const 
.text.vTaskMissedYield  0x9d0128c8           0x10          16   
.text.SYS_CLK_SystemFre 0x9d0128d8            0xc          12   
.text.SYS_CLK_Periphera 0x9d0128e4            0xc          12   
.rodata                 0x9d0128f0            0xc          12  Read-only const 
.text.xTaskGetTickCount 0x9d0128fc            0xc          12   
.text._SYS_Tasks        0x9d012908            0x8           8   
.text.vListInitialiseIt 0x9d012910            0x8           8   
.rodata                 0x9d012918           0x10          16  Read-only const 
.text._on_reset         0x9d012928            0x8           8   
.text._on_bootstrap     0x9d012930            0x8           8   
.rodata                 0x9d012938           0x10          16  Read-only const 
.rodata                 0x9d012948            0x4           4  Read-only const 
      Total kseg0_program_mem used  :     0x1294c       76108  14.5% of 0x80000

kseg0 Boot-Memory Usage
section                    address  length [bytes]      (dec)  Description
-------                 ----------  -------------------------  -----------
         Total kseg0_boot_mem used  :           0           0  <1% of 0x970

Exception-Memory Usage 
section                    address  length [bytes]      (dec)  Description
-------                 ----------  -------------------------  -----------
.app_excpt              0x9fc01180           0x10          16  General-Exception 
.vector_0               0x9fc01200            0x8           8  Interrupt Vector 0 
.vector_1               0x9fc01220            0x8           8  Interrupt Vector 1 
.vector_2               0x9fc01240            0x8           8  Interrupt Vector 2 
.vector_3               0x9fc01260            0x8           8  Interrupt Vector 3 
.vector_4               0x9fc01280            0x8           8  Interrupt Vector 4 
.vector_5               0x9fc012a0            0x8           8  Interrupt Vector 5 
.vector_6               0x9fc012c0            0x8           8  Interrupt Vector 6 
.vector_7               0x9fc012e0            0x8           8  Interrupt Vector 7 
.vector_8               0x9fc01300           0x10          16  Interrupt Vector 8 
.vector_9               0x9fc01320            0x8           8  Interrupt Vector 9 
.vector_10              0x9fc01340            0x8           8  Interrupt Vector 10 
.vector_11              0x9fc01360            0x8           8  Interrupt Vector 11 
.vector_12              0x9fc01380           0x10          16  Interrupt Vector 12 
.vector_13              0x9fc013a0            0x8           8  Interrupt Vector 13 
.vector_14              0x9fc013c0            0x8           8  Interrupt Vector 14 
.vector_15              0x9fc013e0            0x8           8  Interrupt Vector 15 
.vector_16              0x9fc01400            0x8           8  Interrupt Vector 16 
.vector_17              0x9fc01420            0x8           8  Interrupt Vector 17 
.vector_18              0x9fc01440            0x8           8  Interrupt Vector 18 
.vector_19              0x9fc01460            0x8           8  Interrupt Vector 19 
.vector_20              0x9fc01480           0x10          16  Interrupt Vector 20 
.vector_21              0x9fc014a0            0x8           8  Interrupt Vector 21 
.vector_22              0x9fc014c0            0x8           8  Interrupt Vector 22 
.vector_23              0x9fc014e0            0x8           8  Interrupt Vector 23 
.vector_24              0x9fc01500           0x10          16  Interrupt Vector 24 
.vector_25              0x9fc01520            0x8           8  Interrupt Vector 25 
.vector_26              0x9fc01540            0x8           8  Interrupt Vector 26 
.vector_27              0x9fc01560            0x8           8  Interrupt Vector 27 
.vector_28              0x9fc01580            0x8           8  Interrupt Vector 28 
.vector_29              0x9fc015a0            0x8           8  Interrupt Vector 29 
.vector_30              0x9fc015c0            0x8           8  Interrupt Vector 30 
.vector_31              0x9fc015e0            0x8           8  Interrupt Vector 31 
.vector_32              0x9fc01600           0x10          16  Interrupt Vector 32 
.vector_33              0x9fc01620            0x8           8  Interrupt Vector 33 
.vector_34              0x9fc01640            0x8           8  Interrupt Vector 34 
.vector_35              0x9fc01660            0x8           8  Interrupt Vector 35 
.vector_36              0x9fc01680            0x8           8  Interrupt Vector 36 
.vector_37              0x9fc016a0            0x8           8  Interrupt Vector 37 
.vector_38              0x9fc016c0            0x8           8  Interrupt Vector 38 
.vector_39              0x9fc016e0            0x8           8  Interrupt Vector 39 
.vector_40              0x9fc01700            0x8           8  Interrupt Vector 40 
.vector_41              0x9fc01720            0x8           8  Interrupt Vector 41 
.vector_42              0x9fc01740            0x8           8  Interrupt Vector 42 
.vector_43              0x9fc01760            0x8           8  Interrupt Vector 43 
.vector_44              0x9fc01780            0x8           8  Interrupt Vector 44 
.vector_45              0x9fc017a0            0x8           8  Interrupt Vector 45 
.vector_46              0x9fc017c0            0x8           8  Interrupt Vector 46 
.vector_47              0x9fc017e0            0x8           8  Interrupt Vector 47 
.vector_48              0x9fc01800            0x8           8  Interrupt Vector 48 
.vector_49              0x9fc01820           0x10          16  Interrupt Vector 49 
.vector_50              0x9fc01840            0x8           8  Interrupt Vector 50 
.vector_51              0x9fc01860            0x8           8  Interrupt Vector 51 
          Total exception_mem used  :       0x1e0         480  11.7% of 0x1000

kseg1 Boot-Memory Usage
section                    address  length [bytes]      (dec)  Description
-------                 ----------  -------------------------  -----------
.reset                  0xbfc00000          0x1a8         424  Reset handler 
.bev_excpt              0xbfc00380           0x10          16  BEV-Exception 
         Total kseg1_boot_mem used  :       0x1b8         440  37.7% of 0x490
        --------------------------------------------------------------------------
         Total Program Memory used  :     0x12ce4       77028  14.5% of 0x81e00
        --------------------------------------------------------------------------


kseg1 Data-Memory Usage
section                    address  length [bytes]      (dec)  Description
-------                 ----------  -------------------------  -----------
.sdata                  0xa0000000           0x14          20  Small init data 
.sbss                   0xa0000014          0x128         296  Small uninit data 
.bss                    0xa000013c           0x18          24  Uninitialized data 
.bss                    0xa0000154        0x14000       81920  Uninitialized data 
.bss                    0xa0014154            0x4           4  Uninitialized data 
.bss                    0xa0014158          0x948        2376  Uninitialized data 
.bss                    0xa0014aa0          0x344         836  Uninitialized data 
.bss                    0xa0014de4           0xc8         200  Uninitialized data 
.data                   0xa0014eac          0x130         304  Initialized data 
.bss                    0xa0014fdc           0xa0         160  Uninitialized data 
.bss                    0xa001507c           0x28          40  Uninitialized data 
.data                   0xa00150a4           0x28          40  Initialized data 
.data.math_errhandling_ 0xa00150cc            0x4           4   
.bss.errno              0xa00150d0            0x4           4   
         Total kseg1_data_mem used  :     0x150d4       86228  65.8% of 0x20000
        --------------------------------------------------------------------------
            Total Data Memory used  :     0x150d4       86228  65.8% of 0x20000
        --------------------------------------------------------------------------


Dynamic Data-Memory Reservation
section                    address  length [bytes]      (dec)  Description
-------                 ----------  -------------------------  -----------
heap                    0xa00150d8              0           0  Reserved for heap 
stack                   0xa00150f0         0xaf00       44800  Reserved for stack 

        --------------------------------------------------------------------------

Discarded input sections

 .text          0x00000000        0x0 /Applications/microchip/xc32/v2.15/bin/bin/../../lib/gcc/pic32mx/4.8.3/../../../../pic32mx/lib/debug-exception-return.o
 .data          0x00000000        0x0 /Applications/microchip/xc32/v2.15/bin/bin/../../lib/gcc/pic32mx/4.8.3/../../../../pic32mx/lib/debug-exception-return.o
 .bss           0x00000000        0x0 /Applications/microchip/xc32/v2.15/bin/bin/../../lib/gcc/pic32mx/4.8.3/../../../../pic32mx/lib/debug-exception-return.o
 .text          0x00000000        0x0 build/Board4/production/_ext/1210681131/drv_oc_mapping.o
 .data          0x00000000        0x0 build/Board4/production/_ext/1210681131/drv_oc_mapping.o
 .bss           0x00000000        0x0 build/Board4/production/_ext/1210681131/drv_oc_mapping.o
 .reginfo       0x00000000       0x18 build/Board4/production/_ext/1210681131/drv_oc_mapping.o
 .text.DRV_OC_Initialize
                0x00000000       0x5c build/Board4/production/_ext/1210681131/drv_oc_mapping.o
 .text.DRV_OC_Start
                0x00000000       0x5c build/Board4/production/_ext/1210681131/drv_oc_mapping.o
 .text.DRV_OC_Stop
                0x00000000       0x44 build/Board4/production/_ext/1210681131/drv_oc_mapping.o
 .text.DRV_OC_CompareValuesSingleSet
                0x00000000        0x8 build/Board4/production/_ext/1210681131/drv_oc_mapping.o
 .text.DRV_OC_CompareValuesDualSet
                0x00000000        0x8 build/Board4/production/_ext/1210681131/drv_oc_mapping.o
 .text.DRV_OC_PulseWidthSet
                0x00000000       0x44 build/Board4/production/_ext/1210681131/drv_oc_mapping.o
 .text.DRV_OC_FaultHasOccurred
                0x00000000       0x48 build/Board4/production/_ext/1210681131/drv_oc_mapping.o
 .text          0x00000000        0x0 build/Board4/production/_ext/1210681131/drv_oc_static.o
 .data          0x00000000        0x0 build/Board4/production/_ext/1210681131/drv_oc_static.o
 .bss           0x00000000        0x0 build/Board4/production/_ext/1210681131/drv_oc_static.o
 .reginfo       0x00000000       0x18 build/Board4/production/_ext/1210681131/drv_oc_static.o
 .text.DRV_OC0_Enable
                0x00000000       0x14 build/Board4/production/_ext/1210681131/drv_oc_static.o
 .text.DRV_OC0_Disable
                0x00000000       0x14 build/Board4/production/_ext/1210681131/drv_oc_static.o
 .text.DRV_OC0_Stop
                0x00000000       0x14 build/Board4/production/_ext/1210681131/drv_oc_static.o
 .text.DRV_OC0_FaultHasOccurred
                0x00000000       0x10 build/Board4/production/_ext/1210681131/drv_oc_static.o
 .text.DRV_OC1_Enable
                0x00000000       0x14 build/Board4/production/_ext/1210681131/drv_oc_static.o
 .text.DRV_OC1_Disable
                0x00000000       0x14 build/Board4/production/_ext/1210681131/drv_oc_static.o
 .text.DRV_OC1_Stop
                0x00000000       0x14 build/Board4/production/_ext/1210681131/drv_oc_static.o
 .text.DRV_OC1_FaultHasOccurred
                0x00000000       0x10 build/Board4/production/_ext/1210681131/drv_oc_static.o
 .text          0x00000000        0x0 build/Board4/production/_ext/1612284866/drv_tmr_static.o
 .data          0x00000000        0x0 build/Board4/production/_ext/1612284866/drv_tmr_static.o
 .bss           0x00000000        0x0 build/Board4/production/_ext/1612284866/drv_tmr_static.o
 .reginfo       0x00000000       0x18 build/Board4/production/_ext/1612284866/drv_tmr_static.o
 .text._DRV_TMR_ClockSourceSet
                0x00000000       0xa8 build/Board4/production/_ext/1612284866/drv_tmr_static.o
 .text.DRV_TMR1_Stop
                0x00000000       0x40 build/Board4/production/_ext/1612284866/drv_tmr_static.o
 .text.DRV_TMR1_ClientStatus
                0x00000000       0x14 build/Board4/production/_ext/1612284866/drv_tmr_static.o
 .text.DRV_TMR1_CounterValueSet
                0x00000000       0x14 build/Board4/production/_ext/1612284866/drv_tmr_static.o
 .text.DRV_TMR1_CounterValueGet
                0x00000000       0x14 build/Board4/production/_ext/1612284866/drv_tmr_static.o
 .text.DRV_TMR1_CounterClear
                0x00000000       0x10 build/Board4/production/_ext/1612284866/drv_tmr_static.o
 .text.DRV_TMR1_DividerRangeGet
                0x00000000       0x2c build/Board4/production/_ext/1612284866/drv_tmr_static.o
 .text.DRV_TMR1_CounterFrequencyGet
                0x00000000       0x4c build/Board4/production/_ext/1612284866/drv_tmr_static.o
 .text.DRV_TMR1_PrescalerGet
                0x00000000       0xa4 build/Board4/production/_ext/1612284866/drv_tmr_static.o
 .text.DRV_TMR1_PeriodValueSet
                0x00000000       0x14 build/Board4/production/_ext/1612284866/drv_tmr_static.o
 .text.DRV_TMR1_StopInIdleDisable
                0x00000000       0x14 build/Board4/production/_ext/1612284866/drv_tmr_static.o
 .text.DRV_TMR1_StopInIdleEnable
                0x00000000       0x14 build/Board4/production/_ext/1612284866/drv_tmr_static.o
 .text.DRV_TMR1_ClockSet
                0x00000000       0xb8 build/Board4/production/_ext/1612284866/drv_tmr_static.o
 .text.DRV_TMR2_Stop
                0x00000000       0x40 build/Board4/production/_ext/1612284866/drv_tmr_static.o
 .text.DRV_TMR2_ClientStatus
                0x00000000       0x14 build/Board4/production/_ext/1612284866/drv_tmr_static.o
 .text.DRV_TMR2_CounterValueSet
                0x00000000       0x14 build/Board4/production/_ext/1612284866/drv_tmr_static.o
 .text.DRV_TMR2_DividerRangeGet
                0x00000000       0x2c build/Board4/production/_ext/1612284866/drv_tmr_static.o
 .text.DRV_TMR2_CounterFrequencyGet
                0x00000000        0x8 build/Board4/production/_ext/1612284866/drv_tmr_static.o
 .text.DRV_TMR2_PrescalerGet
                0x00000000       0xa4 build/Board4/production/_ext/1612284866/drv_tmr_static.o
 .text.DRV_TMR2_PeriodValueSet
                0x00000000       0x14 build/Board4/production/_ext/1612284866/drv_tmr_static.o
 .text.DRV_TMR2_PeriodValueGet
                0x00000000       0x14 build/Board4/production/_ext/1612284866/drv_tmr_static.o
 .text.DRV_TMR2_StopInIdleDisable
                0x00000000       0x14 build/Board4/production/_ext/1612284866/drv_tmr_static.o
 .text.DRV_TMR2_StopInIdleEnable
                0x00000000       0x14 build/Board4/production/_ext/1612284866/drv_tmr_static.o
 .text.DRV_TMR2_ClockSet
                0x00000000       0xb8 build/Board4/production/_ext/1612284866/drv_tmr_static.o
 .text.DRV_TMR3_Stop
                0x00000000       0x40 build/Board4/production/_ext/1612284866/drv_tmr_static.o
 .text.DRV_TMR3_ClientStatus
                0x00000000       0x14 build/Board4/production/_ext/1612284866/drv_tmr_static.o
 .text.DRV_TMR3_CounterValueSet
                0x00000000       0x14 build/Board4/production/_ext/1612284866/drv_tmr_static.o
 .text.DRV_TMR3_DividerRangeGet
                0x00000000       0x2c build/Board4/production/_ext/1612284866/drv_tmr_static.o
 .text.DRV_TMR3_CounterFrequencyGet
                0x00000000        0x8 build/Board4/production/_ext/1612284866/drv_tmr_static.o
 .text.DRV_TMR3_PrescalerGet
                0x00000000       0xa4 build/Board4/production/_ext/1612284866/drv_tmr_static.o
 .text.DRV_TMR3_PeriodValueSet
                0x00000000       0x14 build/Board4/production/_ext/1612284866/drv_tmr_static.o
 .text.DRV_TMR3_PeriodValueGet
                0x00000000       0x14 build/Board4/production/_ext/1612284866/drv_tmr_static.o
 .text.DRV_TMR3_StopInIdleDisable
                0x00000000       0x14 build/Board4/production/_ext/1612284866/drv_tmr_static.o
 .text.DRV_TMR3_StopInIdleEnable
                0x00000000       0x14 build/Board4/production/_ext/1612284866/drv_tmr_static.o
 .text.DRV_TMR3_ClockSet
                0x00000000       0xb8 build/Board4/production/_ext/1612284866/drv_tmr_static.o
 .text          0x00000000        0x0 build/Board4/production/_ext/1612284866/drv_tmr_mapping.o
 .data          0x00000000        0x0 build/Board4/production/_ext/1612284866/drv_tmr_mapping.o
 .bss           0x00000000        0x0 build/Board4/production/_ext/1612284866/drv_tmr_mapping.o
 .reginfo       0x00000000       0x18 build/Board4/production/_ext/1612284866/drv_tmr_mapping.o
 .text.DRV_TMR_Initialize
                0x00000000       0x60 build/Board4/production/_ext/1612284866/drv_tmr_mapping.o
 .text.DRV_TMR_Deinitialize
                0x00000000       0x58 build/Board4/production/_ext/1612284866/drv_tmr_mapping.o
 .text.DRV_TMR_Status
                0x00000000        0x8 build/Board4/production/_ext/1612284866/drv_tmr_mapping.o
 .text.DRV_TMR_Tasks
                0x00000000        0x8 build/Board4/production/_ext/1612284866/drv_tmr_mapping.o
 .text.DRV_TMR_Open
                0x00000000       0x30 build/Board4/production/_ext/1612284866/drv_tmr_mapping.o
 .text.DRV_TMR_Close
                0x00000000       0x58 build/Board4/production/_ext/1612284866/drv_tmr_mapping.o
 .text.DRV_TMR_ClientStatus
                0x00000000       0x64 build/Board4/production/_ext/1612284866/drv_tmr_mapping.o
 .text.DRV_TMR_CounterValueSet
                0x00000000       0x58 build/Board4/production/_ext/1612284866/drv_tmr_mapping.o
 .text.DRV_TMR_CounterValueGet
                0x00000000       0x64 build/Board4/production/_ext/1612284866/drv_tmr_mapping.o
 .text.DRV_TMR_CounterClear
                0x00000000       0x58 build/Board4/production/_ext/1612284866/drv_tmr_mapping.o
 .text.DRV_TMR_AlarmRegister
                0x00000000        0x8 build/Board4/production/_ext/1612284866/drv_tmr_mapping.o
 .text.DRV_TMR_AlarmDisable
                0x00000000        0x8 build/Board4/production/_ext/1612284866/drv_tmr_mapping.o
 .text.DRV_TMR_AlarmEnable
                0x00000000        0x8 build/Board4/production/_ext/1612284866/drv_tmr_mapping.o
 .text.DRV_TMR_AlarmPeriodSet
                0x00000000        0x8 build/Board4/production/_ext/1612284866/drv_tmr_mapping.o
 .text.DRV_TMR_AlarmPeriodGet
                0x00000000        0x8 build/Board4/production/_ext/1612284866/drv_tmr_mapping.o
 .text.DRV_TMR_AlarmDeregister
                0x00000000        0x8 build/Board4/production/_ext/1612284866/drv_tmr_mapping.o
 .text.DRV_TMR_Start
                0x00000000       0x64 build/Board4/production/_ext/1612284866/drv_tmr_mapping.o
 .text.DRV_TMR_Stop
                0x00000000       0x58 build/Board4/production/_ext/1612284866/drv_tmr_mapping.o
 .text.DRV_TMR_AlarmHasElapsed
                0x00000000        0x8 build/Board4/production/_ext/1612284866/drv_tmr_mapping.o
 .text.DRV_TMR_OperationModeGet
                0x00000000        0xc build/Board4/production/_ext/1612284866/drv_tmr_mapping.o
 .text.DRV_TMR_ClockSet
                0x00000000       0x6c build/Board4/production/_ext/1612284866/drv_tmr_mapping.o
 .text.DRV_TMR_PrescalerGet
                0x00000000       0x64 build/Board4/production/_ext/1612284866/drv_tmr_mapping.o
 .text.DRV_TMR_GateModeSet
                0x00000000        0x8 build/Board4/production/_ext/1612284866/drv_tmr_mapping.o
 .text.DRV_TMR_GateModeClear
                0x00000000        0x8 build/Board4/production/_ext/1612284866/drv_tmr_mapping.o
 .text.DRV_TMR_CounterFrequencyGet
                0x00000000       0x64 build/Board4/production/_ext/1612284866/drv_tmr_mapping.o
 .text.DRV_TMR_DividerRangeGet
                0x00000000       0x64 build/Board4/production/_ext/1612284866/drv_tmr_mapping.o
 .text          0x00000000        0x0 build/Board4/production/_ext/1303525714/drv_usart_mapping.o
 .data          0x00000000        0x0 build/Board4/production/_ext/1303525714/drv_usart_mapping.o
 .bss           0x00000000        0x0 build/Board4/production/_ext/1303525714/drv_usart_mapping.o
 .reginfo       0x00000000       0x18 build/Board4/production/_ext/1303525714/drv_usart_mapping.o
 .text.DRV_USART_Deinitialize
                0x00000000       0x5c build/Board4/production/_ext/1303525714/drv_usart_mapping.o
 .text.DRV_USART_Status
                0x00000000       0x68 build/Board4/production/_ext/1303525714/drv_usart_mapping.o
 .text.DRV_USART_TasksTransmit
                0x00000000       0x5c build/Board4/production/_ext/1303525714/drv_usart_mapping.o
 .text.DRV_USART_TasksReceive
                0x00000000       0x5c build/Board4/production/_ext/1303525714/drv_usart_mapping.o
 .text.DRV_USART_TasksError
                0x00000000       0x5c build/Board4/production/_ext/1303525714/drv_usart_mapping.o
 .text.DRV_USART_Open
                0x00000000       0x68 build/Board4/production/_ext/1303525714/drv_usart_mapping.o
 .text.DRV_USART_Close
                0x00000000       0x60 build/Board4/production/_ext/1303525714/drv_usart_mapping.o
 .text.DRV_USART_ClientStatus
                0x00000000       0x6c build/Board4/production/_ext/1303525714/drv_usart_mapping.o
 .text.DRV_USART_TransferStatus
                0x00000000       0x6c build/Board4/production/_ext/1303525714/drv_usart_mapping.o
 .text.DRV_USART_ErrorGet
                0x00000000       0x6c build/Board4/production/_ext/1303525714/drv_usart_mapping.o
 .text.DRV_USART_ReadByte
                0x00000000       0x6c build/Board4/production/_ext/1303525714/drv_usart_mapping.o
 .text.DRV_USART_WriteByte
                0x00000000       0x60 build/Board4/production/_ext/1303525714/drv_usart_mapping.o
 .text.DRV_USART_ReceiverBufferSizeGet
                0x00000000       0x6c build/Board4/production/_ext/1303525714/drv_usart_mapping.o
 .text.DRV_USART_TransmitBufferSizeGet
                0x00000000       0x6c build/Board4/production/_ext/1303525714/drv_usart_mapping.o
 .text.DRV_USART_ReceiverBufferIsEmpty
                0x00000000       0x6c build/Board4/production/_ext/1303525714/drv_usart_mapping.o
 .text.DRV_USART_TransmitBufferIsFull
                0x00000000       0x6c build/Board4/production/_ext/1303525714/drv_usart_mapping.o
 .text.DRV_USART_BaudSet
                0x00000000       0x68 build/Board4/production/_ext/1303525714/drv_usart_mapping.o
 .text.DRV_USART_LineControlSet
                0x00000000       0x68 build/Board4/production/_ext/1303525714/drv_usart_mapping.o
 .text          0x00000000        0x0 build/Board4/production/_ext/1303525714/drv_usart_static.o
 .data          0x00000000        0x0 build/Board4/production/_ext/1303525714/drv_usart_static.o
 .bss           0x00000000        0x0 build/Board4/production/_ext/1303525714/drv_usart_static.o
 .reginfo       0x00000000       0x18 build/Board4/production/_ext/1303525714/drv_usart_static.o
 .text.DRV_USART0_Deinitialize
                0x00000000       0x4c build/Board4/production/_ext/1303525714/drv_usart_static.o
 .text.DRV_USART0_Status
                0x00000000        0x8 build/Board4/production/_ext/1303525714/drv_usart_static.o
 .text.DRV_USART0_TasksTransmit
                0x00000000       0x48 build/Board4/production/_ext/1303525714/drv_usart_static.o
 .text.DRV_USART0_TasksReceive
                0x00000000       0x2c build/Board4/production/_ext/1303525714/drv_usart_static.o
 .text.DRV_USART0_TasksError
                0x00000000       0x2c build/Board4/production/_ext/1303525714/drv_usart_static.o
 .text.DRV_USART0_Open
                0x00000000        0x8 build/Board4/production/_ext/1303525714/drv_usart_static.o
 .text.DRV_USART0_Close
                0x00000000        0x8 build/Board4/production/_ext/1303525714/drv_usart_static.o
 .text.DRV_USART0_ClientStatus
                0x00000000        0x8 build/Board4/production/_ext/1303525714/drv_usart_static.o
 .text.DRV_USART0_TransferStatus
                0x00000000       0x48 build/Board4/production/_ext/1303525714/drv_usart_static.o
 .text.DRV_USART0_ErrorGet
                0x00000000       0x10 build/Board4/production/_ext/1303525714/drv_usart_static.o
 .text._DRV_USART0_ErrorConditionClear
                0x00000000       0x88 build/Board4/production/_ext/1303525714/drv_usart_static.o
 .text.DRV_USART0_BaudSet
                0x00000000       0xf0 build/Board4/production/_ext/1303525714/drv_usart_static.o
 .text.DRV_USART0_LineControlSet
                0x00000000       0x74 build/Board4/production/_ext/1303525714/drv_usart_static.o
 .text.DRV_USART1_Deinitialize
                0x00000000       0x4c build/Board4/production/_ext/1303525714/drv_usart_static.o
 .text.DRV_USART1_Status
                0x00000000        0x8 build/Board4/production/_ext/1303525714/drv_usart_static.o
 .text.DRV_USART1_TasksTransmit
                0x00000000       0x4c build/Board4/production/_ext/1303525714/drv_usart_static.o
 .text.DRV_USART1_TasksReceive
                0x00000000       0x30 build/Board4/production/_ext/1303525714/drv_usart_static.o
 .text.DRV_USART1_TasksError
                0x00000000       0x30 build/Board4/production/_ext/1303525714/drv_usart_static.o
 .text.DRV_USART1_Open
                0x00000000        0x8 build/Board4/production/_ext/1303525714/drv_usart_static.o
 .text.DRV_USART1_Close
                0x00000000        0x8 build/Board4/production/_ext/1303525714/drv_usart_static.o
 .text.DRV_USART1_ClientStatus
                0x00000000        0x8 build/Board4/production/_ext/1303525714/drv_usart_static.o
 .text.DRV_USART1_TransferStatus
                0x00000000       0x48 build/Board4/production/_ext/1303525714/drv_usart_static.o
 .text.DRV_USART1_ErrorGet
                0x00000000       0x10 build/Board4/production/_ext/1303525714/drv_usart_static.o
 .text._DRV_USART1_ErrorConditionClear
                0x00000000       0x88 build/Board4/production/_ext/1303525714/drv_usart_static.o
 .text.DRV_USART1_BaudSet
                0x00000000       0xf0 build/Board4/production/_ext/1303525714/drv_usart_static.o
 .text.DRV_USART1_LineControlSet
                0x00000000       0x74 build/Board4/production/_ext/1303525714/drv_usart_static.o
 .text.DRV_USART2_Deinitialize
                0x00000000       0x4c build/Board4/production/_ext/1303525714/drv_usart_static.o
 .text.DRV_USART2_Status
                0x00000000        0x8 build/Board4/production/_ext/1303525714/drv_usart_static.o
 .text.DRV_USART2_TasksTransmit
                0x00000000       0x4c build/Board4/production/_ext/1303525714/drv_usart_static.o
 .text.DRV_USART2_TasksReceive
                0x00000000       0x30 build/Board4/production/_ext/1303525714/drv_usart_static.o
 .text.DRV_USART2_TasksError
                0x00000000       0x30 build/Board4/production/_ext/1303525714/drv_usart_static.o
 .text.DRV_USART2_Open
                0x00000000        0x8 build/Board4/production/_ext/1303525714/drv_usart_static.o
 .text.DRV_USART2_Close
                0x00000000        0x8 build/Board4/production/_ext/1303525714/drv_usart_static.o
 .text.DRV_USART2_ClientStatus
                0x00000000        0x8 build/Board4/production/_ext/1303525714/drv_usart_static.o
 .text.DRV_USART2_TransferStatus
                0x00000000       0x48 build/Board4/production/_ext/1303525714/drv_usart_static.o
 .text.DRV_USART2_ErrorGet
                0x00000000       0x10 build/Board4/production/_ext/1303525714/drv_usart_static.o
 .text._DRV_USART2_ErrorConditionClear
                0x00000000       0x88 build/Board4/production/_ext/1303525714/drv_usart_static.o
 .text.DRV_USART2_BaudSet
                0x00000000       0xf0 build/Board4/production/_ext/1303525714/drv_usart_static.o
 .text.DRV_USART2_LineControlSet
                0x00000000       0x74 build/Board4/production/_ext/1303525714/drv_usart_static.o
 .text          0x00000000        0x0 build/Board4/production/_ext/1303525714/drv_usart_static_byte_model.o
 .data          0x00000000        0x0 build/Board4/production/_ext/1303525714/drv_usart_static_byte_model.o
 .bss           0x00000000        0x0 build/Board4/production/_ext/1303525714/drv_usart_static_byte_model.o
 .reginfo       0x00000000       0x18 build/Board4/production/_ext/1303525714/drv_usart_static_byte_model.o
 .text.DRV_USART0_ReadByte
                0x00000000       0x50 build/Board4/production/_ext/1303525714/drv_usart_static_byte_model.o
 .text.DRV_USART0_WriteByte
                0x00000000       0x50 build/Board4/production/_ext/1303525714/drv_usart_static_byte_model.o
 .text.DRV_USART0_ReceiverBufferSizeGet
                0x00000000        0x8 build/Board4/production/_ext/1303525714/drv_usart_static_byte_model.o
 .text.DRV_USART0_TransmitBufferSizeGet
                0x00000000        0x8 build/Board4/production/_ext/1303525714/drv_usart_static_byte_model.o
 .text.DRV_USART0_ReceiverBufferIsEmpty
                0x00000000       0x18 build/Board4/production/_ext/1303525714/drv_usart_static_byte_model.o
 .text.DRV_USART0_TransmitBufferIsFull
                0x00000000       0x14 build/Board4/production/_ext/1303525714/drv_usart_static_byte_model.o
 .text.DRV_USART1_ReadByte
                0x00000000       0x50 build/Board4/production/_ext/1303525714/drv_usart_static_byte_model.o
 .text.DRV_USART1_WriteByte
                0x00000000       0x50 build/Board4/production/_ext/1303525714/drv_usart_static_byte_model.o
 .text.DRV_USART1_ReceiverBufferSizeGet
                0x00000000        0x8 build/Board4/production/_ext/1303525714/drv_usart_static_byte_model.o
 .text.DRV_USART1_TransmitBufferSizeGet
                0x00000000        0x8 build/Board4/production/_ext/1303525714/drv_usart_static_byte_model.o
 .text.DRV_USART1_ReceiverBufferIsEmpty
                0x00000000       0x18 build/Board4/production/_ext/1303525714/drv_usart_static_byte_model.o
 .text.DRV_USART1_TransmitBufferIsFull
                0x00000000       0x14 build/Board4/production/_ext/1303525714/drv_usart_static_byte_model.o
 .text.DRV_USART2_ReadByte
                0x00000000       0x50 build/Board4/production/_ext/1303525714/drv_usart_static_byte_model.o
 .text.DRV_USART2_WriteByte
                0x00000000       0x50 build/Board4/production/_ext/1303525714/drv_usart_static_byte_model.o
 .text.DRV_USART2_ReceiverBufferSizeGet
                0x00000000        0x8 build/Board4/production/_ext/1303525714/drv_usart_static_byte_model.o
 .text.DRV_USART2_TransmitBufferSizeGet
                0x00000000        0x8 build/Board4/production/_ext/1303525714/drv_usart_static_byte_model.o
 .text.DRV_USART2_ReceiverBufferIsEmpty
                0x00000000       0x18 build/Board4/production/_ext/1303525714/drv_usart_static_byte_model.o
 .text.DRV_USART2_TransmitBufferIsFull
                0x00000000       0x14 build/Board4/production/_ext/1303525714/drv_usart_static_byte_model.o
 .text          0x00000000        0x0 build/Board4/production/_ext/635635118/sys_clk_pic32mx.o
 .data          0x00000000        0x0 build/Board4/production/_ext/635635118/sys_clk_pic32mx.o
 .bss           0x00000000        0x0 build/Board4/production/_ext/635635118/sys_clk_pic32mx.o
 .reginfo       0x00000000       0x18 build/Board4/production/_ext/635635118/sys_clk_pic32mx.o
 .text.SYS_CLK_ReferenceFrequencyGet
                0x00000000        0x8 build/Board4/production/_ext/635635118/sys_clk_pic32mx.o
 .text.SYS_CLK_SecondaryOscillatorEnable
                0x00000000       0x48 build/Board4/production/_ext/635635118/sys_clk_pic32mx.o
 .text.SYS_CLK_SecondaryOscillatorDisable
                0x00000000       0x48 build/Board4/production/_ext/635635118/sys_clk_pic32mx.o
 .text.SYS_CLK_SecondaryOscillatorIsEnabled
                0x00000000       0x10 build/Board4/production/_ext/635635118/sys_clk_pic32mx.o
 .text          0x00000000        0x0 build/Board4/production/_ext/652723559/sys_devcon.o
 .data          0x00000000        0x0 build/Board4/production/_ext/652723559/sys_devcon.o
 .bss           0x00000000        0x0 build/Board4/production/_ext/652723559/sys_devcon.o
 .reginfo       0x00000000       0x18 build/Board4/production/_ext/652723559/sys_devcon.o
 .text.SYS_DEVCON_Reinitialize
                0x00000000       0x10 build/Board4/production/_ext/652723559/sys_devcon.o
 .text.SYS_DEVCON_Deinitialize
                0x00000000        0x8 build/Board4/production/_ext/652723559/sys_devcon.o
 .text.SYS_DEVCON_Status
                0x00000000        0x8 build/Board4/production/_ext/652723559/sys_devcon.o
 .text.SYS_DEVCON_Tasks
                0x00000000        0x8 build/Board4/production/_ext/652723559/sys_devcon.o
 .text.SYS_DEVCON_JTAGEnable
                0x00000000       0x18 build/Board4/production/_ext/652723559/sys_devcon.o
 .text.SYS_DEVCON_TraceEnable
                0x00000000       0x1c build/Board4/production/_ext/652723559/sys_devcon.o
 .text.SYS_DEVCON_TraceDisable
                0x00000000       0x18 build/Board4/production/_ext/652723559/sys_devcon.o
 .text.SYS_DEVCON_PowerModeEnter
                0x00000000       0x44 build/Board4/production/_ext/652723559/sys_devcon.o
 .text          0x00000000        0x0 build/Board4/production/_ext/652723559/sys_devcon_pic32mx.o
 .data          0x00000000        0x0 build/Board4/production/_ext/652723559/sys_devcon_pic32mx.o
 .bss           0x00000000        0x0 build/Board4/production/_ext/652723559/sys_devcon_pic32mx.o
 .reginfo       0x00000000       0x18 build/Board4/production/_ext/652723559/sys_devcon_pic32mx.o
 .text          0x00000000        0x0 build/Board4/production/_ext/1842392706/sys_ports_static.o
 .data          0x00000000        0x0 build/Board4/production/_ext/1842392706/sys_ports_static.o
 .bss           0x00000000        0x0 build/Board4/production/_ext/1842392706/sys_ports_static.o
 .reginfo       0x00000000       0x18 build/Board4/production/_ext/1842392706/sys_ports_static.o
 .text.SYS_PORTS_Read
                0x00000000       0x28 build/Board4/production/_ext/1842392706/sys_ports_static.o
 .text.SYS_PORTS_Write
                0x00000000       0x28 build/Board4/production/_ext/1842392706/sys_ports_static.o
 .text.SYS_PORTS_LatchedGet
                0x00000000        0x8 build/Board4/production/_ext/1842392706/sys_ports_static.o
 .text.SYS_PORTS_Set
                0x00000000       0x2c build/Board4/production/_ext/1842392706/sys_ports_static.o
 .text.SYS_PORTS_Clear
                0x00000000       0x28 build/Board4/production/_ext/1842392706/sys_ports_static.o
 .text.SYS_PORTS_DirectionSelect
                0x00000000       0x54 build/Board4/production/_ext/1842392706/sys_ports_static.o
 .text.SYS_PORTS_DirectionGet
                0x00000000       0x28 build/Board4/production/_ext/1842392706/sys_ports_static.o
 .text.SYS_PORTS_Toggle
                0x00000000       0x28 build/Board4/production/_ext/1842392706/sys_ports_static.o
 .text.SYS_PORTS_OpenDrainEnable
                0x00000000       0x28 build/Board4/production/_ext/1842392706/sys_ports_static.o
 .text.SYS_PORTS_OpenDrainDisable
                0x00000000       0x28 build/Board4/production/_ext/1842392706/sys_ports_static.o
 .text.SYS_PORTS_InterruptStatusGet
                0x00000000        0x8 build/Board4/production/_ext/1842392706/sys_ports_static.o
 .text.SYS_PORTS_ChangeNotificationGlobalEnable
                0x00000000       0x14 build/Board4/production/_ext/1842392706/sys_ports_static.o
 .text.SYS_PORTS_ChangeNotificationGlobalDisable
                0x00000000       0x14 build/Board4/production/_ext/1842392706/sys_ports_static.o
 .text.SYS_PORTS_GlobalChangeNotificationDisable
                0x00000000       0x14 build/Board4/production/_ext/1842392706/sys_ports_static.o
 .text.SYS_PORTS_ChangeNotificationEnable
                0x00000000       0x50 build/Board4/production/_ext/1842392706/sys_ports_static.o
 .text.SYS_PORTS_ChangeNotificationDisable
                0x00000000       0x18 build/Board4/production/_ext/1842392706/sys_ports_static.o
 .text.SYS_PORTS_ChangeNotificationInIdleModeEnable
                0x00000000       0x14 build/Board4/production/_ext/1842392706/sys_ports_static.o
 .text.SYS_PORTS_ChangeNotificationInIdleModeDisable
                0x00000000       0x14 build/Board4/production/_ext/1842392706/sys_ports_static.o
 .text.SYS_PORTS_ChangeNotificationPullUpEnable
                0x00000000       0x18 build/Board4/production/_ext/1842392706/sys_ports_static.o
 .text.SYS_PORTS_ChangeNotificationPullUpDisable
                0x00000000       0x18 build/Board4/production/_ext/1842392706/sys_ports_static.o
 .text.SYS_PORTS_PinModeSelect
                0x00000000       0x2c build/Board4/production/_ext/1842392706/sys_ports_static.o
 .text.SYS_PORTS_PinWrite
                0x00000000       0x60 build/Board4/production/_ext/1842392706/sys_ports_static.o
 .text.SYS_PORTS_PinLatchedGet
                0x00000000        0x8 build/Board4/production/_ext/1842392706/sys_ports_static.o
 .text.SYS_PORTS_PinRead
                0x00000000       0x2c build/Board4/production/_ext/1842392706/sys_ports_static.o
 .text.SYS_PORTS_PinToggle
                0x00000000       0x30 build/Board4/production/_ext/1842392706/sys_ports_static.o
 .text.SYS_PORTS_PinSet
                0x00000000       0x30 build/Board4/production/_ext/1842392706/sys_ports_static.o
 .text.SYS_PORTS_PinClear
                0x00000000       0x30 build/Board4/production/_ext/1842392706/sys_ports_static.o
 .text.SYS_PORTS_PinDirectionSelect
                0x00000000       0x60 build/Board4/production/_ext/1842392706/sys_ports_static.o
 .text.SYS_PORTS_PinOpenDrainEnable
                0x00000000       0x30 build/Board4/production/_ext/1842392706/sys_ports_static.o
 .text.SYS_PORTS_PinOpenDrainDisable
                0x00000000       0x30 build/Board4/production/_ext/1842392706/sys_ports_static.o
 .text.SYS_PORTS_PinPullUpEnable
                0x00000000        0x8 build/Board4/production/_ext/1842392706/sys_ports_static.o
 .text.SYS_PORTS_PinPullUpDisable
                0x00000000        0x8 build/Board4/production/_ext/1842392706/sys_ports_static.o
 .text.SYS_PORTS_PinPullDownEnable
                0x00000000        0x8 build/Board4/production/_ext/1842392706/sys_ports_static.o
 .text.SYS_PORTS_PinPullDownDisable
                0x00000000        0x8 build/Board4/production/_ext/1842392706/sys_ports_static.o
 .text.SYS_PORTS_InterruptEnable
                0x00000000        0x8 build/Board4/production/_ext/1842392706/sys_ports_static.o
 .text.SYS_PORTS_RemapInput
                0x00000000        0x8 build/Board4/production/_ext/1842392706/sys_ports_static.o
 .text.SYS_PORTS_RemapOutput
                0x00000000        0x8 build/Board4/production/_ext/1842392706/sys_ports_static.o
 .text          0x00000000        0x0 build/Board4/production/_ext/1445490757/system_init.o
 .data          0x00000000        0x0 build/Board4/production/_ext/1445490757/system_init.o
 .bss           0x00000000        0x0 build/Board4/production/_ext/1445490757/system_init.o
 .reginfo       0x00000000       0x18 build/Board4/production/_ext/1445490757/system_init.o
 .text          0x00000000        0x0 build/Board4/production/_ext/1445490757/system_interrupt.o
 .data          0x00000000        0x0 build/Board4/production/_ext/1445490757/system_interrupt.o
 .bss           0x00000000        0x0 build/Board4/production/_ext/1445490757/system_interrupt.o
 .reginfo       0x00000000       0x18 build/Board4/production/_ext/1445490757/system_interrupt.o
 .text          0x00000000        0x0 build/Board4/production/_ext/1445490757/system_exceptions.o
 .data          0x00000000        0x0 build/Board4/production/_ext/1445490757/system_exceptions.o
 .bss           0x00000000        0x0 build/Board4/production/_ext/1445490757/system_exceptions.o
 .reginfo       0x00000000       0x18 build/Board4/production/_ext/1445490757/system_exceptions.o
 .text          0x00000000        0x0 build/Board4/production/_ext/1445490757/system_tasks.o
 .data          0x00000000        0x0 build/Board4/production/_ext/1445490757/system_tasks.o
 .bss           0x00000000        0x0 build/Board4/production/_ext/1445490757/system_tasks.o
 .reginfo       0x00000000       0x18 build/Board4/production/_ext/1445490757/system_tasks.o
 .text          0x00000000        0x0 build/Board4/production/_ext/1445490757/system_interrupt_a.o
 .data          0x00000000        0x0 build/Board4/production/_ext/1445490757/system_interrupt_a.o
 .bss           0x00000000        0x0 build/Board4/production/_ext/1445490757/system_interrupt_a.o
 .reginfo       0x00000000       0x18 build/Board4/production/_ext/1445490757/system_interrupt_a.o
 .text          0x00000000        0x0 build/Board4/production/_ext/1445490757/rtos_hooks.o
 .data          0x00000000        0x0 build/Board4/production/_ext/1445490757/rtos_hooks.o
 .bss           0x00000000        0x0 build/Board4/production/_ext/1445490757/rtos_hooks.o
 .reginfo       0x00000000       0x18 build/Board4/production/_ext/1445490757/rtos_hooks.o
 .text          0x00000000        0x0 build/Board4/production/_ext/1360937237/motor_app.o
 .data          0x00000000        0x0 build/Board4/production/_ext/1360937237/motor_app.o
 .bss           0x00000000        0x0 build/Board4/production/_ext/1360937237/motor_app.o
 .reginfo       0x00000000       0x18 build/Board4/production/_ext/1360937237/motor_app.o
 .text          0x00000000        0x0 build/Board4/production/_ext/1360937237/wifi_app.o
 .data          0x00000000        0x0 build/Board4/production/_ext/1360937237/wifi_app.o
 .bss           0x00000000        0x0 build/Board4/production/_ext/1360937237/wifi_app.o
 .reginfo       0x00000000       0x18 build/Board4/production/_ext/1360937237/wifi_app.o
 .text          0x00000000        0x0 build/Board4/production/_ext/1360937237/main.o
 .data          0x00000000        0x0 build/Board4/production/_ext/1360937237/main.o
 .bss           0x00000000        0x0 build/Board4/production/_ext/1360937237/main.o
 .reginfo       0x00000000       0x18 build/Board4/production/_ext/1360937237/main.o
 .text          0x00000000        0x0 build/Board4/production/_ext/676718598/cJSON.o
 .bss           0x00000000       0x10 build/Board4/production/_ext/676718598/cJSON.o
 .reginfo       0x00000000       0x18 build/Board4/production/_ext/676718598/cJSON.o
 .text.get_array_item
                0x00000000       0x40 build/Board4/production/_ext/676718598/cJSON.o
 .text.create_reference
                0x00000000       0xd4 build/Board4/production/_ext/676718598/cJSON.o
 .text.cJSON_GetErrorPtr
                0x00000000       0x10 build/Board4/production/_ext/676718598/cJSON.o
 .text.cJSON_Version
                0x00000000       0x44 build/Board4/production/_ext/676718598/cJSON.o
 .text.cJSON_InitHooks
                0x00000000       0xb8 build/Board4/production/_ext/676718598/cJSON.o
 .text.cJSON_SetNumberHelper
                0x00000000       0x80 build/Board4/production/_ext/676718598/cJSON.o
 .text.cJSON_Print
                0x00000000       0x24 build/Board4/production/_ext/676718598/cJSON.o
 .text.cJSON_PrintBuffered
                0x00000000       0xe4 build/Board4/production/_ext/676718598/cJSON.o
 .text.cJSON_PrintPreallocated
                0x00000000       0x74 build/Board4/production/_ext/676718598/cJSON.o
 .text.cJSON_GetArraySize
                0x00000000       0x3c build/Board4/production/_ext/676718598/cJSON.o
 .text.cJSON_GetArrayItem
                0x00000000       0x30 build/Board4/production/_ext/676718598/cJSON.o
 .text.cJSON_GetObjectItemCaseSensitive
                0x00000000       0x1c build/Board4/production/_ext/676718598/cJSON.o
 .text.cJSON_HasObjectItem
                0x00000000       0x20 build/Board4/production/_ext/676718598/cJSON.o
 .text.cJSON_AddItemToArray
                0x00000000       0x1c build/Board4/production/_ext/676718598/cJSON.o
 .text.cJSON_AddItemToObjectCS
                0x00000000       0x28 build/Board4/production/_ext/676718598/cJSON.o
 .text.cJSON_AddItemReferenceToArray
                0x00000000       0x40 build/Board4/production/_ext/676718598/cJSON.o
 .text.cJSON_AddItemReferenceToObject
                0x00000000       0x64 build/Board4/production/_ext/676718598/cJSON.o
 .text.cJSON_DetachItemViaPointer
                0x00000000       0x6c build/Board4/production/_ext/676718598/cJSON.o
 .text.cJSON_DetachItemFromArray
                0x00000000       0x44 build/Board4/production/_ext/676718598/cJSON.o
 .text.cJSON_DeleteItemFromArray
                0x00000000       0x24 build/Board4/production/_ext/676718598/cJSON.o
 .text.cJSON_DetachItemFromObject
                0x00000000       0x30 build/Board4/production/_ext/676718598/cJSON.o
 .text.cJSON_DetachItemFromObjectCaseSensitive
                0x00000000       0x30 build/Board4/production/_ext/676718598/cJSON.o
 .text.cJSON_DeleteItemFromObject
                0x00000000       0x24 build/Board4/production/_ext/676718598/cJSON.o
 .text.cJSON_DeleteItemFromObjectCaseSensitive
                0x00000000       0x24 build/Board4/production/_ext/676718598/cJSON.o
 .text.cJSON_InsertItemInArray
                0x00000000       0x7c build/Board4/production/_ext/676718598/cJSON.o
 .text.cJSON_ReplaceItemViaPointer
                0x00000000       0x9c build/Board4/production/_ext/676718598/cJSON.o
 .text.cJSON_ReplaceItemInArray
                0x00000000       0x4c build/Board4/production/_ext/676718598/cJSON.o
 .text.cJSON_CreateNull
                0x00000000       0x2c build/Board4/production/_ext/676718598/cJSON.o
 .text.cJSON_AddNullToObject
                0x00000000       0x70 build/Board4/production/_ext/676718598/cJSON.o
 .text.cJSON_CreateTrue
                0x00000000       0x2c build/Board4/production/_ext/676718598/cJSON.o
 .text.cJSON_AddTrueToObject
                0x00000000       0x70 build/Board4/production/_ext/676718598/cJSON.o
 .text.cJSON_CreateFalse
                0x00000000       0x2c build/Board4/production/_ext/676718598/cJSON.o
 .text.cJSON_AddFalseToObject
                0x00000000       0x70 build/Board4/production/_ext/676718598/cJSON.o
 .text.cJSON_CreateBool
                0x00000000       0x40 build/Board4/production/_ext/676718598/cJSON.o
 .text.cJSON_AddBoolToObject
                0x00000000       0x74 build/Board4/production/_ext/676718598/cJSON.o
 .text.cJSON_AddNumberToObject
                0x00000000       0x74 build/Board4/production/_ext/676718598/cJSON.o
 .text.cJSON_AddStringToObject
                0x00000000       0x74 build/Board4/production/_ext/676718598/cJSON.o
 .text.cJSON_CreateStringReference
                0x00000000       0x3c build/Board4/production/_ext/676718598/cJSON.o
 .text.cJSON_CreateObjectReference
                0x00000000       0x3c build/Board4/production/_ext/676718598/cJSON.o
 .text.cJSON_CreateArrayReference
                0x00000000       0x3c build/Board4/production/_ext/676718598/cJSON.o
 .text.cJSON_CreateRaw
                0x00000000       0x74 build/Board4/production/_ext/676718598/cJSON.o
 .text.cJSON_AddRawToObject
                0x00000000       0x74 build/Board4/production/_ext/676718598/cJSON.o
 .text.cJSON_CreateArray
                0x00000000       0x2c build/Board4/production/_ext/676718598/cJSON.o
 .text.cJSON_AddArrayToObject
                0x00000000       0x70 build/Board4/production/_ext/676718598/cJSON.o
 .text.cJSON_AddObjectToObject
                0x00000000       0x70 build/Board4/production/_ext/676718598/cJSON.o
 .text.cJSON_CreateIntArray
                0x00000000       0xe4 build/Board4/production/_ext/676718598/cJSON.o
 .text.cJSON_CreateFloatArray
                0x00000000       0xdc build/Board4/production/_ext/676718598/cJSON.o
 .text.cJSON_CreateDoubleArray
                0x00000000       0xdc build/Board4/production/_ext/676718598/cJSON.o
 .text.cJSON_CreateStringArray
                0x00000000       0xdc build/Board4/production/_ext/676718598/cJSON.o
 .text.cJSON_Duplicate
                0x00000000      0x128 build/Board4/production/_ext/676718598/cJSON.o
 .text.cJSON_Minify
                0x00000000      0x178 build/Board4/production/_ext/676718598/cJSON.o
 .text.cJSON_IsInvalid
                0x00000000       0x1c build/Board4/production/_ext/676718598/cJSON.o
 .text.cJSON_IsFalse
                0x00000000       0x20 build/Board4/production/_ext/676718598/cJSON.o
 .text.cJSON_IsTrue
                0x00000000       0x20 build/Board4/production/_ext/676718598/cJSON.o
 .text.cJSON_IsBool
                0x00000000       0x20 build/Board4/production/_ext/676718598/cJSON.o
 .text.cJSON_IsNull
                0x00000000       0x20 build/Board4/production/_ext/676718598/cJSON.o
 .text.cJSON_IsNumber
                0x00000000       0x20 build/Board4/production/_ext/676718598/cJSON.o
 .text.cJSON_IsString
                0x00000000       0x20 build/Board4/production/_ext/676718598/cJSON.o
 .text.cJSON_GetStringValue
                0x00000000       0x30 build/Board4/production/_ext/676718598/cJSON.o
 .text.cJSON_IsArray
                0x00000000       0x20 build/Board4/production/_ext/676718598/cJSON.o
 .text.cJSON_IsObject
                0x00000000       0x20 build/Board4/production/_ext/676718598/cJSON.o
 .text.cJSON_IsRaw
                0x00000000       0x20 build/Board4/production/_ext/676718598/cJSON.o
 .text.cJSON_Compare
                0x00000000      0x29c build/Board4/production/_ext/676718598/cJSON.o
 .text.cJSON_malloc
                0x00000000       0x24 build/Board4/production/_ext/676718598/cJSON.o
 .text.cJSON_free
                0x00000000       0x24 build/Board4/production/_ext/676718598/cJSON.o
 .text.replace_item_in_object
                0x00000000       0xc0 build/Board4/production/_ext/676718598/cJSON.o
 .text.cJSON_ReplaceItemInObject
                0x00000000       0x1c build/Board4/production/_ext/676718598/cJSON.o
 .text.cJSON_ReplaceItemInObjectCaseSensitive
                0x00000000       0x1c build/Board4/production/_ext/676718598/cJSON.o
 .text          0x00000000        0x0 build/Board4/production/_ext/676718598/debug.o
 .data          0x00000000        0x0 build/Board4/production/_ext/676718598/debug.o
 .bss           0x00000000        0x0 build/Board4/production/_ext/676718598/debug.o
 .reginfo       0x00000000       0x18 build/Board4/production/_ext/676718598/debug.o
 .text.dbgUARTVal
                0x00000000        0x8 build/Board4/production/_ext/676718598/debug.o
 .text          0x00000000        0x0 build/Board4/production/_ext/676718598/http.o
 .data          0x00000000        0x0 build/Board4/production/_ext/676718598/http.o
 .reginfo       0x00000000       0x18 build/Board4/production/_ext/676718598/http.o
 .text.addChar  0x00000000       0x1c build/Board4/production/_ext/676718598/http.o
 .text.PixyGet  0x00000000       0x8c build/Board4/production/_ext/676718598/http.o
 .text.PIXY_PUT_construct_Helper
                0x00000000       0xfc build/Board4/production/_ext/676718598/http.o
 .text          0x00000000        0x0 build/Board4/production/_ext/676718598/motor.o
 .data          0x00000000        0x0 build/Board4/production/_ext/676718598/motor.o
 .bss           0x00000000        0x0 build/Board4/production/_ext/676718598/motor.o
 .reginfo       0x00000000       0x18 build/Board4/production/_ext/676718598/motor.o
 .text.SET_LEFT_DIRC
                0x00000000       0x30 build/Board4/production/_ext/676718598/motor.o
 .text.SET_RIGHT_DIRC
                0x00000000       0x30 build/Board4/production/_ext/676718598/motor.o
 .text          0x00000000        0x0 build/Board4/production/_ext/676718598/motor_queue.o
 .data          0x00000000        0x0 build/Board4/production/_ext/676718598/motor_queue.o
 .bss           0x00000000        0x0 build/Board4/production/_ext/676718598/motor_queue.o
 .reginfo       0x00000000       0x18 build/Board4/production/_ext/676718598/motor_queue.o
 .text.pushMtQueueFromISR
                0x00000000       0x5c build/Board4/production/_ext/676718598/motor_queue.o
 .text          0x00000000        0x0 build/Board4/production/_ext/676718598/motor_software_timer.o
 .data          0x00000000        0x0 build/Board4/production/_ext/676718598/motor_software_timer.o
 .bss           0x00000000        0x0 build/Board4/production/_ext/676718598/motor_software_timer.o
 .reginfo       0x00000000       0x18 build/Board4/production/_ext/676718598/motor_software_timer.o
 .text.Mt_LEDTimer_Stop
                0x00000000       0x2c build/Board4/production/_ext/676718598/motor_software_timer.o
 .text          0x00000000        0x0 build/Board4/production/_ext/676718598/motor_state.o
 .data          0x00000000        0x0 build/Board4/production/_ext/676718598/motor_state.o
 .bss           0x00000000        0x0 build/Board4/production/_ext/676718598/motor_state.o
 .reginfo       0x00000000       0x18 build/Board4/production/_ext/676718598/motor_state.o
 .text          0x00000000        0x0 build/Board4/production/_ext/676718598/wifi_queue.o
 .data          0x00000000        0x0 build/Board4/production/_ext/676718598/wifi_queue.o
 .bss           0x00000000        0x0 build/Board4/production/_ext/676718598/wifi_queue.o
 .reginfo       0x00000000       0x18 build/Board4/production/_ext/676718598/wifi_queue.o
 .text.mt_Send_Encoder
                0x00000000       0xa8 build/Board4/production/_ext/676718598/wifi_queue.o
 .text          0x00000000        0x0 build/Board4/production/_ext/676718598/wifi_state.o
 .data          0x00000000        0x0 build/Board4/production/_ext/676718598/wifi_state.o
 .reginfo       0x00000000       0x18 build/Board4/production/_ext/676718598/wifi_state.o
 .text          0x00000000        0x0 build/Board4/production/_ext/676718598/wifi_timer.o
 .data          0x00000000        0x0 build/Board4/production/_ext/676718598/wifi_timer.o
 .bss           0x00000000        0x0 build/Board4/production/_ext/676718598/wifi_timer.o
 .reginfo       0x00000000       0x18 build/Board4/production/_ext/676718598/wifi_timer.o
 .text          0x00000000        0x0 build/Board4/production/_ext/676718598/pixy2Func.o
 .data          0x00000000        0x0 build/Board4/production/_ext/676718598/pixy2Func.o
 .reginfo       0x00000000       0x18 build/Board4/production/_ext/676718598/pixy2Func.o
 .text.MSB      0x00000000       0x44 build/Board4/production/_ext/676718598/pixy2Func.o
 .text.Midval   0x00000000       0x90 build/Board4/production/_ext/676718598/pixy2Func.o
 .text.LSB      0x00000000       0x40 build/Board4/production/_ext/676718598/pixy2Func.o
 .text.strAssgn
                0x00000000       0x28 build/Board4/production/_ext/676718598/pixy2Func.o
 .text.directionPixy
                0x00000000        0x8 build/Board4/production/_ext/676718598/pixy2Func.o
 .text.Pixy_time_lut
                0x00000000       0x8c build/Board4/production/_ext/676718598/pixy2Func.o
 .text          0x00000000        0x0 build/Board4/production/_ext/676718598/pixy_app.o
 .data          0x00000000        0x0 build/Board4/production/_ext/676718598/pixy_app.o
 .bss           0x00000000        0x0 build/Board4/production/_ext/676718598/pixy_app.o
 .reginfo       0x00000000       0x18 build/Board4/production/_ext/676718598/pixy_app.o
 .text.INIT_UART2_IRS
                0x00000000       0x28 build/Board4/production/_ext/676718598/pixy_app.o
 .text.DISABLE_UART2
                0x00000000       0x2c build/Board4/production/_ext/676718598/pixy_app.o
 .text          0x00000000        0x0 build/Board4/production/_ext/676718598/pixy_queue.o
 .data          0x00000000        0x0 build/Board4/production/_ext/676718598/pixy_queue.o
 .reginfo       0x00000000       0x18 build/Board4/production/_ext/676718598/pixy_queue.o
 .text.Pixy_queueIsEmpty
                0x00000000       0x2c build/Board4/production/_ext/676718598/pixy_queue.o
 .text.tx_queueIsEmpty
                0x00000000       0x2c build/Board4/production/_ext/676718598/pixy_queue.o
 .text          0x00000000        0x0 build/Board4/production/_ext/676718598/sensor_app.o
 .data          0x00000000        0x0 build/Board4/production/_ext/676718598/sensor_app.o
 .bss           0x00000000        0x0 build/Board4/production/_ext/676718598/sensor_app.o
 .reginfo       0x00000000       0x18 build/Board4/production/_ext/676718598/sensor_app.o
 .text          0x00000000        0x0 build/Board4/production/_ext/676718598/sensor_queue.o
 .data          0x00000000        0x0 build/Board4/production/_ext/676718598/sensor_queue.o
 .bss           0x00000000        0x0 build/Board4/production/_ext/676718598/sensor_queue.o
 .reginfo       0x00000000       0x18 build/Board4/production/_ext/676718598/sensor_queue.o
 .text.vTimerCallback1SecExpired
                0x00000000       0x1c build/Board4/production/_ext/676718598/sensor_queue.o
 .rodata        0x00000000        0x8 build/Board4/production/_ext/676718598/sensor_queue.o
 .text.softwareTimerInit
                0x00000000       0x3c build/Board4/production/_ext/676718598/sensor_queue.o
 .text.softwareTimerStart
                0x00000000       0x4c build/Board4/production/_ext/676718598/sensor_queue.o
 .text          0x00000000        0x0 build/Board4/production/_ext/676718598/sensor_state.o
 .data          0x00000000        0x0 build/Board4/production/_ext/676718598/sensor_state.o
 .bss           0x00000000        0x0 build/Board4/production/_ext/676718598/sensor_state.o
 .reginfo       0x00000000       0x18 build/Board4/production/_ext/676718598/sensor_state.o
 .text          0x00000000        0x0 build/Board4/production/_ext/1043444669/osal_freertos.o
 .data          0x00000000        0x0 build/Board4/production/_ext/1043444669/osal_freertos.o
 .bss           0x00000000        0x0 build/Board4/production/_ext/1043444669/osal_freertos.o
 .reginfo       0x00000000       0x18 build/Board4/production/_ext/1043444669/osal_freertos.o
 .text.OSAL_CRIT_Enter
                0x00000000       0x48 build/Board4/production/_ext/1043444669/osal_freertos.o
 .text.OSAL_CRIT_Leave
                0x00000000       0x44 build/Board4/production/_ext/1043444669/osal_freertos.o
 .text.OSAL_SEM_Create
                0x00000000       0x8c build/Board4/production/_ext/1043444669/osal_freertos.o
 .text.OSAL_SEM_Delete
                0x00000000       0x30 build/Board4/production/_ext/1043444669/osal_freertos.o
 .text.OSAL_SEM_Pend
                0x00000000       0x38 build/Board4/production/_ext/1043444669/osal_freertos.o
 .text.OSAL_SEM_Post
                0x00000000       0x30 build/Board4/production/_ext/1043444669/osal_freertos.o
 .text.OSAL_SEM_PostISR
                0x00000000       0x4c build/Board4/production/_ext/1043444669/osal_freertos.o
 .text.OSAL_SEM_GetCount
                0x00000000       0x2c build/Board4/production/_ext/1043444669/osal_freertos.o
 .text.OSAL_MUTEX_Delete
                0x00000000       0x3c build/Board4/production/_ext/1043444669/osal_freertos.o
 .text.OSAL_MUTEX_Lock
                0x00000000       0x38 build/Board4/production/_ext/1043444669/osal_freertos.o
 .text.OSAL_MUTEX_Unlock
                0x00000000       0x30 build/Board4/production/_ext/1043444669/osal_freertos.o
 .rodata        0x00000000        0xc build/Board4/production/_ext/1043444669/osal_freertos.o
 .text.OSAL_Name
                0x00000000        0xc build/Board4/production/_ext/1043444669/osal_freertos.o
 .text.OSAL_Initialize
                0x00000000        0x8 build/Board4/production/_ext/1043444669/osal_freertos.o
 .text          0x00000000        0x0 build/Board4/production/_ext/249303043/sys_int_pic32.o
 .data          0x00000000        0x0 build/Board4/production/_ext/249303043/sys_int_pic32.o
 .bss           0x00000000        0x0 build/Board4/production/_ext/249303043/sys_int_pic32.o
 .reginfo       0x00000000       0x18 build/Board4/production/_ext/249303043/sys_int_pic32.o
 .text.SYS_INT_StatusGetAndDisable
                0x00000000       0x1c build/Board4/production/_ext/249303043/sys_int_pic32.o
 .text.SYS_INT_StatusRestore
                0x00000000       0x1c build/Board4/production/_ext/249303043/sys_int_pic32.o
 .text.SYS_INT_ExternalInterruptTriggerSet
                0x00000000       0x28 build/Board4/production/_ext/249303043/sys_int_pic32.o
 .text          0x00000000        0x0 build/Board4/production/_ext/905643201/heap_2.o
 .data          0x00000000        0x0 build/Board4/production/_ext/905643201/heap_2.o
 .reginfo       0x00000000       0x18 build/Board4/production/_ext/905643201/heap_2.o
 .text.xPortGetFreeHeapSize
                0x00000000        0x8 build/Board4/production/_ext/905643201/heap_2.o
 .text.vPortInitialiseBlocks
                0x00000000        0x8 build/Board4/production/_ext/905643201/heap_2.o
 .text          0x00000000        0x0 build/Board4/production/_ext/331515796/port.o
 .data          0x00000000        0x0 build/Board4/production/_ext/331515796/port.o
 .reginfo       0x00000000       0x18 build/Board4/production/_ext/331515796/port.o
 .text.vPortEndScheduler
                0x00000000        0x8 build/Board4/production/_ext/331515796/port.o
 .data          0x00000000        0x0 build/Board4/production/_ext/331515796/port_asm.o
 .bss           0x00000000        0x0 build/Board4/production/_ext/331515796/port_asm.o
 .reginfo       0x00000000       0x18 build/Board4/production/_ext/331515796/port_asm.o
 .text          0x00000000        0x0 build/Board4/production/_ext/1539584926/croutine.o
 .data          0x00000000        0x0 build/Board4/production/_ext/1539584926/croutine.o
 .bss           0x00000000        0x0 build/Board4/production/_ext/1539584926/croutine.o
 .reginfo       0x00000000       0x18 build/Board4/production/_ext/1539584926/croutine.o
 .text          0x00000000        0x0 build/Board4/production/_ext/1539584926/list.o
 .data          0x00000000        0x0 build/Board4/production/_ext/1539584926/list.o
 .bss           0x00000000        0x0 build/Board4/production/_ext/1539584926/list.o
 .reginfo       0x00000000       0x18 build/Board4/production/_ext/1539584926/list.o
 .text          0x00000000        0x0 build/Board4/production/_ext/1539584926/queue.o
 .data          0x00000000        0x0 build/Board4/production/_ext/1539584926/queue.o
 .bss           0x00000000        0x0 build/Board4/production/_ext/1539584926/queue.o
 .reginfo       0x00000000       0x18 build/Board4/production/_ext/1539584926/queue.o
 .text.xQueueCreateCountingSemaphore
                0x00000000       0x34 build/Board4/production/_ext/1539584926/queue.o
 .text.xQueueGiveFromISR
                0x00000000       0xc0 build/Board4/production/_ext/1539584926/queue.o
 .text.xQueueSemaphoreTake
                0x00000000      0x22c build/Board4/production/_ext/1539584926/queue.o
 .text.xQueuePeek
                0x00000000      0x1b8 build/Board4/production/_ext/1539584926/queue.o
 .text.uxQueueMessagesWaiting
                0x00000000       0x34 build/Board4/production/_ext/1539584926/queue.o
 .text.uxQueueSpacesAvailable
                0x00000000       0x38 build/Board4/production/_ext/1539584926/queue.o
 .text.uxQueueMessagesWaitingFromISR
                0x00000000        0xc build/Board4/production/_ext/1539584926/queue.o
 .text.vQueueDelete
                0x00000000       0x1c build/Board4/production/_ext/1539584926/queue.o
 .text.xQueueIsQueueEmptyFromISR
                0x00000000        0xc build/Board4/production/_ext/1539584926/queue.o
 .text.xQueueIsQueueFullFromISR
                0x00000000       0x14 build/Board4/production/_ext/1539584926/queue.o
 .text          0x00000000        0x0 build/Board4/production/_ext/1539584926/tasks.o
 .data          0x00000000        0x0 build/Board4/production/_ext/1539584926/tasks.o
 .reginfo       0x00000000       0x18 build/Board4/production/_ext/1539584926/tasks.o
 .text.prvTaskIsTaskSuspended
                0x00000000       0x38 build/Board4/production/_ext/1539584926/tasks.o
 .text.uxTaskPriorityGetFromISR
                0x00000000       0x3c build/Board4/production/_ext/1539584926/tasks.o
 .text.xTaskResumeFromISR
                0x00000000       0xd8 build/Board4/production/_ext/1539584926/tasks.o
 .text.vTaskEndScheduler
                0x00000000       0x34 build/Board4/production/_ext/1539584926/tasks.o
 .text.xTaskGetTickCountFromISR
                0x00000000        0xc build/Board4/production/_ext/1539584926/tasks.o
 .text.uxTaskGetNumberOfTasks
                0x00000000        0xc build/Board4/production/_ext/1539584926/tasks.o
 .text.pcTaskGetName
                0x00000000       0x10 build/Board4/production/_ext/1539584926/tasks.o
 .text.vTaskPlaceOnUnorderedEventList
                0x00000000       0x48 build/Board4/production/_ext/1539584926/tasks.o
 .text.vTaskRemoveFromUnorderedEventList
                0x00000000       0x98 build/Board4/production/_ext/1539584926/tasks.o
 .text.xTaskGetCurrentTaskHandle
                0x00000000        0xc build/Board4/production/_ext/1539584926/tasks.o
 .text.xTaskPriorityInherit
                0x00000000      0x14c build/Board4/production/_ext/1539584926/tasks.o
 .text.vTaskPriorityDisinheritAfterTimeout
                0x00000000      0x114 build/Board4/production/_ext/1539584926/tasks.o
 .text.vTaskDelete
                0x00000000      0x128 build/Board4/production/_ext/1539584926/tasks.o
 .text.uxTaskPriorityGet
                0x00000000       0x38 build/Board4/production/_ext/1539584926/tasks.o
 .text.vTaskPrioritySet
                0x00000000      0x15c build/Board4/production/_ext/1539584926/tasks.o
 .text.vTaskSuspend
                0x00000000      0x140 build/Board4/production/_ext/1539584926/tasks.o
 .text.vTaskResume
                0x00000000       0xc0 build/Board4/production/_ext/1539584926/tasks.o
 .text.vTaskDelayUntil
                0x00000000       0xa8 build/Board4/production/_ext/1539584926/tasks.o
 .text.vTaskDelay
                0x00000000       0x58 build/Board4/production/_ext/1539584926/tasks.o
 .text.vTaskSetTimeOutState
                0x00000000       0x38 build/Board4/production/_ext/1539584926/tasks.o
 .text.uxTaskResetEventItemValue
                0x00000000       0x24 build/Board4/production/_ext/1539584926/tasks.o
 .text.pvTaskIncrementMutexHeldCount
                0x00000000       0x28 build/Board4/production/_ext/1539584926/tasks.o
 .text.ulTaskNotifyTake
                0x00000000       0xc4 build/Board4/production/_ext/1539584926/tasks.o
 .text.xTaskNotifyWait
                0x00000000      0x108 build/Board4/production/_ext/1539584926/tasks.o
 .text.xTaskGenericNotify
                0x00000000      0x170 build/Board4/production/_ext/1539584926/tasks.o
 .text.xTaskGenericNotifyFromISR
                0x00000000      0x1a8 build/Board4/production/_ext/1539584926/tasks.o
 .text.vTaskNotifyGiveFromISR
                0x00000000      0x104 build/Board4/production/_ext/1539584926/tasks.o
 .text.xTaskNotifyStateClear
                0x00000000       0x60 build/Board4/production/_ext/1539584926/tasks.o
 .text          0x00000000        0x0 build/Board4/production/_ext/1539584926/timers.o
 .data          0x00000000        0x0 build/Board4/production/_ext/1539584926/timers.o
 .reginfo       0x00000000       0x18 build/Board4/production/_ext/1539584926/timers.o
 .text.xTimerGetTimerDaemonTaskHandle
                0x00000000        0x8 build/Board4/production/_ext/1539584926/timers.o
 .text.xTimerGetPeriod
                0x00000000        0x8 build/Board4/production/_ext/1539584926/timers.o
 .text.xTimerGetExpiryTime
                0x00000000        0x8 build/Board4/production/_ext/1539584926/timers.o
 .text.pcTimerGetName
                0x00000000        0x8 build/Board4/production/_ext/1539584926/timers.o
 .text.xTimerIsTimerActive
                0x00000000       0x34 build/Board4/production/_ext/1539584926/timers.o
 .text.vTimerSetTimerID
                0x00000000       0x38 build/Board4/production/_ext/1539584926/timers.o
 .text          0x00000000        0x0 build/Board4/production/_ext/1539584926/event_groups.o
 .data          0x00000000        0x0 build/Board4/production/_ext/1539584926/event_groups.o
 .bss           0x00000000        0x0 build/Board4/production/_ext/1539584926/event_groups.o
 .reginfo       0x00000000       0x18 build/Board4/production/_ext/1539584926/event_groups.o
 .text.xEventGroupCreate
                0x00000000       0x3c build/Board4/production/_ext/1539584926/event_groups.o
 .text.xEventGroupWaitBits
                0x00000000      0x148 build/Board4/production/_ext/1539584926/event_groups.o
 .text.xEventGroupClearBits
                0x00000000       0x50 build/Board4/production/_ext/1539584926/event_groups.o
 .text.xEventGroupGetBitsFromISR
                0x00000000       0x34 build/Board4/production/_ext/1539584926/event_groups.o
 .text.xEventGroupSetBits
                0x00000000       0xfc build/Board4/production/_ext/1539584926/event_groups.o
 .text.xEventGroupSync
                0x00000000      0x110 build/Board4/production/_ext/1539584926/event_groups.o
 .text.vEventGroupDelete
                0x00000000       0x58 build/Board4/production/_ext/1539584926/event_groups.o
 .text.vEventGroupSetBitsCallback
                0x00000000       0x1c build/Board4/production/_ext/1539584926/event_groups.o
 .text.vEventGroupClearBitsCallback
                0x00000000       0x1c build/Board4/production/_ext/1539584926/event_groups.o
 .text          0x00000000        0x0 build/Board4/production/_ext/1539584926/stream_buffer.o
 .data          0x00000000        0x0 build/Board4/production/_ext/1539584926/stream_buffer.o
 .bss           0x00000000        0x0 build/Board4/production/_ext/1539584926/stream_buffer.o
 .reginfo       0x00000000       0x18 build/Board4/production/_ext/1539584926/stream_buffer.o
 .text.prvBytesInBuffer
                0x00000000       0x28 build/Board4/production/_ext/1539584926/stream_buffer.o
 .text.prvWriteBytesToBuffer
                0x00000000       0xa4 build/Board4/production/_ext/1539584926/stream_buffer.o
 .text.prvWriteMessageToBuffer
                0x00000000       0x80 build/Board4/production/_ext/1539584926/stream_buffer.o
 .text.prvReadBytesFromBuffer
                0x00000000       0xb4 build/Board4/production/_ext/1539584926/stream_buffer.o
 .text.prvReadMessageFromBuffer
                0x00000000       0xa0 build/Board4/production/_ext/1539584926/stream_buffer.o
 .text.xStreamBufferGenericCreate
                0x00000000       0x8c build/Board4/production/_ext/1539584926/stream_buffer.o
 .text.vStreamBufferDelete
                0x00000000       0x40 build/Board4/production/_ext/1539584926/stream_buffer.o
 .text.xStreamBufferReset
                0x00000000       0x9c build/Board4/production/_ext/1539584926/stream_buffer.o
 .text.xStreamBufferSetTriggerLevel
                0x00000000       0x28 build/Board4/production/_ext/1539584926/stream_buffer.o
 .text.xStreamBufferSpacesAvailable
                0x00000000       0x2c build/Board4/production/_ext/1539584926/stream_buffer.o
 .text.xStreamBufferBytesAvailable
                0x00000000       0x1c build/Board4/production/_ext/1539584926/stream_buffer.o
 .text.xStreamBufferSend
                0x00000000      0x16c build/Board4/production/_ext/1539584926/stream_buffer.o
 .text.xStreamBufferSendFromISR
                0x00000000       0xdc build/Board4/production/_ext/1539584926/stream_buffer.o
 .text.xStreamBufferReceive
                0x00000000      0x158 build/Board4/production/_ext/1539584926/stream_buffer.o
 .text.xStreamBufferReceiveFromISR
                0x00000000       0xd8 build/Board4/production/_ext/1539584926/stream_buffer.o
 .text.xStreamBufferIsEmpty
                0x00000000       0x14 build/Board4/production/_ext/1539584926/stream_buffer.o
 .text.xStreamBufferIsFull
                0x00000000       0x3c build/Board4/production/_ext/1539584926/stream_buffer.o
 .text.xStreamBufferSendCompletedFromISR
                0x00000000       0x74 build/Board4/production/_ext/1539584926/stream_buffer.o
 .text.xStreamBufferReceiveCompletedFromISR
                0x00000000       0x74 build/Board4/production/_ext/1539584926/stream_buffer.o
 .text          0x00000000        0x0 /var/folders/d5/v4194pgj4rldzq4h08l7349w0000gn/T//cc0qJCyj.o
 .data          0x00000000        0x0 /var/folders/d5/v4194pgj4rldzq4h08l7349w0000gn/T//cc0qJCyj.o
 .bss           0x00000000        0x0 /var/folders/d5/v4194pgj4rldzq4h08l7349w0000gn/T//cc0qJCyj.o
 .reginfo       0x00000000       0x18 /var/folders/d5/v4194pgj4rldzq4h08l7349w0000gn/T//cc0qJCyj.o
 .text          0x00000000        0x0 /var/folders/d5/v4194pgj4rldzq4h08l7349w0000gn/T//cc8LIUYA.o
 .data          0x00000000        0x0 /var/folders/d5/v4194pgj4rldzq4h08l7349w0000gn/T//cc8LIUYA.o
 .bss           0x00000000        0x0 /var/folders/d5/v4194pgj4rldzq4h08l7349w0000gn/T//cc8LIUYA.o
 .reginfo       0x00000000       0x18 /var/folders/d5/v4194pgj4rldzq4h08l7349w0000gn/T//cc8LIUYA.o
 .text          0x00000000        0x0 /var/folders/d5/v4194pgj4rldzq4h08l7349w0000gn/T//ccuGGR6u.o
 .data          0x00000000        0x0 /var/folders/d5/v4194pgj4rldzq4h08l7349w0000gn/T//ccuGGR6u.o
 .bss           0x00000000        0x0 /var/folders/d5/v4194pgj4rldzq4h08l7349w0000gn/T//ccuGGR6u.o
 .reginfo       0x00000000       0x18 /var/folders/d5/v4194pgj4rldzq4h08l7349w0000gn/T//ccuGGR6u.o
 .discard       0x00000000       0xd0 /var/folders/d5/v4194pgj4rldzq4h08l7349w0000gn/T//ccuGGR6u.o
 .text          0x00000000        0x0 /Applications/microchip/xc32/v2.15/bin/bin/../../lib/gcc/pic32mx/4.8.3/../../../../pic32mx/lib/./proc/32MX795F512L/default_isr_vectors.o
 .data          0x00000000        0x0 /Applications/microchip/xc32/v2.15/bin/bin/../../lib/gcc/pic32mx/4.8.3/../../../../pic32mx/lib/./proc/32MX795F512L/default_isr_vectors.o
 .bss           0x00000000        0x0 /Applications/microchip/xc32/v2.15/bin/bin/../../lib/gcc/pic32mx/4.8.3/../../../../pic32mx/lib/./proc/32MX795F512L/default_isr_vectors.o
 .reginfo       0x00000000       0x18 /Applications/microchip/xc32/v2.15/bin/bin/../../lib/gcc/pic32mx/4.8.3/../../../../pic32mx/lib/./proc/32MX795F512L/default_isr_vectors.o
 .discard       0x00000000       0xd0 /Applications/microchip/xc32/v2.15/bin/bin/../../lib/gcc/pic32mx/4.8.3/../../../../pic32mx/lib/./proc/32MX795F512L/default_isr_vectors.o
 .data          0x00000000        0x0 /Applications/microchip/xc32/v2.15/bin/bin/../../lib/gcc/pic32mx/4.8.3/../../../../pic32mx/lib/pic32_software_reset.o
 .bss           0x00000000        0x0 /Applications/microchip/xc32/v2.15/bin/bin/../../lib/gcc/pic32mx/4.8.3/../../../../pic32mx/lib/pic32_software_reset.o
 .reginfo       0x00000000       0x18 /Applications/microchip/xc32/v2.15/bin/bin/../../lib/gcc/pic32mx/4.8.3/../../../../pic32mx/lib/pic32_software_reset.o
 .text          0x00000000        0x0 /Applications/microchip/xc32/v2.15/bin/bin/../../lib/gcc/pic32mx/4.8.3/../../../../pic32mx/lib/./proc/32MX795F512L/processor.o
 .data          0x00000000        0x0 /Applications/microchip/xc32/v2.15/bin/bin/../../lib/gcc/pic32mx/4.8.3/../../../../pic32mx/lib/./proc/32MX795F512L/processor.o
 .bss           0x00000000        0x0 /Applications/microchip/xc32/v2.15/bin/bin/../../lib/gcc/pic32mx/4.8.3/../../../../pic32mx/lib/./proc/32MX795F512L/processor.o
 .reginfo       0x00000000       0x18 /Applications/microchip/xc32/v2.15/bin/bin/../../lib/gcc/pic32mx/4.8.3/../../../../pic32mx/lib/./proc/32MX795F512L/processor.o
 .data          0x00000000        0x0 /Applications/microchip/xc32/v2.15/bin/bin/../../lib/gcc/pic32mx/4.8.3/libgcc.a(floatunsisf.o)
 .bss           0x00000000        0x0 /Applications/microchip/xc32/v2.15/bin/bin/../../lib/gcc/pic32mx/4.8.3/libgcc.a(floatunsisf.o)
 .reginfo       0x00000000       0x18 /Applications/microchip/xc32/v2.15/bin/bin/../../lib/gcc/pic32mx/4.8.3/libgcc.a(floatunsisf.o)
 .data          0x00000000        0x0 /Applications/microchip/xc32/v2.15/bin/bin/../../lib/gcc/pic32mx/4.8.3/../../../../pic32mx/lib/libpic32.a(memcpy.o)
 .bss           0x00000000        0x0 /Applications/microchip/xc32/v2.15/bin/bin/../../lib/gcc/pic32mx/4.8.3/../../../../pic32mx/lib/libpic32.a(memcpy.o)
 .reginfo       0x00000000       0x18 /Applications/microchip/xc32/v2.15/bin/bin/../../lib/gcc/pic32mx/4.8.3/../../../../pic32mx/lib/libpic32.a(memcpy.o)
 .data          0x00000000        0x0 /Applications/microchip/xc32/v2.15/bin/bin/../../lib/gcc/pic32mx/4.8.3/../../../../pic32mx/lib/libpic32.a(memset.o)
 .bss           0x00000000        0x0 /Applications/microchip/xc32/v2.15/bin/bin/../../lib/gcc/pic32mx/4.8.3/../../../../pic32mx/lib/libpic32.a(memset.o)
 .reginfo       0x00000000       0x18 /Applications/microchip/xc32/v2.15/bin/bin/../../lib/gcc/pic32mx/4.8.3/../../../../pic32mx/lib/libpic32.a(memset.o)
 .data          0x00000000        0x0 /Applications/microchip/xc32/v2.15/bin/bin/../../lib/gcc/pic32mx/4.8.3/../../../../pic32mx/lib/libpic32.a(strcmp.o)
 .bss           0x00000000        0x0 /Applications/microchip/xc32/v2.15/bin/bin/../../lib/gcc/pic32mx/4.8.3/../../../../pic32mx/lib/libpic32.a(strcmp.o)
 .reginfo       0x00000000       0x18 /Applications/microchip/xc32/v2.15/bin/bin/../../lib/gcc/pic32mx/4.8.3/../../../../pic32mx/lib/libpic32.a(strcmp.o)
 .data          0x00000000        0x0 /Applications/microchip/xc32/v2.15/bin/bin/../../lib/gcc/pic32mx/4.8.3/../../../../pic32mx/lib/libpic32.a(strcpy.o)
 .bss           0x00000000        0x0 /Applications/microchip/xc32/v2.15/bin/bin/../../lib/gcc/pic32mx/4.8.3/../../../../pic32mx/lib/libpic32.a(strcpy.o)
 .reginfo       0x00000000       0x18 /Applications/microchip/xc32/v2.15/bin/bin/../../lib/gcc/pic32mx/4.8.3/../../../../pic32mx/lib/libpic32.a(strcpy.o)
 .data          0x00000000        0x0 /Applications/microchip/xc32/v2.15/bin/bin/../../lib/gcc/pic32mx/4.8.3/../../../../pic32mx/lib/libpic32.a(strlen.o)
 .bss           0x00000000        0x0 /Applications/microchip/xc32/v2.15/bin/bin/../../lib/gcc/pic32mx/4.8.3/../../../../pic32mx/lib/libpic32.a(strlen.o)
 .reginfo       0x00000000       0x18 /Applications/microchip/xc32/v2.15/bin/bin/../../lib/gcc/pic32mx/4.8.3/../../../../pic32mx/lib/libpic32.a(strlen.o)
 .text          0x00000000        0x0 /Applications/microchip/xc32/v2.15/bin/bin/../../lib/gcc/pic32mx/4.8.3/../../../../pic32mx/lib/libpic32.a(default-bootstrap-exception-handler.o)
 .data          0x00000000        0x0 /Applications/microchip/xc32/v2.15/bin/bin/../../lib/gcc/pic32mx/4.8.3/../../../../pic32mx/lib/libpic32.a(default-bootstrap-exception-handler.o)
 .bss           0x00000000        0x0 /Applications/microchip/xc32/v2.15/bin/bin/../../lib/gcc/pic32mx/4.8.3/../../../../pic32mx/lib/libpic32.a(default-bootstrap-exception-handler.o)
 .reginfo       0x00000000       0x18 /Applications/microchip/xc32/v2.15/bin/bin/../../lib/gcc/pic32mx/4.8.3/../../../../pic32mx/lib/libpic32.a(default-bootstrap-exception-handler.o)
 .text          0x00000000        0x0 /Applications/microchip/xc32/v2.15/bin/bin/../../lib/gcc/pic32mx/4.8.3/../../../../pic32mx/lib/libpic32.a(default-on-reset.o)
 .data          0x00000000        0x0 /Applications/microchip/xc32/v2.15/bin/bin/../../lib/gcc/pic32mx/4.8.3/../../../../pic32mx/lib/libpic32.a(default-on-reset.o)
 .bss           0x00000000        0x0 /Applications/microchip/xc32/v2.15/bin/bin/../../lib/gcc/pic32mx/4.8.3/../../../../pic32mx/lib/libpic32.a(default-on-reset.o)
 .reginfo       0x00000000       0x18 /Applications/microchip/xc32/v2.15/bin/bin/../../lib/gcc/pic32mx/4.8.3/../../../../pic32mx/lib/libpic32.a(default-on-reset.o)
 .text          0x00000000        0x0 /Applications/microchip/xc32/v2.15/bin/bin/../../lib/gcc/pic32mx/4.8.3/../../../../pic32mx/lib/libpic32.a(default-on-bootstrap.o)
 .data          0x00000000        0x0 /Applications/microchip/xc32/v2.15/bin/bin/../../lib/gcc/pic32mx/4.8.3/../../../../pic32mx/lib/libpic32.a(default-on-bootstrap.o)
 .bss           0x00000000        0x0 /Applications/microchip/xc32/v2.15/bin/bin/../../lib/gcc/pic32mx/4.8.3/../../../../pic32mx/lib/libpic32.a(default-on-bootstrap.o)
 .reginfo       0x00000000       0x18 /Applications/microchip/xc32/v2.15/bin/bin/../../lib/gcc/pic32mx/4.8.3/../../../../pic32mx/lib/libpic32.a(default-on-bootstrap.o)
 .data          0x00000000        0x0 /Applications/microchip/xc32/v2.15/bin/bin/../../lib/gcc/pic32mx/4.8.3/../../../../pic32mx/lib/libpic32.a(default-nmi-handler.o)
 .bss           0x00000000        0x0 /Applications/microchip/xc32/v2.15/bin/bin/../../lib/gcc/pic32mx/4.8.3/../../../../pic32mx/lib/libpic32.a(default-nmi-handler.o)
 .reginfo       0x00000000       0x18 /Applications/microchip/xc32/v2.15/bin/bin/../../lib/gcc/pic32mx/4.8.3/../../../../pic32mx/lib/libpic32.a(default-nmi-handler.o)
 .data          0x00000000        0x0 /Applications/microchip/xc32/v2.15/bin/bin/../../lib/gcc/pic32mx/4.8.3/../../../../pic32mx/lib/libpic32.a(pic32_data_init.o)
 .bss           0x00000000        0x0 /Applications/microchip/xc32/v2.15/bin/bin/../../lib/gcc/pic32mx/4.8.3/../../../../pic32mx/lib/libpic32.a(pic32_data_init.o)
 .reginfo       0x00000000       0x18 /Applications/microchip/xc32/v2.15/bin/bin/../../lib/gcc/pic32mx/4.8.3/../../../../pic32mx/lib/libpic32.a(pic32_data_init.o)
 .text          0x00000000        0x0 /Applications/microchip/xc32/v2.15/bin/bin/../../lib/gcc/pic32mx/4.8.3/../../../../pic32mx/lib/libpic32.a(general-exception.o)
 .data          0x00000000        0x0 /Applications/microchip/xc32/v2.15/bin/bin/../../lib/gcc/pic32mx/4.8.3/../../../../pic32mx/lib/libpic32.a(general-exception.o)
 .bss           0x00000000        0x0 /Applications/microchip/xc32/v2.15/bin/bin/../../lib/gcc/pic32mx/4.8.3/../../../../pic32mx/lib/libpic32.a(general-exception.o)
 .reginfo       0x00000000       0x18 /Applications/microchip/xc32/v2.15/bin/bin/../../lib/gcc/pic32mx/4.8.3/../../../../pic32mx/lib/libpic32.a(general-exception.o)
 .text          0x00000000        0x0 /Applications/microchip/xc32/v2.15/bin/bin/../../lib/gcc/pic32mx/4.8.3/../../../../pic32mx/lib/libpic32.a(vector0.o)
 .data          0x00000000        0x0 /Applications/microchip/xc32/v2.15/bin/bin/../../lib/gcc/pic32mx/4.8.3/../../../../pic32mx/lib/libpic32.a(vector0.o)
 .bss           0x00000000        0x0 /Applications/microchip/xc32/v2.15/bin/bin/../../lib/gcc/pic32mx/4.8.3/../../../../pic32mx/lib/libpic32.a(vector0.o)
 .reginfo       0x00000000       0x18 /Applications/microchip/xc32/v2.15/bin/bin/../../lib/gcc/pic32mx/4.8.3/../../../../pic32mx/lib/libpic32.a(vector0.o)
 .text          0x00000000        0x0 /Applications/microchip/xc32/v2.15/bin/bin/../../lib/gcc/pic32mx/4.8.3/../../../../pic32mx/lib/libpic32.a(vector2.o)
 .data          0x00000000        0x0 /Applications/microchip/xc32/v2.15/bin/bin/../../lib/gcc/pic32mx/4.8.3/../../../../pic32mx/lib/libpic32.a(vector2.o)
 .bss           0x00000000        0x0 /Applications/microchip/xc32/v2.15/bin/bin/../../lib/gcc/pic32mx/4.8.3/../../../../pic32mx/lib/libpic32.a(vector2.o)
 .reginfo       0x00000000       0x18 /Applications/microchip/xc32/v2.15/bin/bin/../../lib/gcc/pic32mx/4.8.3/../../../../pic32mx/lib/libpic32.a(vector2.o)
 .text          0x00000000        0x0 /Applications/microchip/xc32/v2.15/bin/bin/../../lib/gcc/pic32mx/4.8.3/../../../../pic32mx/lib/libpic32.a(vector3.o)
 .data          0x00000000        0x0 /Applications/microchip/xc32/v2.15/bin/bin/../../lib/gcc/pic32mx/4.8.3/../../../../pic32mx/lib/libpic32.a(vector3.o)
 .bss           0x00000000        0x0 /Applications/microchip/xc32/v2.15/bin/bin/../../lib/gcc/pic32mx/4.8.3/../../../../pic32mx/lib/libpic32.a(vector3.o)
 .reginfo       0x00000000       0x18 /Applications/microchip/xc32/v2.15/bin/bin/../../lib/gcc/pic32mx/4.8.3/../../../../pic32mx/lib/libpic32.a(vector3.o)
 .text          0x00000000        0x0 /Applications/microchip/xc32/v2.15/bin/bin/../../lib/gcc/pic32mx/4.8.3/../../../../pic32mx/lib/libpic32.a(vector5.o)
 .data          0x00000000        0x0 /Applications/microchip/xc32/v2.15/bin/bin/../../lib/gcc/pic32mx/4.8.3/../../../../pic32mx/lib/libpic32.a(vector5.o)
 .bss           0x00000000        0x0 /Applications/microchip/xc32/v2.15/bin/bin/../../lib/gcc/pic32mx/4.8.3/../../../../pic32mx/lib/libpic32.a(vector5.o)
 .reginfo       0x00000000       0x18 /Applications/microchip/xc32/v2.15/bin/bin/../../lib/gcc/pic32mx/4.8.3/../../../../pic32mx/lib/libpic32.a(vector5.o)
 .text          0x00000000        0x0 /Applications/microchip/xc32/v2.15/bin/bin/../../lib/gcc/pic32mx/4.8.3/../../../../pic32mx/lib/libpic32.a(vector6.o)
 .data          0x00000000        0x0 /Applications/microchip/xc32/v2.15/bin/bin/../../lib/gcc/pic32mx/4.8.3/../../../../pic32mx/lib/libpic32.a(vector6.o)
 .bss           0x00000000        0x0 /Applications/microchip/xc32/v2.15/bin/bin/../../lib/gcc/pic32mx/4.8.3/../../../../pic32mx/lib/libpic32.a(vector6.o)
 .reginfo       0x00000000       0x18 /Applications/microchip/xc32/v2.15/bin/bin/../../lib/gcc/pic32mx/4.8.3/../../../../pic32mx/lib/libpic32.a(vector6.o)
 .text          0x00000000        0x0 /Applications/microchip/xc32/v2.15/bin/bin/../../lib/gcc/pic32mx/4.8.3/../../../../pic32mx/lib/libpic32.a(vector7.o)
 .data          0x00000000        0x0 /Applications/microchip/xc32/v2.15/bin/bin/../../lib/gcc/pic32mx/4.8.3/../../../../pic32mx/lib/libpic32.a(vector7.o)
 .bss           0x00000000        0x0 /Applications/microchip/xc32/v2.15/bin/bin/../../lib/gcc/pic32mx/4.8.3/../../../../pic32mx/lib/libpic32.a(vector7.o)
 .reginfo       0x00000000       0x18 /Applications/microchip/xc32/v2.15/bin/bin/../../lib/gcc/pic32mx/4.8.3/../../../../pic32mx/lib/libpic32.a(vector7.o)
 .text          0x00000000        0x0 /Applications/microchip/xc32/v2.15/bin/bin/../../lib/gcc/pic32mx/4.8.3/../../../../pic32mx/lib/libpic32.a(vector9.o)
 .data          0x00000000        0x0 /Applications/microchip/xc32/v2.15/bin/bin/../../lib/gcc/pic32mx/4.8.3/../../../../pic32mx/lib/libpic32.a(vector9.o)
 .bss           0x00000000        0x0 /Applications/microchip/xc32/v2.15/bin/bin/../../lib/gcc/pic32mx/4.8.3/../../../../pic32mx/lib/libpic32.a(vector9.o)
 .reginfo       0x00000000       0x18 /Applications/microchip/xc32/v2.15/bin/bin/../../lib/gcc/pic32mx/4.8.3/../../../../pic32mx/lib/libpic32.a(vector9.o)
 .text          0x00000000        0x0 /Applications/microchip/xc32/v2.15/bin/bin/../../lib/gcc/pic32mx/4.8.3/../../../../pic32mx/lib/libpic32.a(vector10.o)
 .data          0x00000000        0x0 /Applications/microchip/xc32/v2.15/bin/bin/../../lib/gcc/pic32mx/4.8.3/../../../../pic32mx/lib/libpic32.a(vector10.o)
 .bss           0x00000000        0x0 /Applications/microchip/xc32/v2.15/bin/bin/../../lib/gcc/pic32mx/4.8.3/../../../../pic32mx/lib/libpic32.a(vector10.o)
 .reginfo       0x00000000       0x18 /Applications/microchip/xc32/v2.15/bin/bin/../../lib/gcc/pic32mx/4.8.3/../../../../pic32mx/lib/libpic32.a(vector10.o)
 .text          0x00000000        0x0 /Applications/microchip/xc32/v2.15/bin/bin/../../lib/gcc/pic32mx/4.8.3/../../../../pic32mx/lib/libpic32.a(vector11.o)
 .data          0x00000000        0x0 /Applications/microchip/xc32/v2.15/bin/bin/../../lib/gcc/pic32mx/4.8.3/../../../../pic32mx/lib/libpic32.a(vector11.o)
 .bss           0x00000000        0x0 /Applications/microchip/xc32/v2.15/bin/bin/../../lib/gcc/pic32mx/4.8.3/../../../../pic32mx/lib/libpic32.a(vector11.o)
 .reginfo       0x00000000       0x18 /Applications/microchip/xc32/v2.15/bin/bin/../../lib/gcc/pic32mx/4.8.3/../../../../pic32mx/lib/libpic32.a(vector11.o)
 .text          0x00000000        0x0 /Applications/microchip/xc32/v2.15/bin/bin/../../lib/gcc/pic32mx/4.8.3/../../../../pic32mx/lib/libpic32.a(vector13.o)
 .data          0x00000000        0x0 /Applications/microchip/xc32/v2.15/bin/bin/../../lib/gcc/pic32mx/4.8.3/../../../../pic32mx/lib/libpic32.a(vector13.o)
 .bss           0x00000000        0x0 /Applications/microchip/xc32/v2.15/bin/bin/../../lib/gcc/pic32mx/4.8.3/../../../../pic32mx/lib/libpic32.a(vector13.o)
 .reginfo       0x00000000       0x18 /Applications/microchip/xc32/v2.15/bin/bin/../../lib/gcc/pic32mx/4.8.3/../../../../pic32mx/lib/libpic32.a(vector13.o)
 .text          0x00000000        0x0 /Applications/microchip/xc32/v2.15/bin/bin/../../lib/gcc/pic32mx/4.8.3/../../../../pic32mx/lib/libpic32.a(vector14.o)
 .data          0x00000000        0x0 /Applications/microchip/xc32/v2.15/bin/bin/../../lib/gcc/pic32mx/4.8.3/../../../../pic32mx/lib/libpic32.a(vector14.o)
 .bss           0x00000000        0x0 /Applications/microchip/xc32/v2.15/bin/bin/../../lib/gcc/pic32mx/4.8.3/../../../../pic32mx/lib/libpic32.a(vector14.o)
 .reginfo       0x00000000       0x18 /Applications/microchip/xc32/v2.15/bin/bin/../../lib/gcc/pic32mx/4.8.3/../../../../pic32mx/lib/libpic32.a(vector14.o)
 .text          0x00000000        0x0 /Applications/microchip/xc32/v2.15/bin/bin/../../lib/gcc/pic32mx/4.8.3/../../../../pic32mx/lib/libpic32.a(vector15.o)
 .data          0x00000000        0x0 /Applications/microchip/xc32/v2.15/bin/bin/../../lib/gcc/pic32mx/4.8.3/../../../../pic32mx/lib/libpic32.a(vector15.o)
 .bss           0x00000000        0x0 /Applications/microchip/xc32/v2.15/bin/bin/../../lib/gcc/pic32mx/4.8.3/../../../../pic32mx/lib/libpic32.a(vector15.o)
 .reginfo       0x00000000       0x18 /Applications/microchip/xc32/v2.15/bin/bin/../../lib/gcc/pic32mx/4.8.3/../../../../pic32mx/lib/libpic32.a(vector15.o)
 .text          0x00000000        0x0 /Applications/microchip/xc32/v2.15/bin/bin/../../lib/gcc/pic32mx/4.8.3/../../../../pic32mx/lib/libpic32.a(vector16.o)
 .data          0x00000000        0x0 /Applications/microchip/xc32/v2.15/bin/bin/../../lib/gcc/pic32mx/4.8.3/../../../../pic32mx/lib/libpic32.a(vector16.o)
 .bss           0x00000000        0x0 /Applications/microchip/xc32/v2.15/bin/bin/../../lib/gcc/pic32mx/4.8.3/../../../../pic32mx/lib/libpic32.a(vector16.o)
 .reginfo       0x00000000       0x18 /Applications/microchip/xc32/v2.15/bin/bin/../../lib/gcc/pic32mx/4.8.3/../../../../pic32mx/lib/libpic32.a(vector16.o)
 .text          0x00000000        0x0 /Applications/microchip/xc32/v2.15/bin/bin/../../lib/gcc/pic32mx/4.8.3/../../../../pic32mx/lib/libpic32.a(vector17.o)
 .data          0x00000000        0x0 /Applications/microchip/xc32/v2.15/bin/bin/../../lib/gcc/pic32mx/4.8.3/../../../../pic32mx/lib/libpic32.a(vector17.o)
 .bss           0x00000000        0x0 /Applications/microchip/xc32/v2.15/bin/bin/../../lib/gcc/pic32mx/4.8.3/../../../../pic32mx/lib/libpic32.a(vector17.o)
 .reginfo       0x00000000       0x18 /Applications/microchip/xc32/v2.15/bin/bin/../../lib/gcc/pic32mx/4.8.3/../../../../pic32mx/lib/libpic32.a(vector17.o)
 .text          0x00000000        0x0 /Applications/microchip/xc32/v2.15/bin/bin/../../lib/gcc/pic32mx/4.8.3/../../../../pic32mx/lib/libpic32.a(vector18.o)
 .data          0x00000000        0x0 /Applications/microchip/xc32/v2.15/bin/bin/../../lib/gcc/pic32mx/4.8.3/../../../../pic32mx/lib/libpic32.a(vector18.o)
 .bss           0x00000000        0x0 /Applications/microchip/xc32/v2.15/bin/bin/../../lib/gcc/pic32mx/4.8.3/../../../../pic32mx/lib/libpic32.a(vector18.o)
 .reginfo       0x00000000       0x18 /Applications/microchip/xc32/v2.15/bin/bin/../../lib/gcc/pic32mx/4.8.3/../../../../pic32mx/lib/libpic32.a(vector18.o)
 .text          0x00000000        0x0 /Applications/microchip/xc32/v2.15/bin/bin/../../lib/gcc/pic32mx/4.8.3/../../../../pic32mx/lib/libpic32.a(vector19.o)
 .data          0x00000000        0x0 /Applications/microchip/xc32/v2.15/bin/bin/../../lib/gcc/pic32mx/4.8.3/../../../../pic32mx/lib/libpic32.a(vector19.o)
 .bss           0x00000000        0x0 /Applications/microchip/xc32/v2.15/bin/bin/../../lib/gcc/pic32mx/4.8.3/../../../../pic32mx/lib/libpic32.a(vector19.o)
 .reginfo       0x00000000       0x18 /Applications/microchip/xc32/v2.15/bin/bin/../../lib/gcc/pic32mx/4.8.3/../../../../pic32mx/lib/libpic32.a(vector19.o)
 .text          0x00000000        0x0 /Applications/microchip/xc32/v2.15/bin/bin/../../lib/gcc/pic32mx/4.8.3/../../../../pic32mx/lib/libpic32.a(vector21.o)
 .data          0x00000000        0x0 /Applications/microchip/xc32/v2.15/bin/bin/../../lib/gcc/pic32mx/4.8.3/../../../../pic32mx/lib/libpic32.a(vector21.o)
 .bss           0x00000000        0x0 /Applications/microchip/xc32/v2.15/bin/bin/../../lib/gcc/pic32mx/4.8.3/../../../../pic32mx/lib/libpic32.a(vector21.o)
 .reginfo       0x00000000       0x18 /Applications/microchip/xc32/v2.15/bin/bin/../../lib/gcc/pic32mx/4.8.3/../../../../pic32mx/lib/libpic32.a(vector21.o)
 .text          0x00000000        0x0 /Applications/microchip/xc32/v2.15/bin/bin/../../lib/gcc/pic32mx/4.8.3/../../../../pic32mx/lib/libpic32.a(vector22.o)
 .data          0x00000000        0x0 /Applications/microchip/xc32/v2.15/bin/bin/../../lib/gcc/pic32mx/4.8.3/../../../../pic32mx/lib/libpic32.a(vector22.o)
 .bss           0x00000000        0x0 /Applications/microchip/xc32/v2.15/bin/bin/../../lib/gcc/pic32mx/4.8.3/../../../../pic32mx/lib/libpic32.a(vector22.o)
 .reginfo       0x00000000       0x18 /Applications/microchip/xc32/v2.15/bin/bin/../../lib/gcc/pic32mx/4.8.3/../../../../pic32mx/lib/libpic32.a(vector22.o)
 .text          0x00000000        0x0 /Applications/microchip/xc32/v2.15/bin/bin/../../lib/gcc/pic32mx/4.8.3/../../../../pic32mx/lib/libpic32.a(vector23.o)
 .data          0x00000000        0x0 /Applications/microchip/xc32/v2.15/bin/bin/../../lib/gcc/pic32mx/4.8.3/../../../../pic32mx/lib/libpic32.a(vector23.o)
 .bss           0x00000000        0x0 /Applications/microchip/xc32/v2.15/bin/bin/../../lib/gcc/pic32mx/4.8.3/../../../../pic32mx/lib/libpic32.a(vector23.o)
 .reginfo       0x00000000       0x18 /Applications/microchip/xc32/v2.15/bin/bin/../../lib/gcc/pic32mx/4.8.3/../../../../pic32mx/lib/libpic32.a(vector23.o)
 .text          0x00000000        0x0 /Applications/microchip/xc32/v2.15/bin/bin/../../lib/gcc/pic32mx/4.8.3/../../../../pic32mx/lib/libpic32.a(vector25.o)
 .data          0x00000000        0x0 /Applications/microchip/xc32/v2.15/bin/bin/../../lib/gcc/pic32mx/4.8.3/../../../../pic32mx/lib/libpic32.a(vector25.o)
 .bss           0x00000000        0x0 /Applications/microchip/xc32/v2.15/bin/bin/../../lib/gcc/pic32mx/4.8.3/../../../../pic32mx/lib/libpic32.a(vector25.o)
 .reginfo       0x00000000       0x18 /Applications/microchip/xc32/v2.15/bin/bin/../../lib/gcc/pic32mx/4.8.3/../../../../pic32mx/lib/libpic32.a(vector25.o)
 .text          0x00000000        0x0 /Applications/microchip/xc32/v2.15/bin/bin/../../lib/gcc/pic32mx/4.8.3/../../../../pic32mx/lib/libpic32.a(vector26.o)
 .data          0x00000000        0x0 /Applications/microchip/xc32/v2.15/bin/bin/../../lib/gcc/pic32mx/4.8.3/../../../../pic32mx/lib/libpic32.a(vector26.o)
 .bss           0x00000000        0x0 /Applications/microchip/xc32/v2.15/bin/bin/../../lib/gcc/pic32mx/4.8.3/../../../../pic32mx/lib/libpic32.a(vector26.o)
 .reginfo       0x00000000       0x18 /Applications/microchip/xc32/v2.15/bin/bin/../../lib/gcc/pic32mx/4.8.3/../../../../pic32mx/lib/libpic32.a(vector26.o)
 .text          0x00000000        0x0 /Applications/microchip/xc32/v2.15/bin/bin/../../lib/gcc/pic32mx/4.8.3/../../../../pic32mx/lib/libpic32.a(vector27.o)
 .data          0x00000000        0x0 /Applications/microchip/xc32/v2.15/bin/bin/../../lib/gcc/pic32mx/4.8.3/../../../../pic32mx/lib/libpic32.a(vector27.o)
 .bss           0x00000000        0x0 /Applications/microchip/xc32/v2.15/bin/bin/../../lib/gcc/pic32mx/4.8.3/../../../../pic32mx/lib/libpic32.a(vector27.o)
 .reginfo       0x00000000       0x18 /Applications/microchip/xc32/v2.15/bin/bin/../../lib/gcc/pic32mx/4.8.3/../../../../pic32mx/lib/libpic32.a(vector27.o)
 .text          0x00000000        0x0 /Applications/microchip/xc32/v2.15/bin/bin/../../lib/gcc/pic32mx/4.8.3/../../../../pic32mx/lib/libpic32.a(vector28.o)
 .data          0x00000000        0x0 /Applications/microchip/xc32/v2.15/bin/bin/../../lib/gcc/pic32mx/4.8.3/../../../../pic32mx/lib/libpic32.a(vector28.o)
 .bss           0x00000000        0x0 /Applications/microchip/xc32/v2.15/bin/bin/../../lib/gcc/pic32mx/4.8.3/../../../../pic32mx/lib/libpic32.a(vector28.o)
 .reginfo       0x00000000       0x18 /Applications/microchip/xc32/v2.15/bin/bin/../../lib/gcc/pic32mx/4.8.3/../../../../pic32mx/lib/libpic32.a(vector28.o)
 .text          0x00000000        0x0 /Applications/microchip/xc32/v2.15/bin/bin/../../lib/gcc/pic32mx/4.8.3/../../../../pic32mx/lib/libpic32.a(vector29.o)
 .data          0x00000000        0x0 /Applications/microchip/xc32/v2.15/bin/bin/../../lib/gcc/pic32mx/4.8.3/../../../../pic32mx/lib/libpic32.a(vector29.o)
 .bss           0x00000000        0x0 /Applications/microchip/xc32/v2.15/bin/bin/../../lib/gcc/pic32mx/4.8.3/../../../../pic32mx/lib/libpic32.a(vector29.o)
 .reginfo       0x00000000       0x18 /Applications/microchip/xc32/v2.15/bin/bin/../../lib/gcc/pic32mx/4.8.3/../../../../pic32mx/lib/libpic32.a(vector29.o)
 .text          0x00000000        0x0 /Applications/microchip/xc32/v2.15/bin/bin/../../lib/gcc/pic32mx/4.8.3/../../../../pic32mx/lib/libpic32.a(vector30.o)
 .data          0x00000000        0x0 /Applications/microchip/xc32/v2.15/bin/bin/../../lib/gcc/pic32mx/4.8.3/../../../../pic32mx/lib/libpic32.a(vector30.o)
 .bss           0x00000000        0x0 /Applications/microchip/xc32/v2.15/bin/bin/../../lib/gcc/pic32mx/4.8.3/../../../../pic32mx/lib/libpic32.a(vector30.o)
 .reginfo       0x00000000       0x18 /Applications/microchip/xc32/v2.15/bin/bin/../../lib/gcc/pic32mx/4.8.3/../../../../pic32mx/lib/libpic32.a(vector30.o)
 .text          0x00000000        0x0 /Applications/microchip/xc32/v2.15/bin/bin/../../lib/gcc/pic32mx/4.8.3/../../../../pic32mx/lib/libpic32.a(vector31.o)
 .data          0x00000000        0x0 /Applications/microchip/xc32/v2.15/bin/bin/../../lib/gcc/pic32mx/4.8.3/../../../../pic32mx/lib/libpic32.a(vector31.o)
 .bss           0x00000000        0x0 /Applications/microchip/xc32/v2.15/bin/bin/../../lib/gcc/pic32mx/4.8.3/../../../../pic32mx/lib/libpic32.a(vector31.o)
 .reginfo       0x00000000       0x18 /Applications/microchip/xc32/v2.15/bin/bin/../../lib/gcc/pic32mx/4.8.3/../../../../pic32mx/lib/libpic32.a(vector31.o)
 .text          0x00000000        0x0 /Applications/microchip/xc32/v2.15/bin/bin/../../lib/gcc/pic32mx/4.8.3/../../../../pic32mx/lib/libpic32.a(vector33.o)
 .data          0x00000000        0x0 /Applications/microchip/xc32/v2.15/bin/bin/../../lib/gcc/pic32mx/4.8.3/../../../../pic32mx/lib/libpic32.a(vector33.o)
 .bss           0x00000000        0x0 /Applications/microchip/xc32/v2.15/bin/bin/../../lib/gcc/pic32mx/4.8.3/../../../../pic32mx/lib/libpic32.a(vector33.o)
 .reginfo       0x00000000       0x18 /Applications/microchip/xc32/v2.15/bin/bin/../../lib/gcc/pic32mx/4.8.3/../../../../pic32mx/lib/libpic32.a(vector33.o)
 .text          0x00000000        0x0 /Applications/microchip/xc32/v2.15/bin/bin/../../lib/gcc/pic32mx/4.8.3/../../../../pic32mx/lib/libpic32.a(vector34.o)
 .data          0x00000000        0x0 /Applications/microchip/xc32/v2.15/bin/bin/../../lib/gcc/pic32mx/4.8.3/../../../../pic32mx/lib/libpic32.a(vector34.o)
 .bss           0x00000000        0x0 /Applications/microchip/xc32/v2.15/bin/bin/../../lib/gcc/pic32mx/4.8.3/../../../../pic32mx/lib/libpic32.a(vector34.o)
 .reginfo       0x00000000       0x18 /Applications/microchip/xc32/v2.15/bin/bin/../../lib/gcc/pic32mx/4.8.3/../../../../pic32mx/lib/libpic32.a(vector34.o)
 .text          0x00000000        0x0 /Applications/microchip/xc32/v2.15/bin/bin/../../lib/gcc/pic32mx/4.8.3/../../../../pic32mx/lib/libpic32.a(vector35.o)
 .data          0x00000000        0x0 /Applications/microchip/xc32/v2.15/bin/bin/../../lib/gcc/pic32mx/4.8.3/../../../../pic32mx/lib/libpic32.a(vector35.o)
 .bss           0x00000000        0x0 /Applications/microchip/xc32/v2.15/bin/bin/../../lib/gcc/pic32mx/4.8.3/../../../../pic32mx/lib/libpic32.a(vector35.o)
 .reginfo       0x00000000       0x18 /Applications/microchip/xc32/v2.15/bin/bin/../../lib/gcc/pic32mx/4.8.3/../../../../pic32mx/lib/libpic32.a(vector35.o)
 .text          0x00000000        0x0 /Applications/microchip/xc32/v2.15/bin/bin/../../lib/gcc/pic32mx/4.8.3/../../../../pic32mx/lib/libpic32.a(vector36.o)
 .data          0x00000000        0x0 /Applications/microchip/xc32/v2.15/bin/bin/../../lib/gcc/pic32mx/4.8.3/../../../../pic32mx/lib/libpic32.a(vector36.o)
 .bss           0x00000000        0x0 /Applications/microchip/xc32/v2.15/bin/bin/../../lib/gcc/pic32mx/4.8.3/../../../../pic32mx/lib/libpic32.a(vector36.o)
 .reginfo       0x00000000       0x18 /Applications/microchip/xc32/v2.15/bin/bin/../../lib/gcc/pic32mx/4.8.3/../../../../pic32mx/lib/libpic32.a(vector36.o)
 .text          0x00000000        0x0 /Applications/microchip/xc32/v2.15/bin/bin/../../lib/gcc/pic32mx/4.8.3/../../../../pic32mx/lib/libpic32.a(vector37.o)
 .data          0x00000000        0x0 /Applications/microchip/xc32/v2.15/bin/bin/../../lib/gcc/pic32mx/4.8.3/../../../../pic32mx/lib/libpic32.a(vector37.o)
 .bss           0x00000000        0x0 /Applications/microchip/xc32/v2.15/bin/bin/../../lib/gcc/pic32mx/4.8.3/../../../../pic32mx/lib/libpic32.a(vector37.o)
 .reginfo       0x00000000       0x18 /Applications/microchip/xc32/v2.15/bin/bin/../../lib/gcc/pic32mx/4.8.3/../../../../pic32mx/lib/libpic32.a(vector37.o)
 .text          0x00000000        0x0 /Applications/microchip/xc32/v2.15/bin/bin/../../lib/gcc/pic32mx/4.8.3/../../../../pic32mx/lib/libpic32.a(vector38.o)
 .data          0x00000000        0x0 /Applications/microchip/xc32/v2.15/bin/bin/../../lib/gcc/pic32mx/4.8.3/../../../../pic32mx/lib/libpic32.a(vector38.o)
 .bss           0x00000000        0x0 /Applications/microchip/xc32/v2.15/bin/bin/../../lib/gcc/pic32mx/4.8.3/../../../../pic32mx/lib/libpic32.a(vector38.o)
 .reginfo       0x00000000       0x18 /Applications/microchip/xc32/v2.15/bin/bin/../../lib/gcc/pic32mx/4.8.3/../../../../pic32mx/lib/libpic32.a(vector38.o)
 .text          0x00000000        0x0 /Applications/microchip/xc32/v2.15/bin/bin/../../lib/gcc/pic32mx/4.8.3/../../../../pic32mx/lib/libpic32.a(vector39.o)
 .data          0x00000000        0x0 /Applications/microchip/xc32/v2.15/bin/bin/../../lib/gcc/pic32mx/4.8.3/../../../../pic32mx/lib/libpic32.a(vector39.o)
 .bss           0x00000000        0x0 /Applications/microchip/xc32/v2.15/bin/bin/../../lib/gcc/pic32mx/4.8.3/../../../../pic32mx/lib/libpic32.a(vector39.o)
 .reginfo       0x00000000       0x18 /Applications/microchip/xc32/v2.15/bin/bin/../../lib/gcc/pic32mx/4.8.3/../../../../pic32mx/lib/libpic32.a(vector39.o)
 .text          0x00000000        0x0 /Applications/microchip/xc32/v2.15/bin/bin/../../lib/gcc/pic32mx/4.8.3/../../../../pic32mx/lib/libpic32.a(vector40.o)
 .data          0x00000000        0x0 /Applications/microchip/xc32/v2.15/bin/bin/../../lib/gcc/pic32mx/4.8.3/../../../../pic32mx/lib/libpic32.a(vector40.o)
 .bss           0x00000000        0x0 /Applications/microchip/xc32/v2.15/bin/bin/../../lib/gcc/pic32mx/4.8.3/../../../../pic32mx/lib/libpic32.a(vector40.o)
 .reginfo       0x00000000       0x18 /Applications/microchip/xc32/v2.15/bin/bin/../../lib/gcc/pic32mx/4.8.3/../../../../pic32mx/lib/libpic32.a(vector40.o)
 .text          0x00000000        0x0 /Applications/microchip/xc32/v2.15/bin/bin/../../lib/gcc/pic32mx/4.8.3/../../../../pic32mx/lib/libpic32.a(vector41.o)
 .data          0x00000000        0x0 /Applications/microchip/xc32/v2.15/bin/bin/../../lib/gcc/pic32mx/4.8.3/../../../../pic32mx/lib/libpic32.a(vector41.o)
 .bss           0x00000000        0x0 /Applications/microchip/xc32/v2.15/bin/bin/../../lib/gcc/pic32mx/4.8.3/../../../../pic32mx/lib/libpic32.a(vector41.o)
 .reginfo       0x00000000       0x18 /Applications/microchip/xc32/v2.15/bin/bin/../../lib/gcc/pic32mx/4.8.3/../../../../pic32mx/lib/libpic32.a(vector41.o)
 .text          0x00000000        0x0 /Applications/microchip/xc32/v2.15/bin/bin/../../lib/gcc/pic32mx/4.8.3/../../../../pic32mx/lib/libpic32.a(vector42.o)
 .data          0x00000000        0x0 /Applications/microchip/xc32/v2.15/bin/bin/../../lib/gcc/pic32mx/4.8.3/../../../../pic32mx/lib/libpic32.a(vector42.o)
 .bss           0x00000000        0x0 /Applications/microchip/xc32/v2.15/bin/bin/../../lib/gcc/pic32mx/4.8.3/../../../../pic32mx/lib/libpic32.a(vector42.o)
 .reginfo       0x00000000       0x18 /Applications/microchip/xc32/v2.15/bin/bin/../../lib/gcc/pic32mx/4.8.3/../../../../pic32mx/lib/libpic32.a(vector42.o)
 .text          0x00000000        0x0 /Applications/microchip/xc32/v2.15/bin/bin/../../lib/gcc/pic32mx/4.8.3/../../../../pic32mx/lib/libpic32.a(vector43.o)
 .data          0x00000000        0x0 /Applications/microchip/xc32/v2.15/bin/bin/../../lib/gcc/pic32mx/4.8.3/../../../../pic32mx/lib/libpic32.a(vector43.o)
 .bss           0x00000000        0x0 /Applications/microchip/xc32/v2.15/bin/bin/../../lib/gcc/pic32mx/4.8.3/../../../../pic32mx/lib/libpic32.a(vector43.o)
 .reginfo       0x00000000       0x18 /Applications/microchip/xc32/v2.15/bin/bin/../../lib/gcc/pic32mx/4.8.3/../../../../pic32mx/lib/libpic32.a(vector43.o)
 .text          0x00000000        0x0 /Applications/microchip/xc32/v2.15/bin/bin/../../lib/gcc/pic32mx/4.8.3/../../../../pic32mx/lib/libpic32.a(vector44.o)
 .data          0x00000000        0x0 /Applications/microchip/xc32/v2.15/bin/bin/../../lib/gcc/pic32mx/4.8.3/../../../../pic32mx/lib/libpic32.a(vector44.o)
 .bss           0x00000000        0x0 /Applications/microchip/xc32/v2.15/bin/bin/../../lib/gcc/pic32mx/4.8.3/../../../../pic32mx/lib/libpic32.a(vector44.o)
 .reginfo       0x00000000       0x18 /Applications/microchip/xc32/v2.15/bin/bin/../../lib/gcc/pic32mx/4.8.3/../../../../pic32mx/lib/libpic32.a(vector44.o)
 .text          0x00000000        0x0 /Applications/microchip/xc32/v2.15/bin/bin/../../lib/gcc/pic32mx/4.8.3/../../../../pic32mx/lib/libpic32.a(vector45.o)
 .data          0x00000000        0x0 /Applications/microchip/xc32/v2.15/bin/bin/../../lib/gcc/pic32mx/4.8.3/../../../../pic32mx/lib/libpic32.a(vector45.o)
 .bss           0x00000000        0x0 /Applications/microchip/xc32/v2.15/bin/bin/../../lib/gcc/pic32mx/4.8.3/../../../../pic32mx/lib/libpic32.a(vector45.o)
 .reginfo       0x00000000       0x18 /Applications/microchip/xc32/v2.15/bin/bin/../../lib/gcc/pic32mx/4.8.3/../../../../pic32mx/lib/libpic32.a(vector45.o)
 .text          0x00000000        0x0 /Applications/microchip/xc32/v2.15/bin/bin/../../lib/gcc/pic32mx/4.8.3/../../../../pic32mx/lib/libpic32.a(vector46.o)
 .data          0x00000000        0x0 /Applications/microchip/xc32/v2.15/bin/bin/../../lib/gcc/pic32mx/4.8.3/../../../../pic32mx/lib/libpic32.a(vector46.o)
 .bss           0x00000000        0x0 /Applications/microchip/xc32/v2.15/bin/bin/../../lib/gcc/pic32mx/4.8.3/../../../../pic32mx/lib/libpic32.a(vector46.o)
 .reginfo       0x00000000       0x18 /Applications/microchip/xc32/v2.15/bin/bin/../../lib/gcc/pic32mx/4.8.3/../../../../pic32mx/lib/libpic32.a(vector46.o)
 .text          0x00000000        0x0 /Applications/microchip/xc32/v2.15/bin/bin/../../lib/gcc/pic32mx/4.8.3/../../../../pic32mx/lib/libpic32.a(vector47.o)
 .data          0x00000000        0x0 /Applications/microchip/xc32/v2.15/bin/bin/../../lib/gcc/pic32mx/4.8.3/../../../../pic32mx/lib/libpic32.a(vector47.o)
 .bss           0x00000000        0x0 /Applications/microchip/xc32/v2.15/bin/bin/../../lib/gcc/pic32mx/4.8.3/../../../../pic32mx/lib/libpic32.a(vector47.o)
 .reginfo       0x00000000       0x18 /Applications/microchip/xc32/v2.15/bin/bin/../../lib/gcc/pic32mx/4.8.3/../../../../pic32mx/lib/libpic32.a(vector47.o)
 .text          0x00000000        0x0 /Applications/microchip/xc32/v2.15/bin/bin/../../lib/gcc/pic32mx/4.8.3/../../../../pic32mx/lib/libpic32.a(vector48.o)
 .data          0x00000000        0x0 /Applications/microchip/xc32/v2.15/bin/bin/../../lib/gcc/pic32mx/4.8.3/../../../../pic32mx/lib/libpic32.a(vector48.o)
 .bss           0x00000000        0x0 /Applications/microchip/xc32/v2.15/bin/bin/../../lib/gcc/pic32mx/4.8.3/../../../../pic32mx/lib/libpic32.a(vector48.o)
 .reginfo       0x00000000       0x18 /Applications/microchip/xc32/v2.15/bin/bin/../../lib/gcc/pic32mx/4.8.3/../../../../pic32mx/lib/libpic32.a(vector48.o)
 .text          0x00000000        0x0 /Applications/microchip/xc32/v2.15/bin/bin/../../lib/gcc/pic32mx/4.8.3/../../../../pic32mx/lib/libpic32.a(vector50.o)
 .data          0x00000000        0x0 /Applications/microchip/xc32/v2.15/bin/bin/../../lib/gcc/pic32mx/4.8.3/../../../../pic32mx/lib/libpic32.a(vector50.o)
 .bss           0x00000000        0x0 /Applications/microchip/xc32/v2.15/bin/bin/../../lib/gcc/pic32mx/4.8.3/../../../../pic32mx/lib/libpic32.a(vector50.o)
 .reginfo       0x00000000       0x18 /Applications/microchip/xc32/v2.15/bin/bin/../../lib/gcc/pic32mx/4.8.3/../../../../pic32mx/lib/libpic32.a(vector50.o)
 .text          0x00000000        0x0 /Applications/microchip/xc32/v2.15/bin/bin/../../lib/gcc/pic32mx/4.8.3/../../../../pic32mx/lib/libpic32.a(vector51.o)
 .data          0x00000000        0x0 /Applications/microchip/xc32/v2.15/bin/bin/../../lib/gcc/pic32mx/4.8.3/../../../../pic32mx/lib/libpic32.a(vector51.o)
 .bss           0x00000000        0x0 /Applications/microchip/xc32/v2.15/bin/bin/../../lib/gcc/pic32mx/4.8.3/../../../../pic32mx/lib/libpic32.a(vector51.o)
 .reginfo       0x00000000       0x18 /Applications/microchip/xc32/v2.15/bin/bin/../../lib/gcc/pic32mx/4.8.3/../../../../pic32mx/lib/libpic32.a(vector51.o)
 .text          0x00000000        0x0 /Applications/microchip/xc32/v2.15/bin/bin/../../lib/gcc/pic32mx/4.8.3/../../../../pic32mx/lib/libpic32.a(defaultinterrupt.o)
 .data          0x00000000        0x0 /Applications/microchip/xc32/v2.15/bin/bin/../../lib/gcc/pic32mx/4.8.3/../../../../pic32mx/lib/libpic32.a(defaultinterrupt.o)
 .bss           0x00000000        0x0 /Applications/microchip/xc32/v2.15/bin/bin/../../lib/gcc/pic32mx/4.8.3/../../../../pic32mx/lib/libpic32.a(defaultinterrupt.o)
 .reginfo       0x00000000       0x18 /Applications/microchip/xc32/v2.15/bin/bin/../../lib/gcc/pic32mx/4.8.3/../../../../pic32mx/lib/libpic32.a(defaultinterrupt.o)
 .text          0x00000000        0x0 /Applications/microchip/xc32/v2.15/bin/bin/../../lib/gcc/pic32mx/4.8.3/../../../../pic32mx/lib/libc.a(ctypef.o)
 .data          0x00000000        0x0 /Applications/microchip/xc32/v2.15/bin/bin/../../lib/gcc/pic32mx/4.8.3/../../../../pic32mx/lib/libc.a(ctypef.o)
 .bss           0x00000000        0x0 /Applications/microchip/xc32/v2.15/bin/bin/../../lib/gcc/pic32mx/4.8.3/../../../../pic32mx/lib/libc.a(ctypef.o)
 .reginfo       0x00000000       0x18 /Applications/microchip/xc32/v2.15/bin/bin/../../lib/gcc/pic32mx/4.8.3/../../../../pic32mx/lib/libc.a(ctypef.o)
 .text.toupper  0x00000000       0x24 /Applications/microchip/xc32/v2.15/bin/bin/../../lib/gcc/pic32mx/4.8.3/../../../../pic32mx/lib/libc.a(ctypef.o)
 .text.isalnum  0x00000000       0x18 /Applications/microchip/xc32/v2.15/bin/bin/../../lib/gcc/pic32mx/4.8.3/../../../../pic32mx/lib/libc.a(ctypef.o)
 .text.isalpha  0x00000000       0x18 /Applications/microchip/xc32/v2.15/bin/bin/../../lib/gcc/pic32mx/4.8.3/../../../../pic32mx/lib/libc.a(ctypef.o)
 .text.isascii  0x00000000        0x8 /Applications/microchip/xc32/v2.15/bin/bin/../../lib/gcc/pic32mx/4.8.3/../../../../pic32mx/lib/libc.a(ctypef.o)
 .text.iscntrl  0x00000000       0x18 /Applications/microchip/xc32/v2.15/bin/bin/../../lib/gcc/pic32mx/4.8.3/../../../../pic32mx/lib/libc.a(ctypef.o)
 .text.isdigit  0x00000000       0x18 /Applications/microchip/xc32/v2.15/bin/bin/../../lib/gcc/pic32mx/4.8.3/../../../../pic32mx/lib/libc.a(ctypef.o)
 .text.isgraph  0x00000000       0x18 /Applications/microchip/xc32/v2.15/bin/bin/../../lib/gcc/pic32mx/4.8.3/../../../../pic32mx/lib/libc.a(ctypef.o)
 .text.islower  0x00000000       0x18 /Applications/microchip/xc32/v2.15/bin/bin/../../lib/gcc/pic32mx/4.8.3/../../../../pic32mx/lib/libc.a(ctypef.o)
 .text.isprint  0x00000000       0x18 /Applications/microchip/xc32/v2.15/bin/bin/../../lib/gcc/pic32mx/4.8.3/../../../../pic32mx/lib/libc.a(ctypef.o)
 .text.ispunct  0x00000000       0x18 /Applications/microchip/xc32/v2.15/bin/bin/../../lib/gcc/pic32mx/4.8.3/../../../../pic32mx/lib/libc.a(ctypef.o)
 .text.isspace  0x00000000       0x18 /Applications/microchip/xc32/v2.15/bin/bin/../../lib/gcc/pic32mx/4.8.3/../../../../pic32mx/lib/libc.a(ctypef.o)
 .text.isupper  0x00000000       0x18 /Applications/microchip/xc32/v2.15/bin/bin/../../lib/gcc/pic32mx/4.8.3/../../../../pic32mx/lib/libc.a(ctypef.o)
 .text.isxdigit
                0x00000000       0x18 /Applications/microchip/xc32/v2.15/bin/bin/../../lib/gcc/pic32mx/4.8.3/../../../../pic32mx/lib/libc.a(ctypef.o)
 .text.toascii  0x00000000        0x8 /Applications/microchip/xc32/v2.15/bin/bin/../../lib/gcc/pic32mx/4.8.3/../../../../pic32mx/lib/libc.a(ctypef.o)
 .text._tolower
                0x00000000        0x8 /Applications/microchip/xc32/v2.15/bin/bin/../../lib/gcc/pic32mx/4.8.3/../../../../pic32mx/lib/libc.a(ctypef.o)
 .text._toupper
                0x00000000        0x8 /Applications/microchip/xc32/v2.15/bin/bin/../../lib/gcc/pic32mx/4.8.3/../../../../pic32mx/lib/libc.a(ctypef.o)
 .text          0x00000000        0x0 /Applications/microchip/xc32/v2.15/bin/bin/../../lib/gcc/pic32mx/4.8.3/../../../../pic32mx/lib/libc.a(malloc.o)
 .data          0x00000000        0x0 /Applications/microchip/xc32/v2.15/bin/bin/../../lib/gcc/pic32mx/4.8.3/../../../../pic32mx/lib/libc.a(malloc.o)
 .bss           0x00000000       0x20 /Applications/microchip/xc32/v2.15/bin/bin/../../lib/gcc/pic32mx/4.8.3/../../../../pic32mx/lib/libc.a(malloc.o)
 .reginfo       0x00000000       0x18 /Applications/microchip/xc32/v2.15/bin/bin/../../lib/gcc/pic32mx/4.8.3/../../../../pic32mx/lib/libc.a(malloc.o)
 .text.malloc   0x00000000      0x28c /Applications/microchip/xc32/v2.15/bin/bin/../../lib/gcc/pic32mx/4.8.3/../../../../pic32mx/lib/libc.a(malloc.o)
 .text.free     0x00000000       0x30 /Applications/microchip/xc32/v2.15/bin/bin/../../lib/gcc/pic32mx/4.8.3/../../../../pic32mx/lib/libc.a(malloc.o)
 .text.realloc  0x00000000      0x148 /Applications/microchip/xc32/v2.15/bin/bin/../../lib/gcc/pic32mx/4.8.3/../../../../pic32mx/lib/libc.a(malloc.o)
 .text          0x00000000        0x0 /Applications/microchip/xc32/v2.15/bin/bin/../../lib/gcc/pic32mx/4.8.3/../../../../pic32mx/lib/libc.a(strcat.o)
 .data          0x00000000        0x0 /Applications/microchip/xc32/v2.15/bin/bin/../../lib/gcc/pic32mx/4.8.3/../../../../pic32mx/lib/libc.a(strcat.o)
 .bss           0x00000000        0x0 /Applications/microchip/xc32/v2.15/bin/bin/../../lib/gcc/pic32mx/4.8.3/../../../../pic32mx/lib/libc.a(strcat.o)
 .reginfo       0x00000000       0x18 /Applications/microchip/xc32/v2.15/bin/bin/../../lib/gcc/pic32mx/4.8.3/../../../../pic32mx/lib/libc.a(strcat.o)
 .text          0x00000000        0x0 /Applications/microchip/xc32/v2.15/bin/bin/../../lib/gcc/pic32mx/4.8.3/../../../../pic32mx/lib/libc.a(strncmp.o)
 .data          0x00000000        0x0 /Applications/microchip/xc32/v2.15/bin/bin/../../lib/gcc/pic32mx/4.8.3/../../../../pic32mx/lib/libc.a(strncmp.o)
 .bss           0x00000000        0x0 /Applications/microchip/xc32/v2.15/bin/bin/../../lib/gcc/pic32mx/4.8.3/../../../../pic32mx/lib/libc.a(strncmp.o)
 .reginfo       0x00000000       0x18 /Applications/microchip/xc32/v2.15/bin/bin/../../lib/gcc/pic32mx/4.8.3/../../../../pic32mx/lib/libc.a(strncmp.o)
 .text          0x00000000        0x0 /Applications/microchip/xc32/v2.15/bin/bin/../../lib/gcc/pic32mx/4.8.3/../../../../pic32mx/lib/libc.a(strtod.o)
 .data          0x00000000        0x0 /Applications/microchip/xc32/v2.15/bin/bin/../../lib/gcc/pic32mx/4.8.3/../../../../pic32mx/lib/libc.a(strtod.o)
 .bss           0x00000000        0x0 /Applications/microchip/xc32/v2.15/bin/bin/../../lib/gcc/pic32mx/4.8.3/../../../../pic32mx/lib/libc.a(strtod.o)
 .reginfo       0x00000000       0x18 /Applications/microchip/xc32/v2.15/bin/bin/../../lib/gcc/pic32mx/4.8.3/../../../../pic32mx/lib/libc.a(strtod.o)
 .text._dstrtod
                0x00000000       0x1c /Applications/microchip/xc32/v2.15/bin/bin/../../lib/gcc/pic32mx/4.8.3/../../../../pic32mx/lib/libc.a(strtod.o)
 .text          0x00000000        0x0 /Applications/microchip/xc32/v2.15/bin/bin/../../lib/gcc/pic32mx/4.8.3/../../../../pic32mx/lib/libc.a(sprintf_cdgGnopuxX.eo)
 .data          0x00000000        0x0 /Applications/microchip/xc32/v2.15/bin/bin/../../lib/gcc/pic32mx/4.8.3/../../../../pic32mx/lib/libc.a(sprintf_cdgGnopuxX.eo)
 .bss           0x00000000        0x0 /Applications/microchip/xc32/v2.15/bin/bin/../../lib/gcc/pic32mx/4.8.3/../../../../pic32mx/lib/libc.a(sprintf_cdgGnopuxX.eo)
 .reginfo       0x00000000       0x18 /Applications/microchip/xc32/v2.15/bin/bin/../../lib/gcc/pic32mx/4.8.3/../../../../pic32mx/lib/libc.a(sprintf_cdgGnopuxX.eo)
 .text          0x00000000        0x0 /Applications/microchip/xc32/v2.15/bin/bin/../../lib/gcc/pic32mx/4.8.3/../../../../pic32mx/lib/libc.a(sscanf_gG.eo)
 .data          0x00000000        0x0 /Applications/microchip/xc32/v2.15/bin/bin/../../lib/gcc/pic32mx/4.8.3/../../../../pic32mx/lib/libc.a(sscanf_gG.eo)
 .bss           0x00000000        0x0 /Applications/microchip/xc32/v2.15/bin/bin/../../lib/gcc/pic32mx/4.8.3/../../../../pic32mx/lib/libc.a(sscanf_gG.eo)
 .reginfo       0x00000000       0x18 /Applications/microchip/xc32/v2.15/bin/bin/../../lib/gcc/pic32mx/4.8.3/../../../../pic32mx/lib/libc.a(sscanf_gG.eo)
 .text          0x00000000        0x0 /Applications/microchip/xc32/v2.15/bin/bin/../../lib/gcc/pic32mx/4.8.3/../../../../pic32mx/lib/libc.a(ctype.o)
 .data          0x00000000        0x0 /Applications/microchip/xc32/v2.15/bin/bin/../../lib/gcc/pic32mx/4.8.3/../../../../pic32mx/lib/libc.a(ctype.o)
 .bss           0x00000000        0x0 /Applications/microchip/xc32/v2.15/bin/bin/../../lib/gcc/pic32mx/4.8.3/../../../../pic32mx/lib/libc.a(ctype.o)
 .reginfo       0x00000000       0x18 /Applications/microchip/xc32/v2.15/bin/bin/../../lib/gcc/pic32mx/4.8.3/../../../../pic32mx/lib/libc.a(ctype.o)
 .text          0x00000000        0x0 /Applications/microchip/xc32/v2.15/bin/bin/../../lib/gcc/pic32mx/4.8.3/../../../../pic32mx/lib/libc.a(doprnt_cdgGnopuxX.eo)
 .data          0x00000000        0x0 /Applications/microchip/xc32/v2.15/bin/bin/../../lib/gcc/pic32mx/4.8.3/../../../../pic32mx/lib/libc.a(doprnt_cdgGnopuxX.eo)
 .bss           0x00000000        0x0 /Applications/microchip/xc32/v2.15/bin/bin/../../lib/gcc/pic32mx/4.8.3/../../../../pic32mx/lib/libc.a(doprnt_cdgGnopuxX.eo)
 .reginfo       0x00000000       0x18 /Applications/microchip/xc32/v2.15/bin/bin/../../lib/gcc/pic32mx/4.8.3/../../../../pic32mx/lib/libc.a(doprnt_cdgGnopuxX.eo)
 .text          0x00000000        0x0 /Applications/microchip/xc32/v2.15/bin/bin/../../lib/gcc/pic32mx/4.8.3/../../../../pic32mx/lib/libc.a(doscan_gG.eo)
 .data          0x00000000        0x0 /Applications/microchip/xc32/v2.15/bin/bin/../../lib/gcc/pic32mx/4.8.3/../../../../pic32mx/lib/libc.a(doscan_gG.eo)
 .reginfo       0x00000000       0x18 /Applications/microchip/xc32/v2.15/bin/bin/../../lib/gcc/pic32mx/4.8.3/../../../../pic32mx/lib/libc.a(doscan_gG.eo)
 .text          0x00000000        0x0 /Applications/microchip/xc32/v2.15/bin/bin/../../lib/gcc/pic32mx/4.8.3/../../../../pic32mx/lib/libc.a(fgetc.o)
 .data          0x00000000        0x0 /Applications/microchip/xc32/v2.15/bin/bin/../../lib/gcc/pic32mx/4.8.3/../../../../pic32mx/lib/libc.a(fgetc.o)
 .bss           0x00000000        0x0 /Applications/microchip/xc32/v2.15/bin/bin/../../lib/gcc/pic32mx/4.8.3/../../../../pic32mx/lib/libc.a(fgetc.o)
 .reginfo       0x00000000       0x18 /Applications/microchip/xc32/v2.15/bin/bin/../../lib/gcc/pic32mx/4.8.3/../../../../pic32mx/lib/libc.a(fgetc.o)
 .text          0x00000000        0x0 /Applications/microchip/xc32/v2.15/bin/bin/../../lib/gcc/pic32mx/4.8.3/../../../../pic32mx/lib/libc.a(_fputc_simple.o)
 .data          0x00000000        0x0 /Applications/microchip/xc32/v2.15/bin/bin/../../lib/gcc/pic32mx/4.8.3/../../../../pic32mx/lib/libc.a(_fputc_simple.o)
 .bss           0x00000000        0x0 /Applications/microchip/xc32/v2.15/bin/bin/../../lib/gcc/pic32mx/4.8.3/../../../../pic32mx/lib/libc.a(_fputc_simple.o)
 .reginfo       0x00000000       0x18 /Applications/microchip/xc32/v2.15/bin/bin/../../lib/gcc/pic32mx/4.8.3/../../../../pic32mx/lib/libc.a(_fputc_simple.o)
 .text          0x00000000        0x0 /Applications/microchip/xc32/v2.15/bin/bin/../../lib/gcc/pic32mx/4.8.3/../../../../pic32mx/lib/libc.a(atoi.o)
 .data          0x00000000        0x0 /Applications/microchip/xc32/v2.15/bin/bin/../../lib/gcc/pic32mx/4.8.3/../../../../pic32mx/lib/libc.a(atoi.o)
 .bss           0x00000000        0x0 /Applications/microchip/xc32/v2.15/bin/bin/../../lib/gcc/pic32mx/4.8.3/../../../../pic32mx/lib/libc.a(atoi.o)
 .reginfo       0x00000000       0x18 /Applications/microchip/xc32/v2.15/bin/bin/../../lib/gcc/pic32mx/4.8.3/../../../../pic32mx/lib/libc.a(atoi.o)
 .text          0x00000000        0x0 /Applications/microchip/xc32/v2.15/bin/bin/../../lib/gcc/pic32mx/4.8.3/../../../../pic32mx/lib/libc.a(ldpowers.o)
 .data          0x00000000        0x0 /Applications/microchip/xc32/v2.15/bin/bin/../../lib/gcc/pic32mx/4.8.3/../../../../pic32mx/lib/libc.a(ldpowers.o)
 .bss           0x00000000        0x0 /Applications/microchip/xc32/v2.15/bin/bin/../../lib/gcc/pic32mx/4.8.3/../../../../pic32mx/lib/libc.a(ldpowers.o)
 .reginfo       0x00000000       0x18 /Applications/microchip/xc32/v2.15/bin/bin/../../lib/gcc/pic32mx/4.8.3/../../../../pic32mx/lib/libc.a(ldpowers.o)
 .text          0x00000000        0x0 /Applications/microchip/xc32/v2.15/bin/bin/../../lib/gcc/pic32mx/4.8.3/../../../../pic32mx/lib/libc.a(strtof.o)
 .data          0x00000000        0x0 /Applications/microchip/xc32/v2.15/bin/bin/../../lib/gcc/pic32mx/4.8.3/../../../../pic32mx/lib/libc.a(strtof.o)
 .bss           0x00000000        0x0 /Applications/microchip/xc32/v2.15/bin/bin/../../lib/gcc/pic32mx/4.8.3/../../../../pic32mx/lib/libc.a(strtof.o)
 .reginfo       0x00000000       0x18 /Applications/microchip/xc32/v2.15/bin/bin/../../lib/gcc/pic32mx/4.8.3/../../../../pic32mx/lib/libc.a(strtof.o)
 .text.strtodf  0x00000000       0x1c /Applications/microchip/xc32/v2.15/bin/bin/../../lib/gcc/pic32mx/4.8.3/../../../../pic32mx/lib/libc.a(strtof.o)
 .text          0x00000000        0x0 /Applications/microchip/xc32/v2.15/bin/bin/../../lib/gcc/pic32mx/4.8.3/../../../../pic32mx/lib/libc.a(ungetc.o)
 .data          0x00000000        0x0 /Applications/microchip/xc32/v2.15/bin/bin/../../lib/gcc/pic32mx/4.8.3/../../../../pic32mx/lib/libc.a(ungetc.o)
 .bss           0x00000000        0x0 /Applications/microchip/xc32/v2.15/bin/bin/../../lib/gcc/pic32mx/4.8.3/../../../../pic32mx/lib/libc.a(ungetc.o)
 .reginfo       0x00000000       0x18 /Applications/microchip/xc32/v2.15/bin/bin/../../lib/gcc/pic32mx/4.8.3/../../../../pic32mx/lib/libc.a(ungetc.o)
 .text          0x00000000        0x0 /Applications/microchip/xc32/v2.15/bin/bin/../../lib/gcc/pic32mx/4.8.3/../../../../pic32mx/lib/libc.a(_iob.o)
 .reginfo       0x00000000       0x18 /Applications/microchip/xc32/v2.15/bin/bin/../../lib/gcc/pic32mx/4.8.3/../../../../pic32mx/lib/libc.a(_iob.o)
 .text          0x00000000        0x0 /Applications/microchip/xc32/v2.15/bin/bin/../../lib/gcc/pic32mx/4.8.3/../../../../pic32mx/lib/libc.a(filbuf.o)
 .data          0x00000000        0x0 /Applications/microchip/xc32/v2.15/bin/bin/../../lib/gcc/pic32mx/4.8.3/../../../../pic32mx/lib/libc.a(filbuf.o)
 .bss           0x00000000        0x0 /Applications/microchip/xc32/v2.15/bin/bin/../../lib/gcc/pic32mx/4.8.3/../../../../pic32mx/lib/libc.a(filbuf.o)
 .reginfo       0x00000000       0x18 /Applications/microchip/xc32/v2.15/bin/bin/../../lib/gcc/pic32mx/4.8.3/../../../../pic32mx/lib/libc.a(filbuf.o)
 .text          0x00000000        0x0 /Applications/microchip/xc32/v2.15/bin/bin/../../lib/gcc/pic32mx/4.8.3/../../../../pic32mx/lib/libc.a(_flsbuf_simple.o)
 .data          0x00000000        0x0 /Applications/microchip/xc32/v2.15/bin/bin/../../lib/gcc/pic32mx/4.8.3/../../../../pic32mx/lib/libc.a(_flsbuf_simple.o)
 .bss           0x00000000        0x0 /Applications/microchip/xc32/v2.15/bin/bin/../../lib/gcc/pic32mx/4.8.3/../../../../pic32mx/lib/libc.a(_flsbuf_simple.o)
 .reginfo       0x00000000       0x18 /Applications/microchip/xc32/v2.15/bin/bin/../../lib/gcc/pic32mx/4.8.3/../../../../pic32mx/lib/libc.a(_flsbuf_simple.o)
 .text          0x00000000        0x0 /Applications/microchip/xc32/v2.15/bin/bin/../../lib/gcc/pic32mx/4.8.3/../../../../pic32mx/lib/libc.a(fflush.o)
 .data          0x00000000        0x0 /Applications/microchip/xc32/v2.15/bin/bin/../../lib/gcc/pic32mx/4.8.3/../../../../pic32mx/lib/libc.a(fflush.o)
 .bss           0x00000000        0x0 /Applications/microchip/xc32/v2.15/bin/bin/../../lib/gcc/pic32mx/4.8.3/../../../../pic32mx/lib/libc.a(fflush.o)
 .reginfo       0x00000000       0x18 /Applications/microchip/xc32/v2.15/bin/bin/../../lib/gcc/pic32mx/4.8.3/../../../../pic32mx/lib/libc.a(fflush.o)
 .text          0x00000000        0x0 /Applications/microchip/xc32/v2.15/bin/bin/../../lib/gcc/pic32mx/4.8.3/../../../../pic32mx/lib/libm.a(dpfrexp.o)
 .data          0x00000000        0x0 /Applications/microchip/xc32/v2.15/bin/bin/../../lib/gcc/pic32mx/4.8.3/../../../../pic32mx/lib/libm.a(dpfrexp.o)
 .bss           0x00000000        0x0 /Applications/microchip/xc32/v2.15/bin/bin/../../lib/gcc/pic32mx/4.8.3/../../../../pic32mx/lib/libm.a(dpfrexp.o)
 .reginfo       0x00000000       0x18 /Applications/microchip/xc32/v2.15/bin/bin/../../lib/gcc/pic32mx/4.8.3/../../../../pic32mx/lib/libm.a(dpfrexp.o)
 .text          0x00000000        0x0 /Applications/microchip/xc32/v2.15/bin/bin/../../lib/gcc/pic32mx/4.8.3/../../../../pic32mx/lib/libm.a(dp32div.o)
 .data          0x00000000        0x0 /Applications/microchip/xc32/v2.15/bin/bin/../../lib/gcc/pic32mx/4.8.3/../../../../pic32mx/lib/libm.a(dp32div.o)
 .bss           0x00000000        0x0 /Applications/microchip/xc32/v2.15/bin/bin/../../lib/gcc/pic32mx/4.8.3/../../../../pic32mx/lib/libm.a(dp32div.o)
 .reginfo       0x00000000       0x18 /Applications/microchip/xc32/v2.15/bin/bin/../../lib/gcc/pic32mx/4.8.3/../../../../pic32mx/lib/libm.a(dp32div.o)
 .text          0x00000000        0x0 /Applications/microchip/xc32/v2.15/bin/bin/../../lib/gcc/pic32mx/4.8.3/../../../../pic32mx/lib/libm.a(dp32mul.o)
 .data          0x00000000        0x0 /Applications/microchip/xc32/v2.15/bin/bin/../../lib/gcc/pic32mx/4.8.3/../../../../pic32mx/lib/libm.a(dp32mul.o)
 .bss           0x00000000        0x0 /Applications/microchip/xc32/v2.15/bin/bin/../../lib/gcc/pic32mx/4.8.3/../../../../pic32mx/lib/libm.a(dp32mul.o)
 .reginfo       0x00000000       0x18 /Applications/microchip/xc32/v2.15/bin/bin/../../lib/gcc/pic32mx/4.8.3/../../../../pic32mx/lib/libm.a(dp32mul.o)
 .text          0x00000000        0x0 /Applications/microchip/xc32/v2.15/bin/bin/../../lib/gcc/pic32mx/4.8.3/../../../../pic32mx/lib/libm.a(dp32subadd.o)
 .data          0x00000000        0x0 /Applications/microchip/xc32/v2.15/bin/bin/../../lib/gcc/pic32mx/4.8.3/../../../../pic32mx/lib/libm.a(dp32subadd.o)
 .bss           0x00000000        0x0 /Applications/microchip/xc32/v2.15/bin/bin/../../lib/gcc/pic32mx/4.8.3/../../../../pic32mx/lib/libm.a(dp32subadd.o)
 .reginfo       0x00000000       0x18 /Applications/microchip/xc32/v2.15/bin/bin/../../lib/gcc/pic32mx/4.8.3/../../../../pic32mx/lib/libm.a(dp32subadd.o)
 .text          0x00000000        0x0 /Applications/microchip/xc32/v2.15/bin/bin/../../lib/gcc/pic32mx/4.8.3/../../../../pic32mx/lib/libm.a(dpcmp.o)
 .data          0x00000000        0x0 /Applications/microchip/xc32/v2.15/bin/bin/../../lib/gcc/pic32mx/4.8.3/../../../../pic32mx/lib/libm.a(dpcmp.o)
 .bss           0x00000000        0x0 /Applications/microchip/xc32/v2.15/bin/bin/../../lib/gcc/pic32mx/4.8.3/../../../../pic32mx/lib/libm.a(dpcmp.o)
 .reginfo       0x00000000       0x18 /Applications/microchip/xc32/v2.15/bin/bin/../../lib/gcc/pic32mx/4.8.3/../../../../pic32mx/lib/libm.a(dpcmp.o)
 .text          0x00000000        0x0 /Applications/microchip/xc32/v2.15/bin/bin/../../lib/gcc/pic32mx/4.8.3/../../../../pic32mx/lib/libm.a(dptofp.o)
 .data          0x00000000        0x0 /Applications/microchip/xc32/v2.15/bin/bin/../../lib/gcc/pic32mx/4.8.3/../../../../pic32mx/lib/libm.a(dptofp.o)
 .bss           0x00000000        0x0 /Applications/microchip/xc32/v2.15/bin/bin/../../lib/gcc/pic32mx/4.8.3/../../../../pic32mx/lib/libm.a(dptofp.o)
 .reginfo       0x00000000       0x18 /Applications/microchip/xc32/v2.15/bin/bin/../../lib/gcc/pic32mx/4.8.3/../../../../pic32mx/lib/libm.a(dptofp.o)
 .text          0x00000000        0x0 /Applications/microchip/xc32/v2.15/bin/bin/../../lib/gcc/pic32mx/4.8.3/../../../../pic32mx/lib/libm.a(dptoul.o)
 .data          0x00000000        0x0 /Applications/microchip/xc32/v2.15/bin/bin/../../lib/gcc/pic32mx/4.8.3/../../../../pic32mx/lib/libm.a(dptoul.o)
 .bss           0x00000000        0x0 /Applications/microchip/xc32/v2.15/bin/bin/../../lib/gcc/pic32mx/4.8.3/../../../../pic32mx/lib/libm.a(dptoul.o)
 .reginfo       0x00000000       0x18 /Applications/microchip/xc32/v2.15/bin/bin/../../lib/gcc/pic32mx/4.8.3/../../../../pic32mx/lib/libm.a(dptoul.o)
 .text          0x00000000        0x0 /Applications/microchip/xc32/v2.15/bin/bin/../../lib/gcc/pic32mx/4.8.3/../../../../pic32mx/lib/libm.a(fp32mul.o)
 .data          0x00000000        0x0 /Applications/microchip/xc32/v2.15/bin/bin/../../lib/gcc/pic32mx/4.8.3/../../../../pic32mx/lib/libm.a(fp32mul.o)
 .bss           0x00000000        0x0 /Applications/microchip/xc32/v2.15/bin/bin/../../lib/gcc/pic32mx/4.8.3/../../../../pic32mx/lib/libm.a(fp32mul.o)
 .reginfo       0x00000000       0x18 /Applications/microchip/xc32/v2.15/bin/bin/../../lib/gcc/pic32mx/4.8.3/../../../../pic32mx/lib/libm.a(fp32mul.o)
 .text          0x00000000        0x0 /Applications/microchip/xc32/v2.15/bin/bin/../../lib/gcc/pic32mx/4.8.3/../../../../pic32mx/lib/libm.a(fp32subadd.o)
 .data          0x00000000        0x0 /Applications/microchip/xc32/v2.15/bin/bin/../../lib/gcc/pic32mx/4.8.3/../../../../pic32mx/lib/libm.a(fp32subadd.o)
 .bss           0x00000000        0x0 /Applications/microchip/xc32/v2.15/bin/bin/../../lib/gcc/pic32mx/4.8.3/../../../../pic32mx/lib/libm.a(fp32subadd.o)
 .reginfo       0x00000000       0x18 /Applications/microchip/xc32/v2.15/bin/bin/../../lib/gcc/pic32mx/4.8.3/../../../../pic32mx/lib/libm.a(fp32subadd.o)
 .text          0x00000000        0x0 /Applications/microchip/xc32/v2.15/bin/bin/../../lib/gcc/pic32mx/4.8.3/../../../../pic32mx/lib/libm.a(fpcmp.o)
 .data          0x00000000        0x0 /Applications/microchip/xc32/v2.15/bin/bin/../../lib/gcc/pic32mx/4.8.3/../../../../pic32mx/lib/libm.a(fpcmp.o)
 .bss           0x00000000        0x0 /Applications/microchip/xc32/v2.15/bin/bin/../../lib/gcc/pic32mx/4.8.3/../../../../pic32mx/lib/libm.a(fpcmp.o)
 .reginfo       0x00000000       0x18 /Applications/microchip/xc32/v2.15/bin/bin/../../lib/gcc/pic32mx/4.8.3/../../../../pic32mx/lib/libm.a(fpcmp.o)
 .text          0x00000000        0x0 /Applications/microchip/xc32/v2.15/bin/bin/../../lib/gcc/pic32mx/4.8.3/../../../../pic32mx/lib/libm.a(fptodp.o)
 .data          0x00000000        0x0 /Applications/microchip/xc32/v2.15/bin/bin/../../lib/gcc/pic32mx/4.8.3/../../../../pic32mx/lib/libm.a(fptodp.o)
 .bss           0x00000000        0x0 /Applications/microchip/xc32/v2.15/bin/bin/../../lib/gcc/pic32mx/4.8.3/../../../../pic32mx/lib/libm.a(fptodp.o)
 .reginfo       0x00000000       0x18 /Applications/microchip/xc32/v2.15/bin/bin/../../lib/gcc/pic32mx/4.8.3/../../../../pic32mx/lib/libm.a(fptodp.o)
 .text          0x00000000        0x0 /Applications/microchip/xc32/v2.15/bin/bin/../../lib/gcc/pic32mx/4.8.3/../../../../pic32mx/lib/libm.a(fptoli.o)
 .data          0x00000000        0x0 /Applications/microchip/xc32/v2.15/bin/bin/../../lib/gcc/pic32mx/4.8.3/../../../../pic32mx/lib/libm.a(fptoli.o)
 .bss           0x00000000        0x0 /Applications/microchip/xc32/v2.15/bin/bin/../../lib/gcc/pic32mx/4.8.3/../../../../pic32mx/lib/libm.a(fptoli.o)
 .reginfo       0x00000000       0x18 /Applications/microchip/xc32/v2.15/bin/bin/../../lib/gcc/pic32mx/4.8.3/../../../../pic32mx/lib/libm.a(fptoli.o)
 .text          0x00000000        0x0 /Applications/microchip/xc32/v2.15/bin/bin/../../lib/gcc/pic32mx/4.8.3/../../../../pic32mx/lib/libm.a(sitofp.o)
 .data          0x00000000        0x0 /Applications/microchip/xc32/v2.15/bin/bin/../../lib/gcc/pic32mx/4.8.3/../../../../pic32mx/lib/libm.a(sitofp.o)
 .bss           0x00000000        0x0 /Applications/microchip/xc32/v2.15/bin/bin/../../lib/gcc/pic32mx/4.8.3/../../../../pic32mx/lib/libm.a(sitofp.o)
 .reginfo       0x00000000       0x18 /Applications/microchip/xc32/v2.15/bin/bin/../../lib/gcc/pic32mx/4.8.3/../../../../pic32mx/lib/libm.a(sitofp.o)
 .text          0x00000000        0x0 /Applications/microchip/xc32/v2.15/bin/bin/../../lib/gcc/pic32mx/4.8.3/../../../../pic32mx/lib/libm.a(w_powf.o)
 .data          0x00000000        0x0 /Applications/microchip/xc32/v2.15/bin/bin/../../lib/gcc/pic32mx/4.8.3/../../../../pic32mx/lib/libm.a(w_powf.o)
 .bss           0x00000000        0x0 /Applications/microchip/xc32/v2.15/bin/bin/../../lib/gcc/pic32mx/4.8.3/../../../../pic32mx/lib/libm.a(w_powf.o)
 .reginfo       0x00000000       0x18 /Applications/microchip/xc32/v2.15/bin/bin/../../lib/gcc/pic32mx/4.8.3/../../../../pic32mx/lib/libm.a(w_powf.o)
 .text          0x00000000        0x0 /Applications/microchip/xc32/v2.15/bin/bin/../../lib/gcc/pic32mx/4.8.3/../../../../pic32mx/lib/libm.a(__strtod.o)
 .data          0x00000000        0x0 /Applications/microchip/xc32/v2.15/bin/bin/../../lib/gcc/pic32mx/4.8.3/../../../../pic32mx/lib/libm.a(__strtod.o)
 .bss           0x00000000        0x0 /Applications/microchip/xc32/v2.15/bin/bin/../../lib/gcc/pic32mx/4.8.3/../../../../pic32mx/lib/libm.a(__strtod.o)
 .reginfo       0x00000000       0x18 /Applications/microchip/xc32/v2.15/bin/bin/../../lib/gcc/pic32mx/4.8.3/../../../../pic32mx/lib/libm.a(__strtod.o)
 .text          0x00000000        0x0 /Applications/microchip/xc32/v2.15/bin/bin/../../lib/gcc/pic32mx/4.8.3/../../../../pic32mx/lib/libm.a(__strtof.o)
 .data          0x00000000        0x0 /Applications/microchip/xc32/v2.15/bin/bin/../../lib/gcc/pic32mx/4.8.3/../../../../pic32mx/lib/libm.a(__strtof.o)
 .bss           0x00000000        0x0 /Applications/microchip/xc32/v2.15/bin/bin/../../lib/gcc/pic32mx/4.8.3/../../../../pic32mx/lib/libm.a(__strtof.o)
 .reginfo       0x00000000       0x18 /Applications/microchip/xc32/v2.15/bin/bin/../../lib/gcc/pic32mx/4.8.3/../../../../pic32mx/lib/libm.a(__strtof.o)
 .text          0x00000000        0x0 /Applications/microchip/xc32/v2.15/bin/bin/../../lib/gcc/pic32mx/4.8.3/../../../../pic32mx/lib/libm.a(fp32div.o)
 .data          0x00000000        0x0 /Applications/microchip/xc32/v2.15/bin/bin/../../lib/gcc/pic32mx/4.8.3/../../../../pic32mx/lib/libm.a(fp32div.o)
 .bss           0x00000000        0x0 /Applications/microchip/xc32/v2.15/bin/bin/../../lib/gcc/pic32mx/4.8.3/../../../../pic32mx/lib/libm.a(fp32div.o)
 .reginfo       0x00000000       0x18 /Applications/microchip/xc32/v2.15/bin/bin/../../lib/gcc/pic32mx/4.8.3/../../../../pic32mx/lib/libm.a(fp32div.o)
 .text          0x00000000        0x0 /Applications/microchip/xc32/v2.15/bin/bin/../../lib/gcc/pic32mx/4.8.3/../../../../pic32mx/lib/libm.a(fpmodf.o)
 .data          0x00000000        0x0 /Applications/microchip/xc32/v2.15/bin/bin/../../lib/gcc/pic32mx/4.8.3/../../../../pic32mx/lib/libm.a(fpmodf.o)
 .bss           0x00000000        0x0 /Applications/microchip/xc32/v2.15/bin/bin/../../lib/gcc/pic32mx/4.8.3/../../../../pic32mx/lib/libm.a(fpmodf.o)
 .reginfo       0x00000000       0x18 /Applications/microchip/xc32/v2.15/bin/bin/../../lib/gcc/pic32mx/4.8.3/../../../../pic32mx/lib/libm.a(fpmodf.o)
 .text          0x00000000        0x0 /Applications/microchip/xc32/v2.15/bin/bin/../../lib/gcc/pic32mx/4.8.3/../../../../pic32mx/lib/libm.a(fppow32.o)
 .data          0x00000000        0x0 /Applications/microchip/xc32/v2.15/bin/bin/../../lib/gcc/pic32mx/4.8.3/../../../../pic32mx/lib/libm.a(fppow32.o)
 .bss           0x00000000        0x0 /Applications/microchip/xc32/v2.15/bin/bin/../../lib/gcc/pic32mx/4.8.3/../../../../pic32mx/lib/libm.a(fppow32.o)
 .reginfo       0x00000000       0x18 /Applications/microchip/xc32/v2.15/bin/bin/../../lib/gcc/pic32mx/4.8.3/../../../../pic32mx/lib/libm.a(fppow32.o)
 .text          0x00000000        0x0 /Applications/microchip/xc32/v2.15/bin/bin/../../lib/gcc/pic32mx/4.8.3/../../../../pic32mx/lib/libm.a(litodp.o)
 .data          0x00000000        0x0 /Applications/microchip/xc32/v2.15/bin/bin/../../lib/gcc/pic32mx/4.8.3/../../../../pic32mx/lib/libm.a(litodp.o)
 .bss           0x00000000        0x0 /Applications/microchip/xc32/v2.15/bin/bin/../../lib/gcc/pic32mx/4.8.3/../../../../pic32mx/lib/libm.a(litodp.o)
 .reginfo       0x00000000       0x18 /Applications/microchip/xc32/v2.15/bin/bin/../../lib/gcc/pic32mx/4.8.3/../../../../pic32mx/lib/libm.a(litodp.o)
 .text          0x00000000        0x0 /Applications/microchip/xc32/v2.15/bin/bin/../../lib/gcc/pic32mx/4.8.3/../../../../pic32mx/lib/libm.a(negdf2.o)
 .data          0x00000000        0x0 /Applications/microchip/xc32/v2.15/bin/bin/../../lib/gcc/pic32mx/4.8.3/../../../../pic32mx/lib/libm.a(negdf2.o)
 .bss           0x00000000        0x0 /Applications/microchip/xc32/v2.15/bin/bin/../../lib/gcc/pic32mx/4.8.3/../../../../pic32mx/lib/libm.a(negdf2.o)
 .reginfo       0x00000000       0x18 /Applications/microchip/xc32/v2.15/bin/bin/../../lib/gcc/pic32mx/4.8.3/../../../../pic32mx/lib/libm.a(negdf2.o)
 .text          0x00000000        0x0 /Applications/microchip/xc32/v2.15/bin/bin/../../lib/gcc/pic32mx/4.8.3/../../../../pic32mx/lib/libm.a(negsf2.o)
 .data          0x00000000        0x0 /Applications/microchip/xc32/v2.15/bin/bin/../../lib/gcc/pic32mx/4.8.3/../../../../pic32mx/lib/libm.a(negsf2.o)
 .bss           0x00000000        0x0 /Applications/microchip/xc32/v2.15/bin/bin/../../lib/gcc/pic32mx/4.8.3/../../../../pic32mx/lib/libm.a(negsf2.o)
 .reginfo       0x00000000       0x18 /Applications/microchip/xc32/v2.15/bin/bin/../../lib/gcc/pic32mx/4.8.3/../../../../pic32mx/lib/libm.a(negsf2.o)
 .text          0x00000000        0x0 /Applications/microchip/xc32/v2.15/bin/bin/../../lib/gcc/pic32mx/4.8.3/../../../../pic32mx/lib/libm.a(s_lib_ver.o)
 .data          0x00000000        0x0 /Applications/microchip/xc32/v2.15/bin/bin/../../lib/gcc/pic32mx/4.8.3/../../../../pic32mx/lib/libm.a(s_lib_ver.o)
 .bss           0x00000000        0x0 /Applications/microchip/xc32/v2.15/bin/bin/../../lib/gcc/pic32mx/4.8.3/../../../../pic32mx/lib/libm.a(s_lib_ver.o)
 .reginfo       0x00000000       0x18 /Applications/microchip/xc32/v2.15/bin/bin/../../lib/gcc/pic32mx/4.8.3/../../../../pic32mx/lib/libm.a(s_lib_ver.o)
 .text          0x00000000        0x0 /Applications/microchip/xc32/v2.15/bin/bin/../../lib/gcc/pic32mx/4.8.3/../../../../pic32mx/lib/libm.a(fpexlog.o)
 .bss           0x00000000        0x0 /Applications/microchip/xc32/v2.15/bin/bin/../../lib/gcc/pic32mx/4.8.3/../../../../pic32mx/lib/libm.a(fpexlog.o)
 .reginfo       0x00000000       0x18 /Applications/microchip/xc32/v2.15/bin/bin/../../lib/gcc/pic32mx/4.8.3/../../../../pic32mx/lib/libm.a(fpexlog.o)
 .bss           0x00000000        0x0 /Applications/microchip/xc32/v2.15/bin/bin/../../lib/gcc/pic32mx/4.8.3/../../../../pic32mx/lib/libm.a(fpexp32.o)
 .reginfo       0x00000000       0x18 /Applications/microchip/xc32/v2.15/bin/bin/../../lib/gcc/pic32mx/4.8.3/../../../../pic32mx/lib/libm.a(fpexp32.o)
 .text.libm     0x00000000        0x0 /Applications/microchip/xc32/v2.15/bin/bin/../../lib/gcc/pic32mx/4.8.3/../../../../pic32mx/lib/libm.a(fpexp32.o)
 .text          0x00000000        0x0 /Applications/microchip/xc32/v2.15/bin/bin/../../lib/gcc/pic32mx/4.8.3/../../../../pic32mx/lib/libe.a(_fixunsdfdi.o)
 .data          0x00000000        0x0 /Applications/microchip/xc32/v2.15/bin/bin/../../lib/gcc/pic32mx/4.8.3/../../../../pic32mx/lib/libe.a(_fixunsdfdi.o)
 .bss           0x00000000        0x0 /Applications/microchip/xc32/v2.15/bin/bin/../../lib/gcc/pic32mx/4.8.3/../../../../pic32mx/lib/libe.a(_fixunsdfdi.o)
 .reginfo       0x00000000       0x18 /Applications/microchip/xc32/v2.15/bin/bin/../../lib/gcc/pic32mx/4.8.3/../../../../pic32mx/lib/libe.a(_fixunsdfdi.o)
 .text          0x00000000        0x0 /Applications/microchip/xc32/v2.15/bin/bin/../../lib/gcc/pic32mx/4.8.3/../../../../pic32mx/lib/libe.a(_orderdf2.o)
 .data          0x00000000        0x0 /Applications/microchip/xc32/v2.15/bin/bin/../../lib/gcc/pic32mx/4.8.3/../../../../pic32mx/lib/libe.a(_orderdf2.o)
 .bss           0x00000000        0x0 /Applications/microchip/xc32/v2.15/bin/bin/../../lib/gcc/pic32mx/4.8.3/../../../../pic32mx/lib/libe.a(_orderdf2.o)
 .reginfo       0x00000000       0x18 /Applications/microchip/xc32/v2.15/bin/bin/../../lib/gcc/pic32mx/4.8.3/../../../../pic32mx/lib/libe.a(_orderdf2.o)
 .text          0x00000000        0x0 /Applications/microchip/xc32/v2.15/bin/bin/../../lib/gcc/pic32mx/4.8.3/../../../../pic32mx/lib/libe.a(_ldexp.o)
 .data          0x00000000        0x0 /Applications/microchip/xc32/v2.15/bin/bin/../../lib/gcc/pic32mx/4.8.3/../../../../pic32mx/lib/libe.a(_ldexp.o)
 .bss           0x00000000        0x0 /Applications/microchip/xc32/v2.15/bin/bin/../../lib/gcc/pic32mx/4.8.3/../../../../pic32mx/lib/libe.a(_ldexp.o)
 .reginfo       0x00000000       0x18 /Applications/microchip/xc32/v2.15/bin/bin/../../lib/gcc/pic32mx/4.8.3/../../../../pic32mx/lib/libe.a(_ldexp.o)
 .text          0x00000000        0x0 /Applications/microchip/xc32/v2.15/bin/bin/../../lib/gcc/pic32mx/4.8.3/../../../../pic32mx/lib/libe.a(_ldexpf.o)
 .data          0x00000000        0x0 /Applications/microchip/xc32/v2.15/bin/bin/../../lib/gcc/pic32mx/4.8.3/../../../../pic32mx/lib/libe.a(_ldexpf.o)
 .bss           0x00000000        0x0 /Applications/microchip/xc32/v2.15/bin/bin/../../lib/gcc/pic32mx/4.8.3/../../../../pic32mx/lib/libe.a(_ldexpf.o)
 .reginfo       0x00000000       0x18 /Applications/microchip/xc32/v2.15/bin/bin/../../lib/gcc/pic32mx/4.8.3/../../../../pic32mx/lib/libe.a(_ldexpf.o)
 .text          0x00000000        0x0 /Applications/microchip/xc32/v2.15/bin/bin/../../lib/gcc/pic32mx/4.8.3/../../../../pic32mx/lib/libe.a(_fixdfdi.o)
 .data          0x00000000        0x0 /Applications/microchip/xc32/v2.15/bin/bin/../../lib/gcc/pic32mx/4.8.3/../../../../pic32mx/lib/libe.a(_fixdfdi.o)
 .bss           0x00000000        0x0 /Applications/microchip/xc32/v2.15/bin/bin/../../lib/gcc/pic32mx/4.8.3/../../../../pic32mx/lib/libe.a(_fixdfdi.o)
 .reginfo       0x00000000       0x18 /Applications/microchip/xc32/v2.15/bin/bin/../../lib/gcc/pic32mx/4.8.3/../../../../pic32mx/lib/libe.a(_fixdfdi.o)
 .data          0x00000000        0x0 /Applications/microchip/xc32/v2.15/bin/bin/../../lib/gcc/pic32mx/4.8.3/libgcc.a(_lshrdi3.o)
 .bss           0x00000000        0x0 /Applications/microchip/xc32/v2.15/bin/bin/../../lib/gcc/pic32mx/4.8.3/libgcc.a(_lshrdi3.o)
 .reginfo       0x00000000       0x18 /Applications/microchip/xc32/v2.15/bin/bin/../../lib/gcc/pic32mx/4.8.3/libgcc.a(_lshrdi3.o)
 .data          0x00000000        0x0 /Applications/microchip/xc32/v2.15/bin/bin/../../lib/gcc/pic32mx/4.8.3/libgcc.a(_ashldi3.o)
 .bss           0x00000000        0x0 /Applications/microchip/xc32/v2.15/bin/bin/../../lib/gcc/pic32mx/4.8.3/libgcc.a(_ashldi3.o)
 .reginfo       0x00000000       0x18 /Applications/microchip/xc32/v2.15/bin/bin/../../lib/gcc/pic32mx/4.8.3/libgcc.a(_ashldi3.o)
 .data          0x00000000        0x0 /Applications/microchip/xc32/v2.15/bin/bin/../../lib/gcc/pic32mx/4.8.3/libgcc.a(_floatundidf.o)
 .bss           0x00000000        0x0 /Applications/microchip/xc32/v2.15/bin/bin/../../lib/gcc/pic32mx/4.8.3/libgcc.a(_floatundidf.o)
 .reginfo       0x00000000       0x18 /Applications/microchip/xc32/v2.15/bin/bin/../../lib/gcc/pic32mx/4.8.3/libgcc.a(_floatundidf.o)
 .data          0x00000000        0x0 /Applications/microchip/xc32/v2.15/bin/bin/../../lib/gcc/pic32mx/4.8.3/libgcc.a(_udivdi3.o)
 .bss           0x00000000        0x0 /Applications/microchip/xc32/v2.15/bin/bin/../../lib/gcc/pic32mx/4.8.3/libgcc.a(_udivdi3.o)
 .reginfo       0x00000000       0x18 /Applications/microchip/xc32/v2.15/bin/bin/../../lib/gcc/pic32mx/4.8.3/libgcc.a(_udivdi3.o)
 .data          0x00000000        0x0 /Applications/microchip/xc32/v2.15/bin/bin/../../lib/gcc/pic32mx/4.8.3/libgcc.a(_umoddi3.o)
 .bss           0x00000000        0x0 /Applications/microchip/xc32/v2.15/bin/bin/../../lib/gcc/pic32mx/4.8.3/libgcc.a(_umoddi3.o)
 .reginfo       0x00000000       0x18 /Applications/microchip/xc32/v2.15/bin/bin/../../lib/gcc/pic32mx/4.8.3/libgcc.a(_umoddi3.o)
 .data          0x00000000        0x0 /Applications/microchip/xc32/v2.15/bin/bin/../../lib/gcc/pic32mx/4.8.3/libgcc.a(floatunsidf.o)
 .bss           0x00000000        0x0 /Applications/microchip/xc32/v2.15/bin/bin/../../lib/gcc/pic32mx/4.8.3/libgcc.a(floatunsidf.o)
 .reginfo       0x00000000       0x18 /Applications/microchip/xc32/v2.15/bin/bin/../../lib/gcc/pic32mx/4.8.3/libgcc.a(floatunsidf.o)
 .text          0x00000000        0x0 /Applications/microchip/xc32/v2.15/bin/bin/../../lib/gcc/pic32mx/4.8.3/../../../../pic32mx/lib/libpic32.a(sbrk.o)
 .data          0x00000000        0x0 /Applications/microchip/xc32/v2.15/bin/bin/../../lib/gcc/pic32mx/4.8.3/../../../../pic32mx/lib/libpic32.a(sbrk.o)
 .bss           0x00000000       0x24 /Applications/microchip/xc32/v2.15/bin/bin/../../lib/gcc/pic32mx/4.8.3/../../../../pic32mx/lib/libpic32.a(sbrk.o)
 .reginfo       0x00000000       0x18 /Applications/microchip/xc32/v2.15/bin/bin/../../lib/gcc/pic32mx/4.8.3/../../../../pic32mx/lib/libpic32.a(sbrk.o)
 .text.getpagesize
                0x00000000        0x8 /Applications/microchip/xc32/v2.15/bin/bin/../../lib/gcc/pic32mx/4.8.3/../../../../pic32mx/lib/libpic32.a(sbrk.o)
 .text._stub_sbd_memlayout
                0x00000000       0x2c /Applications/microchip/xc32/v2.15/bin/bin/../../lib/gcc/pic32mx/4.8.3/../../../../pic32mx/lib/libpic32.a(sbrk.o)
 .text._sbrk_init
                0x00000000      0x194 /Applications/microchip/xc32/v2.15/bin/bin/../../lib/gcc/pic32mx/4.8.3/../../../../pic32mx/lib/libpic32.a(sbrk.o)
 .text._sbrk    0x00000000       0xc8 /Applications/microchip/xc32/v2.15/bin/bin/../../lib/gcc/pic32mx/4.8.3/../../../../pic32mx/lib/libpic32.a(sbrk.o)
 .text.sbrk     0x00000000       0x50 /Applications/microchip/xc32/v2.15/bin/bin/../../lib/gcc/pic32mx/4.8.3/../../../../pic32mx/lib/libpic32.a(sbrk.o)
 .text          0x00000000        0x0 /Applications/microchip/xc32/v2.15/bin/bin/../../lib/gcc/pic32mx/4.8.3/../../../../pic32mx/lib/libpic32.a(read.o)
 .data          0x00000000        0x0 /Applications/microchip/xc32/v2.15/bin/bin/../../lib/gcc/pic32mx/4.8.3/../../../../pic32mx/lib/libpic32.a(read.o)
 .bss           0x00000000        0x0 /Applications/microchip/xc32/v2.15/bin/bin/../../lib/gcc/pic32mx/4.8.3/../../../../pic32mx/lib/libpic32.a(read.o)
 .reginfo       0x00000000       0x18 /Applications/microchip/xc32/v2.15/bin/bin/../../lib/gcc/pic32mx/4.8.3/../../../../pic32mx/lib/libpic32.a(read.o)
 .text          0x00000000        0x0 /Applications/microchip/xc32/v2.15/bin/bin/../../lib/gcc/pic32mx/4.8.3/../../../../pic32mx/lib/libpic32.a(write.o)
 .data          0x00000000        0x0 /Applications/microchip/xc32/v2.15/bin/bin/../../lib/gcc/pic32mx/4.8.3/../../../../pic32mx/lib/libpic32.a(write.o)
 .bss           0x00000000        0x0 /Applications/microchip/xc32/v2.15/bin/bin/../../lib/gcc/pic32mx/4.8.3/../../../../pic32mx/lib/libpic32.a(write.o)
 .reginfo       0x00000000       0x18 /Applications/microchip/xc32/v2.15/bin/bin/../../lib/gcc/pic32mx/4.8.3/../../../../pic32mx/lib/libpic32.a(write.o)
 .text          0x00000000        0x0 /Applications/microchip/xc32/v2.15/bin/bin/../../lib/gcc/pic32mx/4.8.3/../../../../pic32mx/lib/libpic32.a(xc32_uart.o)
 .data          0x00000000        0x0 /Applications/microchip/xc32/v2.15/bin/bin/../../lib/gcc/pic32mx/4.8.3/../../../../pic32mx/lib/libpic32.a(xc32_uart.o)
 .bss           0x00000000        0x0 /Applications/microchip/xc32/v2.15/bin/bin/../../lib/gcc/pic32mx/4.8.3/../../../../pic32mx/lib/libpic32.a(xc32_uart.o)
 .reginfo       0x00000000       0x18 /Applications/microchip/xc32/v2.15/bin/bin/../../lib/gcc/pic32mx/4.8.3/../../../../pic32mx/lib/libpic32.a(xc32_uart.o)
 .text          0x00000000        0x0 /Applications/microchip/xc32/v2.15/bin/bin/../../lib/gcc/pic32mx/4.8.3/../../../../pic32mx/lib/libpic32.a(errno.o)
 .data          0x00000000        0x0 /Applications/microchip/xc32/v2.15/bin/bin/../../lib/gcc/pic32mx/4.8.3/../../../../pic32mx/lib/libpic32.a(errno.o)
 .bss           0x00000000        0x0 /Applications/microchip/xc32/v2.15/bin/bin/../../lib/gcc/pic32mx/4.8.3/../../../../pic32mx/lib/libpic32.a(errno.o)
 .reginfo       0x00000000       0x18 /Applications/microchip/xc32/v2.15/bin/bin/../../lib/gcc/pic32mx/4.8.3/../../../../pic32mx/lib/libpic32.a(errno.o)
 .text          0x00000000        0x0 /Applications/microchip/xc32/v2.15/bin/bin/../../lib/gcc/pic32mx/4.8.3/../../../../pic32mx/lib/libpic32.a(isinf.o)
 .data          0x00000000        0x0 /Applications/microchip/xc32/v2.15/bin/bin/../../lib/gcc/pic32mx/4.8.3/../../../../pic32mx/lib/libpic32.a(isinf.o)
 .bss           0x00000000        0x0 /Applications/microchip/xc32/v2.15/bin/bin/../../lib/gcc/pic32mx/4.8.3/../../../../pic32mx/lib/libpic32.a(isinf.o)
 .reginfo       0x00000000       0x18 /Applications/microchip/xc32/v2.15/bin/bin/../../lib/gcc/pic32mx/4.8.3/../../../../pic32mx/lib/libpic32.a(isinf.o)
 .text.isnanl   0x00000000       0x28 /Applications/microchip/xc32/v2.15/bin/bin/../../lib/gcc/pic32mx/4.8.3/../../../../pic32mx/lib/libpic32.a(isinf.o)
 .text.isnan    0x00000000       0x34 /Applications/microchip/xc32/v2.15/bin/bin/../../lib/gcc/pic32mx/4.8.3/../../../../pic32mx/lib/libpic32.a(isinf.o)
 .text.isnanf   0x00000000       0x34 /Applications/microchip/xc32/v2.15/bin/bin/../../lib/gcc/pic32mx/4.8.3/../../../../pic32mx/lib/libpic32.a(isinf.o)
 .text.isinf    0x00000000       0x8c /Applications/microchip/xc32/v2.15/bin/bin/../../lib/gcc/pic32mx/4.8.3/../../../../pic32mx/lib/libpic32.a(isinf.o)
 .text.isinff   0x00000000       0x8c /Applications/microchip/xc32/v2.15/bin/bin/../../lib/gcc/pic32mx/4.8.3/../../../../pic32mx/lib/libpic32.a(isinf.o)
 .rodata        0x00000000        0x8 /Applications/microchip/xc32/v2.15/bin/bin/../../lib/gcc/pic32mx/4.8.3/../../../../pic32mx/lib/libpic32.a(isinf.o)
 .text          0x00000000        0x0 /Applications/microchip/xc32/v2.15/bin/bin/../../lib/gcc/pic32mx/4.8.3/../../../../pic32mx/lib/libpic32.a(_mon_putc.o)
 .data          0x00000000        0x0 /Applications/microchip/xc32/v2.15/bin/bin/../../lib/gcc/pic32mx/4.8.3/../../../../pic32mx/lib/libpic32.a(_mon_putc.o)
 .bss           0x00000000        0x0 /Applications/microchip/xc32/v2.15/bin/bin/../../lib/gcc/pic32mx/4.8.3/../../../../pic32mx/lib/libpic32.a(_mon_putc.o)
 .reginfo       0x00000000       0x18 /Applications/microchip/xc32/v2.15/bin/bin/../../lib/gcc/pic32mx/4.8.3/../../../../pic32mx/lib/libpic32.a(_mon_putc.o)
 .text          0x00000000        0x0 /Applications/microchip/xc32/v2.15/bin/bin/../../lib/gcc/pic32mx/4.8.3/../../../../pic32mx/lib/libe.a(_unorddf2.o)
 .data          0x00000000        0x0 /Applications/microchip/xc32/v2.15/bin/bin/../../lib/gcc/pic32mx/4.8.3/../../../../pic32mx/lib/libe.a(_unorddf2.o)
 .bss           0x00000000        0x0 /Applications/microchip/xc32/v2.15/bin/bin/../../lib/gcc/pic32mx/4.8.3/../../../../pic32mx/lib/libe.a(_unorddf2.o)
 .reginfo       0x00000000       0x18 /Applications/microchip/xc32/v2.15/bin/bin/../../lib/gcc/pic32mx/4.8.3/../../../../pic32mx/lib/libe.a(_unorddf2.o)
 .text.__unorddf2
                0x00000000       0x64 /Applications/microchip/xc32/v2.15/bin/bin/../../lib/gcc/pic32mx/4.8.3/../../../../pic32mx/lib/libe.a(_unorddf2.o)

Memory Configuration

Name             Origin             Length             Attributes
kseg0_program_mem 0x9d000000         0x00080000         xr
kseg0_boot_mem   0x9fc00490         0x00000970
exception_mem    0x9fc01000         0x00001000
kseg1_boot_mem   0xbfc00000         0x00000490
debug_exec_mem   0xbfc02000         0x00000ff0
config3          0xbfc02ff0         0x00000004
config2          0xbfc02ff4         0x00000004
config1          0xbfc02ff8         0x00000004
config0          0xbfc02ffc         0x00000004
kseg1_data_mem   0xa0000000         0x00020000         w !x
sfrs             0xbf800000         0x00100000
configsfrs       0xbfc02ff0         0x00000010
*default*        0x00000000         0xffffffff

Linker script and memory map

LOAD /Applications/microchip/xc32/v2.15/bin/bin/../../lib/gcc/pic32mx/4.8.3/../../../../pic32mx/lib/debug-exception-return.o
LOAD build/Board4/production/_ext/1210681131/drv_oc_mapping.o
LOAD build/Board4/production/_ext/1210681131/drv_oc_static.o
LOAD build/Board4/production/_ext/1612284866/drv_tmr_static.o
LOAD build/Board4/production/_ext/1612284866/drv_tmr_mapping.o
LOAD build/Board4/production/_ext/1303525714/drv_usart_mapping.o
LOAD build/Board4/production/_ext/1303525714/drv_usart_static.o
LOAD build/Board4/production/_ext/1303525714/drv_usart_static_byte_model.o
LOAD build/Board4/production/_ext/635635118/sys_clk_pic32mx.o
LOAD build/Board4/production/_ext/652723559/sys_devcon.o
LOAD build/Board4/production/_ext/652723559/sys_devcon_pic32mx.o
LOAD build/Board4/production/_ext/1842392706/sys_ports_static.o
LOAD build/Board4/production/_ext/1445490757/system_init.o
LOAD build/Board4/production/_ext/1445490757/system_interrupt.o
LOAD build/Board4/production/_ext/1445490757/system_exceptions.o
LOAD build/Board4/production/_ext/1445490757/system_tasks.o
LOAD build/Board4/production/_ext/1445490757/system_interrupt_a.o
LOAD build/Board4/production/_ext/1445490757/rtos_hooks.o
LOAD build/Board4/production/_ext/1360937237/motor_app.o
LOAD build/Board4/production/_ext/1360937237/wifi_app.o
LOAD build/Board4/production/_ext/1360937237/main.o
LOAD build/Board4/production/_ext/676718598/cJSON.o
LOAD build/Board4/production/_ext/676718598/debug.o
LOAD build/Board4/production/_ext/676718598/http.o
LOAD build/Board4/production/_ext/676718598/motor.o
LOAD build/Board4/production/_ext/676718598/motor_queue.o
LOAD build/Board4/production/_ext/676718598/motor_software_timer.o
LOAD build/Board4/production/_ext/676718598/motor_state.o
LOAD build/Board4/production/_ext/676718598/wifi_queue.o
LOAD build/Board4/production/_ext/676718598/wifi_state.o
LOAD build/Board4/production/_ext/676718598/wifi_timer.o
LOAD build/Board4/production/_ext/676718598/pixy2Func.o
LOAD build/Board4/production/_ext/676718598/pixy_app.o
LOAD build/Board4/production/_ext/676718598/pixy_queue.o
LOAD build/Board4/production/_ext/676718598/sensor_app.o
LOAD build/Board4/production/_ext/676718598/sensor_queue.o
LOAD build/Board4/production/_ext/676718598/sensor_state.o
LOAD build/Board4/production/_ext/1043444669/osal_freertos.o
LOAD build/Board4/production/_ext/249303043/sys_int_pic32.o
LOAD build/Board4/production/_ext/905643201/heap_2.o
LOAD build/Board4/production/_ext/331515796/port.o
LOAD build/Board4/production/_ext/331515796/port_asm.o
LOAD build/Board4/production/_ext/1539584926/croutine.o
LOAD build/Board4/production/_ext/1539584926/list.o
LOAD build/Board4/production/_ext/1539584926/queue.o
LOAD build/Board4/production/_ext/1539584926/tasks.o
LOAD build/Board4/production/_ext/1539584926/timers.o
LOAD build/Board4/production/_ext/1539584926/event_groups.o
LOAD build/Board4/production/_ext/1539584926/stream_buffer.o
LOAD ../../../../microchip/harmony/v2_06/bin/framework/peripheral/PIC32MX795F512L_peripherals.a
                0x00000001                __MPLAB_BUILD = 0x1
                0x00000000                _min_heap_size = 0x0
LOAD /var/folders/d5/v4194pgj4rldzq4h08l7349w0000gn/T//cc0qJCyj.o
LOAD /var/folders/d5/v4194pgj4rldzq4h08l7349w0000gn/T//cc8LIUYA.o
LOAD /var/folders/d5/v4194pgj4rldzq4h08l7349w0000gn/T//ccuGGR6u.o
LOAD /Applications/microchip/xc32/v2.15/bin/bin/../../lib/gcc/pic32mx/4.8.3/../../../../pic32mx/lib/./proc/32MX795F512L/default_isr_vectors.o
LOAD /Applications/microchip/xc32/v2.15/bin/bin/../../lib/gcc/pic32mx/4.8.3/../../../../pic32mx/lib/pic32_software_reset.o
                0x00000400                PROVIDE (_min_stack_size, 0x400)
START GROUP
LOAD /Applications/microchip/xc32/v2.15/bin/bin/../../lib/gcc/pic32mx/4.8.3/../../../../pic32mx/lib/./proc/32MX795F512L/processor.o
END GROUP
START GROUP
LOAD libmchp_peripheral.a
END GROUP
START GROUP
LOAD libmchp_peripheral_32MX795F512L.a
END GROUP
                0x00000001                PROVIDE (_vector_spacing, 0x1)
                0x9fc01000                PROVIDE (_ebase_address, 0x9fc01000)
                0xbfc00000                _RESET_ADDR = 0xbfc00000
                0xbfc00380                _BEV_EXCPT_ADDR = 0xbfc00380
                0xbfc00480                _DBG_EXCPT_ADDR = 0xbfc00480
                0xbfc02000                _DBG_CODE_ADDR = 0xbfc02000
                0x00000ff0                _DBG_CODE_SIZE = 0xff0
                0x9fc01180                _GEN_EXCPT_ADDR = (_ebase_address + 0x180)

.config_BFC02FF0
                0xbfc02ff0        0x4
 *(.config_BFC02FF0)
 .config_BFC02FF0
                0xbfc02ff0        0x4 build/Board4/production/_ext/1445490757/system_init.o

.config_BFC02FF4
                0xbfc02ff4        0x4
 *(.config_BFC02FF4)
 .config_BFC02FF4
                0xbfc02ff4        0x4 build/Board4/production/_ext/1445490757/system_init.o

.config_BFC02FF8
                0xbfc02ff8        0x4
 *(.config_BFC02FF8)
 .config_BFC02FF8
                0xbfc02ff8        0x4 build/Board4/production/_ext/1445490757/system_init.o

.config_BFC02FFC
                0xbfc02ffc        0x4
 *(.config_BFC02FFC)
 .config_BFC02FFC
                0xbfc02ffc        0x4 build/Board4/production/_ext/1445490757/system_init.o
                0xbfc02000                PROVIDE (_DBG_CODE_ADDR, 0xbfc02000)
                0x00000ff0                PROVIDE (_DBG_CODE_SIZE, 0xff0)

.reset          0xbfc00000      0x1a8
 *(.reset)
 .reset         0xbfc00000        0x8 /var/folders/d5/v4194pgj4rldzq4h08l7349w0000gn/T//cc0qJCyj.o
                0xbfc00000                _reset
 *(.reset.startup)
 .reset.startup
                0xbfc00008      0x1a0 /var/folders/d5/v4194pgj4rldzq4h08l7349w0000gn/T//cc0qJCyj.o
                0xbfc00008                _startup

.bev_excpt      0xbfc00380       0x10
 *(.bev_handler)
 .bev_handler   0xbfc00380       0x10 /var/folders/d5/v4194pgj4rldzq4h08l7349w0000gn/T//cc0qJCyj.o

.dbg_excpt      0xbfc00480        0x0
                0xbfc00480                . = (. + DEFINED (_DEBUGGER)?0x8:0x0)

.dbg_code       0xbfc02000        0x0
                0xbfc02000                . = (. + DEFINED (_DEBUGGER)?_DBG_CODE_SIZE:0x0)

.app_excpt      0x9fc01180       0x10
 *(.gen_handler)
 .gen_handler   0x9fc01180       0x10 /var/folders/d5/v4194pgj4rldzq4h08l7349w0000gn/T//cc0qJCyj.o

.vector_0       0x9fc01200        0x8
 *(.vector_0)
 .vector_0      0x9fc01200        0x8 /Applications/microchip/xc32/v2.15/bin/bin/../../lib/gcc/pic32mx/4.8.3/../../../../pic32mx/lib/libpic32.a(vector0.o)
                0x9fc01200                __vector_dispatch_0
                0x00000001                ASSERT (((_vector_spacing == 0x0) || (SIZEOF (.vector_0) <= (_vector_spacing << 0x5))), function at exception vector 0 too large)

.vector_1       0x9fc01220        0x8
 *(.vector_1)
 .vector_1      0x9fc01220        0x8 build/Board4/production/_ext/331515796/port.o
                0x9fc01220                __vector_dispatch_1
                0x00000001                ASSERT (((_vector_spacing == 0x0) || (SIZEOF (.vector_1) <= (_vector_spacing << 0x5))), function at exception vector 1 too large)

.vector_2       0x9fc01240        0x8
 *(.vector_2)
 .vector_2      0x9fc01240        0x8 /Applications/microchip/xc32/v2.15/bin/bin/../../lib/gcc/pic32mx/4.8.3/../../../../pic32mx/lib/libpic32.a(vector2.o)
                0x9fc01240                __vector_dispatch_2
                0x00000001                ASSERT (((_vector_spacing == 0x0) || (SIZEOF (.vector_2) <= (_vector_spacing << 0x5))), function at exception vector 2 too large)

.vector_3       0x9fc01260        0x8
 *(.vector_3)
 .vector_3      0x9fc01260        0x8 /Applications/microchip/xc32/v2.15/bin/bin/../../lib/gcc/pic32mx/4.8.3/../../../../pic32mx/lib/libpic32.a(vector3.o)
                0x9fc01260                __vector_dispatch_3
                0x00000001                ASSERT (((_vector_spacing == 0x0) || (SIZEOF (.vector_3) <= (_vector_spacing << 0x5))), function at exception vector 3 too large)

.vector_4       0x9fc01280        0x8
 *(.vector_4)
 .vector_4      0x9fc01280        0x8 build/Board4/production/_ext/331515796/port.o
                0x9fc01280                __vector_dispatch_4
                0x00000001                ASSERT (((_vector_spacing == 0x0) || (SIZEOF (.vector_4) <= (_vector_spacing << 0x5))), function at exception vector 4 too large)

.vector_5       0x9fc012a0        0x8
 *(.vector_5)
 .vector_5      0x9fc012a0        0x8 /Applications/microchip/xc32/v2.15/bin/bin/../../lib/gcc/pic32mx/4.8.3/../../../../pic32mx/lib/libpic32.a(vector5.o)
                0x9fc012a0                __vector_dispatch_5
                0x00000001                ASSERT (((_vector_spacing == 0x0) || (SIZEOF (.vector_5) <= (_vector_spacing << 0x5))), function at exception vector 5 too large)

.vector_6       0x9fc012c0        0x8
 *(.vector_6)
 .vector_6      0x9fc012c0        0x8 /Applications/microchip/xc32/v2.15/bin/bin/../../lib/gcc/pic32mx/4.8.3/../../../../pic32mx/lib/libpic32.a(vector6.o)
                0x9fc012c0                __vector_dispatch_6
                0x00000001                ASSERT (((_vector_spacing == 0x0) || (SIZEOF (.vector_6) <= (_vector_spacing << 0x5))), function at exception vector 6 too large)

.vector_7       0x9fc012e0        0x8
 *(.vector_7)
 .vector_7      0x9fc012e0        0x8 /Applications/microchip/xc32/v2.15/bin/bin/../../lib/gcc/pic32mx/4.8.3/../../../../pic32mx/lib/libpic32.a(vector7.o)
                0x9fc012e0                __vector_dispatch_7
                0x00000001                ASSERT (((_vector_spacing == 0x0) || (SIZEOF (.vector_7) <= (_vector_spacing << 0x5))), function at exception vector 7 too large)

.vector_8       0x9fc01300       0x10
 *(.vector_8)
 .vector_8      0x9fc01300       0x10 build/Board4/production/_ext/1445490757/system_interrupt_a.o
                0x9fc01300                __vector_dispatch_8
                0x00000001                ASSERT (((_vector_spacing == 0x0) || (SIZEOF (.vector_8) <= (_vector_spacing << 0x5))), function at exception vector 8 too large)

.vector_9       0x9fc01320        0x8
 *(.vector_9)
 .vector_9      0x9fc01320        0x8 /Applications/microchip/xc32/v2.15/bin/bin/../../lib/gcc/pic32mx/4.8.3/../../../../pic32mx/lib/libpic32.a(vector9.o)
                0x9fc01320                __vector_dispatch_9
                0x00000001                ASSERT (((_vector_spacing == 0x0) || (SIZEOF (.vector_9) <= (_vector_spacing << 0x5))), function at exception vector 9 too large)

.vector_10      0x9fc01340        0x8
 *(.vector_10)
 .vector_10     0x9fc01340        0x8 /Applications/microchip/xc32/v2.15/bin/bin/../../lib/gcc/pic32mx/4.8.3/../../../../pic32mx/lib/libpic32.a(vector10.o)
                0x9fc01340                __vector_dispatch_10
                0x00000001                ASSERT (((_vector_spacing == 0x0) || (SIZEOF (.vector_10) <= (_vector_spacing << 0x5))), function at exception vector 10 too large)

.vector_11      0x9fc01360        0x8
 *(.vector_11)
 .vector_11     0x9fc01360        0x8 /Applications/microchip/xc32/v2.15/bin/bin/../../lib/gcc/pic32mx/4.8.3/../../../../pic32mx/lib/libpic32.a(vector11.o)
                0x9fc01360                __vector_dispatch_11
                0x00000001                ASSERT (((_vector_spacing == 0x0) || (SIZEOF (.vector_11) <= (_vector_spacing << 0x5))), function at exception vector 11 too large)

.vector_12      0x9fc01380       0x10
 *(.vector_12)
 .vector_12     0x9fc01380       0x10 build/Board4/production/_ext/1445490757/system_interrupt_a.o
                0x9fc01380                __vector_dispatch_12
                0x00000001                ASSERT (((_vector_spacing == 0x0) || (SIZEOF (.vector_12) <= (_vector_spacing << 0x5))), function at exception vector 12 too large)

.vector_13      0x9fc013a0        0x8
 *(.vector_13)
 .vector_13     0x9fc013a0        0x8 /Applications/microchip/xc32/v2.15/bin/bin/../../lib/gcc/pic32mx/4.8.3/../../../../pic32mx/lib/libpic32.a(vector13.o)
                0x9fc013a0                __vector_dispatch_13
                0x00000001                ASSERT (((_vector_spacing == 0x0) || (SIZEOF (.vector_13) <= (_vector_spacing << 0x5))), function at exception vector 13 too large)

.vector_14      0x9fc013c0        0x8
 *(.vector_14)
 .vector_14     0x9fc013c0        0x8 /Applications/microchip/xc32/v2.15/bin/bin/../../lib/gcc/pic32mx/4.8.3/../../../../pic32mx/lib/libpic32.a(vector14.o)
                0x9fc013c0                __vector_dispatch_14
                0x00000001                ASSERT (((_vector_spacing == 0x0) || (SIZEOF (.vector_14) <= (_vector_spacing << 0x5))), function at exception vector 14 too large)

.vector_15      0x9fc013e0        0x8
 *(.vector_15)
 .vector_15     0x9fc013e0        0x8 /Applications/microchip/xc32/v2.15/bin/bin/../../lib/gcc/pic32mx/4.8.3/../../../../pic32mx/lib/libpic32.a(vector15.o)
                0x9fc013e0                __vector_dispatch_15
                0x00000001                ASSERT (((_vector_spacing == 0x0) || (SIZEOF (.vector_15) <= (_vector_spacing << 0x5))), function at exception vector 15 too large)

.vector_16      0x9fc01400        0x8
 *(.vector_16)
 .vector_16     0x9fc01400        0x8 /Applications/microchip/xc32/v2.15/bin/bin/../../lib/gcc/pic32mx/4.8.3/../../../../pic32mx/lib/libpic32.a(vector16.o)
                0x9fc01400                __vector_dispatch_16
                0x00000001                ASSERT (((_vector_spacing == 0x0) || (SIZEOF (.vector_16) <= (_vector_spacing << 0x5))), function at exception vector 16 too large)

.vector_17      0x9fc01420        0x8
 *(.vector_17)
 .vector_17     0x9fc01420        0x8 /Applications/microchip/xc32/v2.15/bin/bin/../../lib/gcc/pic32mx/4.8.3/../../../../pic32mx/lib/libpic32.a(vector17.o)
                0x9fc01420                __vector_dispatch_17
                0x00000001                ASSERT (((_vector_spacing == 0x0) || (SIZEOF (.vector_17) <= (_vector_spacing << 0x5))), function at exception vector 17 too large)

.vector_18      0x9fc01440        0x8
 *(.vector_18)
 .vector_18     0x9fc01440        0x8 /Applications/microchip/xc32/v2.15/bin/bin/../../lib/gcc/pic32mx/4.8.3/../../../../pic32mx/lib/libpic32.a(vector18.o)
                0x9fc01440                __vector_dispatch_18
                0x00000001                ASSERT (((_vector_spacing == 0x0) || (SIZEOF (.vector_18) <= (_vector_spacing << 0x5))), function at exception vector 18 too large)

.vector_19      0x9fc01460        0x8
 *(.vector_19)
 .vector_19     0x9fc01460        0x8 /Applications/microchip/xc32/v2.15/bin/bin/../../lib/gcc/pic32mx/4.8.3/../../../../pic32mx/lib/libpic32.a(vector19.o)
                0x9fc01460                __vector_dispatch_19
                0x00000001                ASSERT (((_vector_spacing == 0x0) || (SIZEOF (.vector_19) <= (_vector_spacing << 0x5))), function at exception vector 19 too large)

.vector_20      0x9fc01480       0x10
 *(.vector_20)
 .vector_20     0x9fc01480       0x10 build/Board4/production/_ext/1445490757/system_interrupt_a.o
                0x9fc01480                __vector_dispatch_20
                0x00000001                ASSERT (((_vector_spacing == 0x0) || (SIZEOF (.vector_20) <= (_vector_spacing << 0x5))), function at exception vector 20 too large)

.vector_21      0x9fc014a0        0x8
 *(.vector_21)
 .vector_21     0x9fc014a0        0x8 /Applications/microchip/xc32/v2.15/bin/bin/../../lib/gcc/pic32mx/4.8.3/../../../../pic32mx/lib/libpic32.a(vector21.o)
                0x9fc014a0                __vector_dispatch_21
                0x00000001                ASSERT (((_vector_spacing == 0x0) || (SIZEOF (.vector_21) <= (_vector_spacing << 0x5))), function at exception vector 21 too large)

.vector_22      0x9fc014c0        0x8
 *(.vector_22)
 .vector_22     0x9fc014c0        0x8 /Applications/microchip/xc32/v2.15/bin/bin/../../lib/gcc/pic32mx/4.8.3/../../../../pic32mx/lib/libpic32.a(vector22.o)
                0x9fc014c0                __vector_dispatch_22
                0x00000001                ASSERT (((_vector_spacing == 0x0) || (SIZEOF (.vector_22) <= (_vector_spacing << 0x5))), function at exception vector 22 too large)

.vector_23      0x9fc014e0        0x8
 *(.vector_23)
 .vector_23     0x9fc014e0        0x8 /Applications/microchip/xc32/v2.15/bin/bin/../../lib/gcc/pic32mx/4.8.3/../../../../pic32mx/lib/libpic32.a(vector23.o)
                0x9fc014e0                __vector_dispatch_23
                0x00000001                ASSERT (((_vector_spacing == 0x0) || (SIZEOF (.vector_23) <= (_vector_spacing << 0x5))), function at exception vector 23 too large)

.vector_24      0x9fc01500       0x10
 *(.vector_24)
 .vector_24     0x9fc01500       0x10 build/Board4/production/_ext/1445490757/system_interrupt_a.o
                0x9fc01500                __vector_dispatch_24
                0x00000001                ASSERT (((_vector_spacing == 0x0) || (SIZEOF (.vector_24) <= (_vector_spacing << 0x5))), function at exception vector 24 too large)

.vector_25      0x9fc01520        0x8
 *(.vector_25)
 .vector_25     0x9fc01520        0x8 /Applications/microchip/xc32/v2.15/bin/bin/../../lib/gcc/pic32mx/4.8.3/../../../../pic32mx/lib/libpic32.a(vector25.o)
                0x9fc01520                __vector_dispatch_25
                0x00000001                ASSERT (((_vector_spacing == 0x0) || (SIZEOF (.vector_25) <= (_vector_spacing << 0x5))), function at exception vector 25 too large)

.vector_26      0x9fc01540        0x8
 *(.vector_26)
 .vector_26     0x9fc01540        0x8 /Applications/microchip/xc32/v2.15/bin/bin/../../lib/gcc/pic32mx/4.8.3/../../../../pic32mx/lib/libpic32.a(vector26.o)
                0x9fc01540                __vector_dispatch_26
                0x00000001                ASSERT (((_vector_spacing == 0x0) || (SIZEOF (.vector_26) <= (_vector_spacing << 0x5))), function at exception vector 26 too large)

.vector_27      0x9fc01560        0x8
 *(.vector_27)
 .vector_27     0x9fc01560        0x8 /Applications/microchip/xc32/v2.15/bin/bin/../../lib/gcc/pic32mx/4.8.3/../../../../pic32mx/lib/libpic32.a(vector27.o)
                0x9fc01560                __vector_dispatch_27
                0x00000001                ASSERT (((_vector_spacing == 0x0) || (SIZEOF (.vector_27) <= (_vector_spacing << 0x5))), function at exception vector 27 too large)

.vector_28      0x9fc01580        0x8
 *(.vector_28)
 .vector_28     0x9fc01580        0x8 /Applications/microchip/xc32/v2.15/bin/bin/../../lib/gcc/pic32mx/4.8.3/../../../../pic32mx/lib/libpic32.a(vector28.o)
                0x9fc01580                __vector_dispatch_28
                0x00000001                ASSERT (((_vector_spacing == 0x0) || (SIZEOF (.vector_28) <= (_vector_spacing << 0x5))), function at exception vector 28 too large)

.vector_29      0x9fc015a0        0x8
 *(.vector_29)
 .vector_29     0x9fc015a0        0x8 /Applications/microchip/xc32/v2.15/bin/bin/../../lib/gcc/pic32mx/4.8.3/../../../../pic32mx/lib/libpic32.a(vector29.o)
                0x9fc015a0                __vector_dispatch_29
                0x00000001                ASSERT (((_vector_spacing == 0x0) || (SIZEOF (.vector_29) <= (_vector_spacing << 0x5))), function at exception vector 29 too large)

.vector_30      0x9fc015c0        0x8
 *(.vector_30)
 .vector_30     0x9fc015c0        0x8 /Applications/microchip/xc32/v2.15/bin/bin/../../lib/gcc/pic32mx/4.8.3/../../../../pic32mx/lib/libpic32.a(vector30.o)
                0x9fc015c0                __vector_dispatch_30
                0x00000001                ASSERT (((_vector_spacing == 0x0) || (SIZEOF (.vector_30) <= (_vector_spacing << 0x5))), function at exception vector 30 too large)

.vector_31      0x9fc015e0        0x8
 *(.vector_31)
 .vector_31     0x9fc015e0        0x8 /Applications/microchip/xc32/v2.15/bin/bin/../../lib/gcc/pic32mx/4.8.3/../../../../pic32mx/lib/libpic32.a(vector31.o)
                0x9fc015e0                __vector_dispatch_31
                0x00000001                ASSERT (((_vector_spacing == 0x0) || (SIZEOF (.vector_31) <= (_vector_spacing << 0x5))), function at exception vector 31 too large)

.vector_32      0x9fc01600       0x10
 *(.vector_32)
 .vector_32     0x9fc01600       0x10 build/Board4/production/_ext/1445490757/system_interrupt_a.o
                0x9fc01600                __vector_dispatch_32
                0x00000001                ASSERT (((_vector_spacing == 0x0) || (SIZEOF (.vector_32) <= (_vector_spacing << 0x5))), function at exception vector 32 too large)

.vector_33      0x9fc01620        0x8
 *(.vector_33)
 .vector_33     0x9fc01620        0x8 /Applications/microchip/xc32/v2.15/bin/bin/../../lib/gcc/pic32mx/4.8.3/../../../../pic32mx/lib/libpic32.a(vector33.o)
                0x9fc01620                __vector_dispatch_33
                0x00000001                ASSERT (((_vector_spacing == 0x0) || (SIZEOF (.vector_33) <= (_vector_spacing << 0x5))), function at exception vector 33 too large)

.vector_34      0x9fc01640        0x8
 *(.vector_34)
 .vector_34     0x9fc01640        0x8 /Applications/microchip/xc32/v2.15/bin/bin/../../lib/gcc/pic32mx/4.8.3/../../../../pic32mx/lib/libpic32.a(vector34.o)
                0x9fc01640                __vector_dispatch_34
                0x00000001                ASSERT (((_vector_spacing == 0x0) || (SIZEOF (.vector_34) <= (_vector_spacing << 0x5))), function at exception vector 34 too large)

.vector_35      0x9fc01660        0x8
 *(.vector_35)
 .vector_35     0x9fc01660        0x8 /Applications/microchip/xc32/v2.15/bin/bin/../../lib/gcc/pic32mx/4.8.3/../../../../pic32mx/lib/libpic32.a(vector35.o)
                0x9fc01660                __vector_dispatch_35
                0x00000001                ASSERT (((_vector_spacing == 0x0) || (SIZEOF (.vector_35) <= (_vector_spacing << 0x5))), function at exception vector 35 too large)

.vector_36      0x9fc01680        0x8
 *(.vector_36)
 .vector_36     0x9fc01680        0x8 /Applications/microchip/xc32/v2.15/bin/bin/../../lib/gcc/pic32mx/4.8.3/../../../../pic32mx/lib/libpic32.a(vector36.o)
                0x9fc01680                __vector_dispatch_36
                0x00000001                ASSERT (((_vector_spacing == 0x0) || (SIZEOF (.vector_36) <= (_vector_spacing << 0x5))), function at exception vector 36 too large)

.vector_37      0x9fc016a0        0x8
 *(.vector_37)
 .vector_37     0x9fc016a0        0x8 /Applications/microchip/xc32/v2.15/bin/bin/../../lib/gcc/pic32mx/4.8.3/../../../../pic32mx/lib/libpic32.a(vector37.o)
                0x9fc016a0                __vector_dispatch_37
                0x00000001                ASSERT (((_vector_spacing == 0x0) || (SIZEOF (.vector_37) <= (_vector_spacing << 0x5))), function at exception vector 37 too large)

.vector_38      0x9fc016c0        0x8
 *(.vector_38)
 .vector_38     0x9fc016c0        0x8 /Applications/microchip/xc32/v2.15/bin/bin/../../lib/gcc/pic32mx/4.8.3/../../../../pic32mx/lib/libpic32.a(vector38.o)
                0x9fc016c0                __vector_dispatch_38
                0x00000001                ASSERT (((_vector_spacing == 0x0) || (SIZEOF (.vector_38) <= (_vector_spacing << 0x5))), function at exception vector 38 too large)

.vector_39      0x9fc016e0        0x8
 *(.vector_39)
 .vector_39     0x9fc016e0        0x8 /Applications/microchip/xc32/v2.15/bin/bin/../../lib/gcc/pic32mx/4.8.3/../../../../pic32mx/lib/libpic32.a(vector39.o)
                0x9fc016e0                __vector_dispatch_39
                0x00000001                ASSERT (((_vector_spacing == 0x0) || (SIZEOF (.vector_39) <= (_vector_spacing << 0x5))), function at exception vector 39 too large)

.vector_40      0x9fc01700        0x8
 *(.vector_40)
 .vector_40     0x9fc01700        0x8 /Applications/microchip/xc32/v2.15/bin/bin/../../lib/gcc/pic32mx/4.8.3/../../../../pic32mx/lib/libpic32.a(vector40.o)
                0x9fc01700                __vector_dispatch_40
                0x00000001                ASSERT (((_vector_spacing == 0x0) || (SIZEOF (.vector_40) <= (_vector_spacing << 0x5))), function at exception vector 40 too large)

.vector_41      0x9fc01720        0x8
 *(.vector_41)
 .vector_41     0x9fc01720        0x8 /Applications/microchip/xc32/v2.15/bin/bin/../../lib/gcc/pic32mx/4.8.3/../../../../pic32mx/lib/libpic32.a(vector41.o)
                0x9fc01720                __vector_dispatch_41
                0x00000001                ASSERT (((_vector_spacing == 0x0) || (SIZEOF (.vector_41) <= (_vector_spacing << 0x5))), function at exception vector 41 too large)

.vector_42      0x9fc01740        0x8
 *(.vector_42)
 .vector_42     0x9fc01740        0x8 /Applications/microchip/xc32/v2.15/bin/bin/../../lib/gcc/pic32mx/4.8.3/../../../../pic32mx/lib/libpic32.a(vector42.o)
                0x9fc01740                __vector_dispatch_42
                0x00000001                ASSERT (((_vector_spacing == 0x0) || (SIZEOF (.vector_42) <= (_vector_spacing << 0x5))), function at exception vector 42 too large)

.vector_43      0x9fc01760        0x8
 *(.vector_43)
 .vector_43     0x9fc01760        0x8 /Applications/microchip/xc32/v2.15/bin/bin/../../lib/gcc/pic32mx/4.8.3/../../../../pic32mx/lib/libpic32.a(vector43.o)
                0x9fc01760                __vector_dispatch_43
                0x00000001                ASSERT (((_vector_spacing == 0x0) || (SIZEOF (.vector_43) <= (_vector_spacing << 0x5))), function at exception vector 43 too large)

.vector_44      0x9fc01780        0x8
 *(.vector_44)
 .vector_44     0x9fc01780        0x8 /Applications/microchip/xc32/v2.15/bin/bin/../../lib/gcc/pic32mx/4.8.3/../../../../pic32mx/lib/libpic32.a(vector44.o)
                0x9fc01780                __vector_dispatch_44
                0x00000001                ASSERT (((_vector_spacing == 0x0) || (SIZEOF (.vector_44) <= (_vector_spacing << 0x5))), function at exception vector 44 too large)

.vector_45      0x9fc017a0        0x8
 *(.vector_45)
 .vector_45     0x9fc017a0        0x8 /Applications/microchip/xc32/v2.15/bin/bin/../../lib/gcc/pic32mx/4.8.3/../../../../pic32mx/lib/libpic32.a(vector45.o)
                0x9fc017a0                __vector_dispatch_45
                0x00000001                ASSERT (((_vector_spacing == 0x0) || (SIZEOF (.vector_45) <= (_vector_spacing << 0x5))), function at exception vector 45 too large)

.vector_46      0x9fc017c0        0x8
 *(.vector_46)
 .vector_46     0x9fc017c0        0x8 /Applications/microchip/xc32/v2.15/bin/bin/../../lib/gcc/pic32mx/4.8.3/../../../../pic32mx/lib/libpic32.a(vector46.o)
                0x9fc017c0                __vector_dispatch_46
                0x00000001                ASSERT (((_vector_spacing == 0x0) || (SIZEOF (.vector_46) <= (_vector_spacing << 0x5))), function at exception vector 46 too large)

.vector_47      0x9fc017e0        0x8
 *(.vector_47)
 .vector_47     0x9fc017e0        0x8 /Applications/microchip/xc32/v2.15/bin/bin/../../lib/gcc/pic32mx/4.8.3/../../../../pic32mx/lib/libpic32.a(vector47.o)
                0x9fc017e0                __vector_dispatch_47
                0x00000001                ASSERT (((_vector_spacing == 0x0) || (SIZEOF (.vector_47) <= (_vector_spacing << 0x5))), function at exception vector 47 too large)

.vector_48      0x9fc01800        0x8
 *(.vector_48)
 .vector_48     0x9fc01800        0x8 /Applications/microchip/xc32/v2.15/bin/bin/../../lib/gcc/pic32mx/4.8.3/../../../../pic32mx/lib/libpic32.a(vector48.o)
                0x9fc01800                __vector_dispatch_48
                0x00000001                ASSERT (((_vector_spacing == 0x0) || (SIZEOF (.vector_48) <= (_vector_spacing << 0x5))), function at exception vector 48 too large)

.vector_49      0x9fc01820       0x10
 *(.vector_49)
 .vector_49     0x9fc01820       0x10 build/Board4/production/_ext/1445490757/system_interrupt_a.o
                0x9fc01820                __vector_dispatch_49
                0x00000001                ASSERT (((_vector_spacing == 0x0) || (SIZEOF (.vector_49) <= (_vector_spacing << 0x5))), function at exception vector 49 too large)

.vector_50      0x9fc01840        0x8
 *(.vector_50)
 .vector_50     0x9fc01840        0x8 /Applications/microchip/xc32/v2.15/bin/bin/../../lib/gcc/pic32mx/4.8.3/../../../../pic32mx/lib/libpic32.a(vector50.o)
                0x9fc01840                __vector_dispatch_50
                0x00000001                ASSERT (((_vector_spacing == 0x0) || (SIZEOF (.vector_50) <= (_vector_spacing << 0x5))), function at exception vector 50 too large)

.vector_51      0x9fc01860        0x8
 *(.vector_51)
 .vector_51     0x9fc01860        0x8 /Applications/microchip/xc32/v2.15/bin/bin/../../lib/gcc/pic32mx/4.8.3/../../../../pic32mx/lib/libpic32.a(vector51.o)
                0x9fc01860                __vector_dispatch_51
                0x00000001                ASSERT (((_vector_spacing == 0x0) || (SIZEOF (.vector_51) <= (_vector_spacing << 0x5))), function at exception vector 51 too large)

.vector_52      0x9fc01880        0x0
 *(.vector_52)
                0x00000001                ASSERT (((_vector_spacing == 0x0) || (SIZEOF (.vector_52) <= (_vector_spacing << 0x5))), function at exception vector 52 too large)

.vector_53      0x9fc018a0        0x0
 *(.vector_53)
                0x00000001                ASSERT (((_vector_spacing == 0x0) || (SIZEOF (.vector_53) <= (_vector_spacing << 0x5))), function at exception vector 53 too large)

.vector_54      0x9fc018c0        0x0
 *(.vector_54)
                0x00000001                ASSERT (((_vector_spacing == 0x0) || (SIZEOF (.vector_54) <= (_vector_spacing << 0x5))), function at exception vector 54 too large)

.vector_55      0x9fc018e0        0x0
 *(.vector_55)
                0x00000001                ASSERT (((_vector_spacing == 0x0) || (SIZEOF (.vector_55) <= (_vector_spacing << 0x5))), function at exception vector 55 too large)

.vector_56      0x9fc01900        0x0
 *(.vector_56)
                0x00000001                ASSERT (((_vector_spacing == 0x0) || (SIZEOF (.vector_56) <= (_vector_spacing << 0x5))), function at exception vector 56 too large)

.vector_57      0x9fc01920        0x0
 *(.vector_57)
                0x00000001                ASSERT (((_vector_spacing == 0x0) || (SIZEOF (.vector_57) <= (_vector_spacing << 0x5))), function at exception vector 57 too large)

.vector_58      0x9fc01940        0x0
 *(.vector_58)
                0x00000001                ASSERT (((_vector_spacing == 0x0) || (SIZEOF (.vector_58) <= (_vector_spacing << 0x5))), function at exception vector 58 too large)

.vector_59      0x9fc01960        0x0
 *(.vector_59)
                0x00000001                ASSERT (((_vector_spacing == 0x0) || (SIZEOF (.vector_59) <= (_vector_spacing << 0x5))), function at exception vector 59 too large)

.vector_60      0x9fc01980        0x0
 *(.vector_60)
                0x00000001                ASSERT (((_vector_spacing == 0x0) || (SIZEOF (.vector_60) <= (_vector_spacing << 0x5))), function at exception vector 60 too large)

.vector_61      0x9fc019a0        0x0
 *(.vector_61)
                0x00000001                ASSERT (((_vector_spacing == 0x0) || (SIZEOF (.vector_61) <= (_vector_spacing << 0x5))), function at exception vector 61 too large)

.vector_62      0x9fc019c0        0x0
 *(.vector_62)
                0x00000001                ASSERT (((_vector_spacing == 0x0) || (SIZEOF (.vector_62) <= (_vector_spacing << 0x5))), function at exception vector 62 too large)

.vector_63      0x9fc019e0        0x0
 *(.vector_63)
                0x00000001                ASSERT (((_vector_spacing == 0x0) || (SIZEOF (.vector_63) <= (_vector_spacing << 0x5))), function at exception vector 63 too large)

.startup
 *(.startup)

.text           0x9d000000        0x0
 *(.stub .gnu.linkonce.t.*)
 *(.text.*personality*)
 *(.mips16.fn.*)
 *(.mips16.call.*)
 *(.gnu.warning)
                0x9d000000                . = ALIGN (0x4)

.init           0x9d000000        0x0
 *crti.o(.init)
 *crtbegin.o(.init)
 *(EXCLUDE_FILE(*crtn.o *crtend?.o *crtend.o) .init)
 *crtend.o(.init)
 *crtn.o(.init)
                0x9d000000                . = ALIGN (0x4)

.fini           0x9d000000        0x0
 *(.fini)
                0x9d000000                . = ALIGN (0x4)

.preinit_array  0x9d000000        0x0
                0x9d000000                PROVIDE (__preinit_array_start, .)
 *(.preinit_array)
                0x9d000000                PROVIDE (__preinit_array_end, .)
                0x9d000000                . = ALIGN (0x4)

.init_array     0x9d000000        0x0
                0x9d000000                PROVIDE (__init_array_start, .)
 *(SORT(.init_array.*))
 *(.init_array)
                0x9d000000                PROVIDE (__init_array_end, .)
                0x9d000000                . = ALIGN (0x4)

.fini_array     0x9d000000        0x0
                0x9d000000                PROVIDE (__fini_array_start, .)
 *(SORT(.fini_array.*))
 *(.fini_array)
                0x9d000000                PROVIDE (__fini_array_end, .)
                0x9d000000                . = ALIGN (0x4)

.ctors          0x9d000000        0x0
 *crtbegin.o(.ctors)
 *crtbegin?.o(.ctors)
 *(EXCLUDE_FILE(*crtend?.o *crtend.o) .ctors)
 *(SORT(.ctors.*))
 *(.ctors)
                0x9d000000                . = ALIGN (0x4)

.dtors          0x9d000000        0x0
 *crtbegin.o(.dtors)
 *crtbegin?.o(.dtors)
 *(EXCLUDE_FILE(*crtend?.o *crtend.o) .dtors)
 *(SORT(.dtors.*))
 *(.dtors)
                0x9d000000                . = ALIGN (0x4)

.rodata         0x9d000000        0x0
 *(.gnu.linkonce.r.*)
 *(.rodata1)
                0x9d000000                . = ALIGN (0x4)

.sdata2         0x9fc00490        0x0
 *(.sdata2 .sdata2.* .gnu.linkonce.s2.*)
                0x9fc00490                . = ALIGN (0x4)

.sbss2          0x9fc00490        0x0
 *(.sbss2 .sbss2.* .gnu.linkonce.sb2.*)
                0x9fc00490                . = ALIGN (0x4)

.eh_frame_hdr
 *(.eh_frame_hdr)
                0x9fc00490                . = ALIGN (0x4)

.eh_frame
 *(.eh_frame)
                0x9fc00490                . = ALIGN (0x4)

.gcc_except_table
 *(.gcc_except_table .gcc_except_table.*)
                0x9fc00490                . = ALIGN (0x4)

.dbg_data       0xa0000000        0x0
                0xa0000000                . = (. + DEFINED (_DEBUGGER)?0x200:0x0)

.jcr            0xa0000000        0x0
 *(.jcr)
                0xa0000000                . = ALIGN (0x4)

.eh_frame
 *(.eh_frame)
                0xa0000000                . = ALIGN (0x4)

.gcc_except_table
 *(.gcc_except_table .gcc_except_table.*)
                0xa0000000                . = ALIGN (0x4)

.persist        0xa0000000        0x0
                0xa0000000                _persist_begin = .
 *(.persist .persist.*)
 *(.pbss .pbss.*)
                0xa0000000                . = ALIGN (0x4)
                0xa0000000                _persist_end = .

.data           0xa0000000        0x0
 *(.gnu.linkonce.d.*)
 *(.data1)
                0xa0000000                . = ALIGN (0x4)
                0xa0000000                . = .
                0xa0007ff0                _gp = (ALIGN (0x10) + 0x7ff0)

.got            0xa0000000        0x0
 *(.got.plt)
 *(.got)
                0xa0000000                . = ALIGN (0x4)

.sdata          0xa0000000       0x14
                0xa0000000                _sdata_begin = .
 *(.sdata .sdata.* .gnu.linkonce.s.*)
 .sdata         0xa0000000        0x8 build/Board4/production/_ext/676718598/pixy2Func.o
 .sdata         0xa0000008        0x4 build/Board4/production/_ext/905643201/heap_2.o
 .sdata         0xa000000c        0x4 build/Board4/production/_ext/331515796/port.o
                0xa000000c                uxInterruptNesting
 .sdata         0xa0000010        0x4 /Applications/microchip/xc32/v2.15/bin/bin/../../lib/gcc/pic32mx/4.8.3/../../../../pic32mx/lib/libpic32.a(xc32_uart.o)
                0xa0000010                __XC_UART
                0xa0000014                . = ALIGN (0x4)
                0xa0000014                _sdata_end = .

.lit8
 *(.lit8)

.lit4
 *(.lit4)
                0xa0000014                . = ALIGN (0x4)
                0xa0000014                _data_end = .
                0xa0000014                _bss_begin = .

.sbss           0xa0000014      0x128
                0xa0000014                _sbss_begin = .
 *(.dynsbss)
 *(.sbss .sbss.* .gnu.linkonce.sb.*)
 .sbss          0xa0000014        0x3 build/Board4/production/_ext/1612284866/drv_tmr_static.o
 *fill*         0xa0000017        0x1 
 .sbss          0xa0000018        0xc build/Board4/production/_ext/1445490757/system_exceptions.o
 .sbss          0xa0000024        0x8 build/Board4/production/_ext/676718598/cJSON.o
 .sbss          0xa000002c       0x10 build/Board4/production/_ext/676718598/http.o
 .sbss          0xa000003c       0x18 build/Board4/production/_ext/676718598/wifi_state.o
 .sbss          0xa0000054        0xc build/Board4/production/_ext/676718598/pixy2Func.o
 .sbss          0xa0000060       0x14 build/Board4/production/_ext/676718598/pixy_queue.o
 .sbss          0xa0000074        0x8 build/Board4/production/_ext/676718598/sensor_state.o
 .sbss          0xa000007c       0x14 build/Board4/production/_ext/905643201/heap_2.o
 .sbss          0xa0000090        0x4 build/Board4/production/_ext/331515796/port.o
                0xa0000090                uxSavedTaskStackPointer
 .sbss          0xa0000094       0x3c build/Board4/production/_ext/1539584926/tasks.o
                0xa00000cc                pxCurrentTCB
 .sbss          0xa00000d0       0x14 build/Board4/production/_ext/1539584926/timers.o
 *(.scommon)
 .scommon       0xa00000e4       0x34 build/Board4/production/_ext/1210681131/drv_oc_mapping.o
                0xa00000e4                Uart_tx_queue
                0xa00000e8                Pixy_UART_ISR
                0xa00000ec                timerHndl1Sec
                0xa00000f0                Mt_LEDHandle
                0xa00000f4                Mt_SWTimerHandle
                0xa00000f8                PixyThread
                0xa00000fc                Mt_AdjustHandle
                0xa0000100                UARTqueue
                0xa0000104                UART_Thread_queue
                0xa0000108                PixyT_Handle
                0xa000010c                Mt_ReqHandle
                0xa0000110                mtQueueHandle
                0xa0000114                pi_start_handle
 .scommon       0xa0000118        0x0 build/Board4/production/_ext/1303525714/drv_usart_mapping.o
 .scommon       0xa0000118       0x18 build/Board4/production/_ext/1303525714/drv_usart_static.o
                0xa0000118                gDrvUSART0Obj
                0xa0000120                gDrvUSART2Obj
                0xa0000128                gDrvUSART1Obj
 .scommon       0xa0000130        0x0 build/Board4/production/_ext/1303525714/drv_usart_static_byte_model.o
 .scommon       0xa0000130        0x0 build/Board4/production/_ext/635635118/sys_clk_pic32mx.o
 .scommon       0xa0000130        0x8 build/Board4/production/_ext/652723559/sys_devcon.o
                0xa0000130                sysDevconObj
 .scommon       0xa0000138        0x0 build/Board4/production/_ext/1445490757/system_init.o
 .scommon       0xa0000138        0x0 build/Board4/production/_ext/1445490757/system_interrupt.o
 .scommon       0xa0000138        0x0 build/Board4/production/_ext/1445490757/system_exceptions.o
 .scommon       0xa0000138        0x0 build/Board4/production/_ext/1445490757/system_tasks.o
 .scommon       0xa0000138        0x0 build/Board4/production/_ext/1360937237/motor_app.o
 .scommon       0xa0000138        0x0 build/Board4/production/_ext/1360937237/wifi_app.o
 .scommon       0xa0000138        0x0 build/Board4/production/_ext/676718598/debug.o
 .scommon       0xa0000138        0x0 build/Board4/production/_ext/676718598/http.o
 .scommon       0xa0000138        0x0 build/Board4/production/_ext/676718598/motor.o
 .scommon       0xa0000138        0x0 build/Board4/production/_ext/676718598/motor_queue.o
 .scommon       0xa0000138        0x0 build/Board4/production/_ext/676718598/motor_software_timer.o
 .scommon       0xa0000138        0x0 build/Board4/production/_ext/676718598/motor_state.o
 .scommon       0xa0000138        0x0 build/Board4/production/_ext/676718598/wifi_queue.o
 .scommon       0xa0000138        0x0 build/Board4/production/_ext/676718598/wifi_state.o
 .scommon       0xa0000138        0x4 build/Board4/production/_ext/676718598/wifi_timer.o
                0xa0000138                statistic_handle
 .scommon       0xa000013c        0x0 build/Board4/production/_ext/676718598/pixy2Func.o
 .scommon       0xa000013c        0x0 build/Board4/production/_ext/676718598/pixy_app.o
 .scommon       0xa000013c        0x0 build/Board4/production/_ext/676718598/pixy_queue.o
 .scommon       0xa000013c        0x0 build/Board4/production/_ext/676718598/sensor_app.o
 .scommon       0xa000013c        0x0 build/Board4/production/_ext/676718598/sensor_queue.o
 .scommon       0xa000013c        0x0 build/Board4/production/_ext/676718598/sensor_state.o
                0xa000013c                _sbss_end = .
                0xa000013c                . = ALIGN (0x4)

.bss            0xa000013c       0x18
 *(.dynbss)
 *(COMMON)
 COMMON         0xa000013c       0x18 build/Board4/production/_ext/1445490757/system_init.o
                0xa000013c                sysObj
                0xa0000154                . = ALIGN ((. != 0x0)?0x4:0x1)
                0xa0000154                . = ALIGN (0x4)
                0xa0000154                _end = .
                0xa0000154                _bss_end = .
                0x00020000                _bmxdudba_address = 0x20000
                0x00020000                _bmxdupba_address = 0x20000

/DISCARD/
 *(.pdr)
 *(.rel.dyn)
 *(.note.GNU-stack)
 *(.note.GNU-stack)
 *(.gnu_debuglink)
 *(.gnu.lto_*)
 *(.discard)

.gptab.sdata
 *(.gptab.data)
 *(.gptab.sdata)

.gptab.sbss
 *(.gptab.bss)
 *(.gptab.sbss)

.mdebug.abi32   0xa0000154        0x0
 *(.mdebug.abi32)
 .mdebug.abi32  0xa0000154        0x0 build/Board4/production/_ext/1210681131/drv_oc_mapping.o
 .mdebug.abi32  0xa0000154        0x0 build/Board4/production/_ext/1210681131/drv_oc_static.o
 .mdebug.abi32  0xa0000154        0x0 build/Board4/production/_ext/1612284866/drv_tmr_static.o
 .mdebug.abi32  0xa0000154        0x0 build/Board4/production/_ext/1612284866/drv_tmr_mapping.o
 .mdebug.abi32  0xa0000154        0x0 build/Board4/production/_ext/1303525714/drv_usart_mapping.o
 .mdebug.abi32  0xa0000154        0x0 build/Board4/production/_ext/1303525714/drv_usart_static.o
 .mdebug.abi32  0xa0000154        0x0 build/Board4/production/_ext/1303525714/drv_usart_static_byte_model.o
 .mdebug.abi32  0xa0000154        0x0 build/Board4/production/_ext/635635118/sys_clk_pic32mx.o
 .mdebug.abi32  0xa0000154        0x0 build/Board4/production/_ext/652723559/sys_devcon.o
 .mdebug.abi32  0xa0000154        0x0 build/Board4/production/_ext/652723559/sys_devcon_pic32mx.o
 .mdebug.abi32  0xa0000154        0x0 build/Board4/production/_ext/1842392706/sys_ports_static.o
 .mdebug.abi32  0xa0000154        0x0 build/Board4/production/_ext/1445490757/system_init.o
 .mdebug.abi32  0xa0000154        0x0 build/Board4/production/_ext/1445490757/system_interrupt.o
 .mdebug.abi32  0xa0000154        0x0 build/Board4/production/_ext/1445490757/system_exceptions.o
 .mdebug.abi32  0xa0000154        0x0 build/Board4/production/_ext/1445490757/system_tasks.o
 .mdebug.abi32  0xa0000154        0x0 build/Board4/production/_ext/1445490757/rtos_hooks.o
 .mdebug.abi32  0xa0000154        0x0 build/Board4/production/_ext/1360937237/motor_app.o
 .mdebug.abi32  0xa0000154        0x0 build/Board4/production/_ext/1360937237/wifi_app.o
 .mdebug.abi32  0xa0000154        0x0 build/Board4/production/_ext/1360937237/main.o
 .mdebug.abi32  0xa0000154        0x0 build/Board4/production/_ext/676718598/cJSON.o
 .mdebug.abi32  0xa0000154        0x0 build/Board4/production/_ext/676718598/debug.o
 .mdebug.abi32  0xa0000154        0x0 build/Board4/production/_ext/676718598/http.o
 .mdebug.abi32  0xa0000154        0x0 build/Board4/production/_ext/676718598/motor.o
 .mdebug.abi32  0xa0000154        0x0 build/Board4/production/_ext/676718598/motor_queue.o
 .mdebug.abi32  0xa0000154        0x0 build/Board4/production/_ext/676718598/motor_software_timer.o
 .mdebug.abi32  0xa0000154        0x0 build/Board4/production/_ext/676718598/motor_state.o
 .mdebug.abi32  0xa0000154        0x0 build/Board4/production/_ext/676718598/wifi_queue.o
 .mdebug.abi32  0xa0000154        0x0 build/Board4/production/_ext/676718598/wifi_state.o
 .mdebug.abi32  0xa0000154        0x0 build/Board4/production/_ext/676718598/wifi_timer.o
 .mdebug.abi32  0xa0000154        0x0 build/Board4/production/_ext/676718598/pixy2Func.o
 .mdebug.abi32  0xa0000154        0x0 build/Board4/production/_ext/676718598/pixy_app.o
 .mdebug.abi32  0xa0000154        0x0 build/Board4/production/_ext/676718598/pixy_queue.o
 .mdebug.abi32  0xa0000154        0x0 build/Board4/production/_ext/676718598/sensor_app.o
 .mdebug.abi32  0xa0000154        0x0 build/Board4/production/_ext/676718598/sensor_queue.o
 .mdebug.abi32  0xa0000154        0x0 build/Board4/production/_ext/676718598/sensor_state.o
 .mdebug.abi32  0xa0000154        0x0 build/Board4/production/_ext/1043444669/osal_freertos.o
 .mdebug.abi32  0xa0000154        0x0 build/Board4/production/_ext/249303043/sys_int_pic32.o
 .mdebug.abi32  0xa0000154        0x0 build/Board4/production/_ext/905643201/heap_2.o
 .mdebug.abi32  0xa0000154        0x0 build/Board4/production/_ext/331515796/port.o
 .mdebug.abi32  0xa0000154        0x0 build/Board4/production/_ext/1539584926/croutine.o
 .mdebug.abi32  0xa0000154        0x0 build/Board4/production/_ext/1539584926/list.o
 .mdebug.abi32  0xa0000154        0x0 build/Board4/production/_ext/1539584926/queue.o
 .mdebug.abi32  0xa0000154        0x0 build/Board4/production/_ext/1539584926/tasks.o
 .mdebug.abi32  0xa0000154        0x0 build/Board4/production/_ext/1539584926/timers.o
 .mdebug.abi32  0xa0000154        0x0 build/Board4/production/_ext/1539584926/event_groups.o
 .mdebug.abi32  0xa0000154        0x0 build/Board4/production/_ext/1539584926/stream_buffer.o
 .mdebug.abi32  0xa0000154        0x0 /Applications/microchip/xc32/v2.15/bin/bin/../../lib/gcc/pic32mx/4.8.3/libgcc.a(floatunsisf.o)
 .mdebug.abi32  0xa0000154        0x0 /Applications/microchip/xc32/v2.15/bin/bin/../../lib/gcc/pic32mx/4.8.3/../../../../pic32mx/lib/libpic32.a(default-bootstrap-exception-handler.o)
 .mdebug.abi32  0xa0000154        0x0 /Applications/microchip/xc32/v2.15/bin/bin/../../lib/gcc/pic32mx/4.8.3/../../../../pic32mx/lib/libpic32.a(default-on-reset.o)
 .mdebug.abi32  0xa0000154        0x0 /Applications/microchip/xc32/v2.15/bin/bin/../../lib/gcc/pic32mx/4.8.3/../../../../pic32mx/lib/libpic32.a(default-on-bootstrap.o)
 .mdebug.abi32  0xa0000154        0x0 /Applications/microchip/xc32/v2.15/bin/bin/../../lib/gcc/pic32mx/4.8.3/../../../../pic32mx/lib/libpic32.a(defaultinterrupt.o)
 .mdebug.abi32  0xa0000154        0x0 /Applications/microchip/xc32/v2.15/bin/bin/../../lib/gcc/pic32mx/4.8.3/../../../../pic32mx/lib/libc.a(ctypef.o)
 .mdebug.abi32  0xa0000154        0x0 /Applications/microchip/xc32/v2.15/bin/bin/../../lib/gcc/pic32mx/4.8.3/../../../../pic32mx/lib/libc.a(malloc.o)
 .mdebug.abi32  0xa0000154        0x0 /Applications/microchip/xc32/v2.15/bin/bin/../../lib/gcc/pic32mx/4.8.3/../../../../pic32mx/lib/libc.a(strcat.o)
 .mdebug.abi32  0xa0000154        0x0 /Applications/microchip/xc32/v2.15/bin/bin/../../lib/gcc/pic32mx/4.8.3/../../../../pic32mx/lib/libc.a(strncmp.o)
 .mdebug.abi32  0xa0000154        0x0 /Applications/microchip/xc32/v2.15/bin/bin/../../lib/gcc/pic32mx/4.8.3/../../../../pic32mx/lib/libc.a(strtod.o)
 .mdebug.abi32  0xa0000154        0x0 /Applications/microchip/xc32/v2.15/bin/bin/../../lib/gcc/pic32mx/4.8.3/../../../../pic32mx/lib/libc.a(sprintf_cdgGnopuxX.eo)
 .mdebug.abi32  0xa0000154        0x0 /Applications/microchip/xc32/v2.15/bin/bin/../../lib/gcc/pic32mx/4.8.3/../../../../pic32mx/lib/libc.a(sscanf_gG.eo)
 .mdebug.abi32  0xa0000154        0x0 /Applications/microchip/xc32/v2.15/bin/bin/../../lib/gcc/pic32mx/4.8.3/../../../../pic32mx/lib/libc.a(ctype.o)
 .mdebug.abi32  0xa0000154        0x0 /Applications/microchip/xc32/v2.15/bin/bin/../../lib/gcc/pic32mx/4.8.3/../../../../pic32mx/lib/libc.a(doprnt_cdgGnopuxX.eo)
 .mdebug.abi32  0xa0000154        0x0 /Applications/microchip/xc32/v2.15/bin/bin/../../lib/gcc/pic32mx/4.8.3/../../../../pic32mx/lib/libc.a(doscan_gG.eo)
 .mdebug.abi32  0xa0000154        0x0 /Applications/microchip/xc32/v2.15/bin/bin/../../lib/gcc/pic32mx/4.8.3/../../../../pic32mx/lib/libc.a(fgetc.o)
 .mdebug.abi32  0xa0000154        0x0 /Applications/microchip/xc32/v2.15/bin/bin/../../lib/gcc/pic32mx/4.8.3/../../../../pic32mx/lib/libc.a(_fputc_simple.o)
 .mdebug.abi32  0xa0000154        0x0 /Applications/microchip/xc32/v2.15/bin/bin/../../lib/gcc/pic32mx/4.8.3/../../../../pic32mx/lib/libc.a(atoi.o)
 .mdebug.abi32  0xa0000154        0x0 /Applications/microchip/xc32/v2.15/bin/bin/../../lib/gcc/pic32mx/4.8.3/../../../../pic32mx/lib/libc.a(ldpowers.o)
 .mdebug.abi32  0xa0000154        0x0 /Applications/microchip/xc32/v2.15/bin/bin/../../lib/gcc/pic32mx/4.8.3/../../../../pic32mx/lib/libc.a(strtof.o)
 .mdebug.abi32  0xa0000154        0x0 /Applications/microchip/xc32/v2.15/bin/bin/../../lib/gcc/pic32mx/4.8.3/../../../../pic32mx/lib/libc.a(ungetc.o)
 .mdebug.abi32  0xa0000154        0x0 /Applications/microchip/xc32/v2.15/bin/bin/../../lib/gcc/pic32mx/4.8.3/../../../../pic32mx/lib/libc.a(_iob.o)
 .mdebug.abi32  0xa0000154        0x0 /Applications/microchip/xc32/v2.15/bin/bin/../../lib/gcc/pic32mx/4.8.3/../../../../pic32mx/lib/libc.a(filbuf.o)
 .mdebug.abi32  0xa0000154        0x0 /Applications/microchip/xc32/v2.15/bin/bin/../../lib/gcc/pic32mx/4.8.3/../../../../pic32mx/lib/libc.a(_flsbuf_simple.o)
 .mdebug.abi32  0xa0000154        0x0 /Applications/microchip/xc32/v2.15/bin/bin/../../lib/gcc/pic32mx/4.8.3/../../../../pic32mx/lib/libc.a(fflush.o)
 .mdebug.abi32  0xa0000154        0x0 /Applications/microchip/xc32/v2.15/bin/bin/../../lib/gcc/pic32mx/4.8.3/../../../../pic32mx/lib/libm.a(w_powf.o)
 .mdebug.abi32  0xa0000154        0x0 /Applications/microchip/xc32/v2.15/bin/bin/../../lib/gcc/pic32mx/4.8.3/../../../../pic32mx/lib/libm.a(__strtod.o)
 .mdebug.abi32  0xa0000154        0x0 /Applications/microchip/xc32/v2.15/bin/bin/../../lib/gcc/pic32mx/4.8.3/../../../../pic32mx/lib/libm.a(__strtof.o)
 .mdebug.abi32  0xa0000154        0x0 /Applications/microchip/xc32/v2.15/bin/bin/../../lib/gcc/pic32mx/4.8.3/../../../../pic32mx/lib/libm.a(s_lib_ver.o)
 .mdebug.abi32  0xa0000154        0x0 /Applications/microchip/xc32/v2.15/bin/bin/../../lib/gcc/pic32mx/4.8.3/../../../../pic32mx/lib/libe.a(_fixunsdfdi.o)
 .mdebug.abi32  0xa0000154        0x0 /Applications/microchip/xc32/v2.15/bin/bin/../../lib/gcc/pic32mx/4.8.3/../../../../pic32mx/lib/libe.a(_orderdf2.o)
 .mdebug.abi32  0xa0000154        0x0 /Applications/microchip/xc32/v2.15/bin/bin/../../lib/gcc/pic32mx/4.8.3/../../../../pic32mx/lib/libe.a(_ldexp.o)
 .mdebug.abi32  0xa0000154        0x0 /Applications/microchip/xc32/v2.15/bin/bin/../../lib/gcc/pic32mx/4.8.3/../../../../pic32mx/lib/libe.a(_ldexpf.o)
 .mdebug.abi32  0xa0000154        0x0 /Applications/microchip/xc32/v2.15/bin/bin/../../lib/gcc/pic32mx/4.8.3/../../../../pic32mx/lib/libe.a(_fixdfdi.o)
 .mdebug.abi32  0xa0000154        0x0 /Applications/microchip/xc32/v2.15/bin/bin/../../lib/gcc/pic32mx/4.8.3/libgcc.a(_lshrdi3.o)
 .mdebug.abi32  0xa0000154        0x0 /Applications/microchip/xc32/v2.15/bin/bin/../../lib/gcc/pic32mx/4.8.3/libgcc.a(_ashldi3.o)
 .mdebug.abi32  0xa0000154        0x0 /Applications/microchip/xc32/v2.15/bin/bin/../../lib/gcc/pic32mx/4.8.3/libgcc.a(_floatundidf.o)
 .mdebug.abi32  0xa0000154        0x0 /Applications/microchip/xc32/v2.15/bin/bin/../../lib/gcc/pic32mx/4.8.3/libgcc.a(_udivdi3.o)
 .mdebug.abi32  0xa0000154        0x0 /Applications/microchip/xc32/v2.15/bin/bin/../../lib/gcc/pic32mx/4.8.3/libgcc.a(_umoddi3.o)
 .mdebug.abi32  0xa0000154        0x0 /Applications/microchip/xc32/v2.15/bin/bin/../../lib/gcc/pic32mx/4.8.3/libgcc.a(floatunsidf.o)
 .mdebug.abi32  0xa0000154        0x0 /Applications/microchip/xc32/v2.15/bin/bin/../../lib/gcc/pic32mx/4.8.3/../../../../pic32mx/lib/libpic32.a(sbrk.o)
 .mdebug.abi32  0xa0000154        0x0 /Applications/microchip/xc32/v2.15/bin/bin/../../lib/gcc/pic32mx/4.8.3/../../../../pic32mx/lib/libpic32.a(read.o)
 .mdebug.abi32  0xa0000154        0x0 /Applications/microchip/xc32/v2.15/bin/bin/../../lib/gcc/pic32mx/4.8.3/../../../../pic32mx/lib/libpic32.a(write.o)
 .mdebug.abi32  0xa0000154        0x0 /Applications/microchip/xc32/v2.15/bin/bin/../../lib/gcc/pic32mx/4.8.3/../../../../pic32mx/lib/libpic32.a(xc32_uart.o)
 .mdebug.abi32  0xa0000154        0x0 /Applications/microchip/xc32/v2.15/bin/bin/../../lib/gcc/pic32mx/4.8.3/../../../../pic32mx/lib/libpic32.a(errno.o)
 .mdebug.abi32  0xa0000154        0x0 /Applications/microchip/xc32/v2.15/bin/bin/../../lib/gcc/pic32mx/4.8.3/../../../../pic32mx/lib/libpic32.a(isinf.o)
 .mdebug.abi32  0xa0000154        0x0 /Applications/microchip/xc32/v2.15/bin/bin/../../lib/gcc/pic32mx/4.8.3/../../../../pic32mx/lib/libpic32.a(_mon_putc.o)
 .mdebug.abi32  0xa0000154        0x0 /Applications/microchip/xc32/v2.15/bin/bin/../../lib/gcc/pic32mx/4.8.3/../../../../pic32mx/lib/libe.a(_unorddf2.o)

.mdebug.abiN32
 *(.mdebug.abiN32)

.mdebug.abi64
 *(.mdebug.abi64)

.mdebug.abiO64
 *(.mdebug.abiO64)

.mdebug.eabi32
 *(.mdebug.eabi32)

.mdebug.eabi64
 *(.mdebug.eabi64)

.gcc_compiled_long32
 *(.gcc_compiled_long32)

.gcc_compiled_long64
 *(.gcc_compiled_long64)

.stab
 *(.stab)

.stabstr
 *(.stabstr)

.stab.excl
 *(.stab.excl)

.stab.exclstr
 *(.stab.exclstr)

.stab.index
 *(.stab.index)

.stab.indexstr
 *(.stab.indexstr)

.comment        0x00000000      0x404
 *(.comment)
 .comment       0x00000000       0x3c build/Board4/production/_ext/1210681131/drv_oc_mapping.o
                                 0x3d (size before relaxing)
 .comment       0x00000000       0x3d build/Board4/production/_ext/1210681131/drv_oc_static.o
 .comment       0x00000000       0x3d build/Board4/production/_ext/1612284866/drv_tmr_static.o
 .comment       0x00000000       0x3d build/Board4/production/_ext/1612284866/drv_tmr_mapping.o
 .comment       0x00000000       0x3d build/Board4/production/_ext/1303525714/drv_usart_mapping.o
 .comment       0x00000000       0x3d build/Board4/production/_ext/1303525714/drv_usart_static.o
 .comment       0x00000000       0x3d build/Board4/production/_ext/1303525714/drv_usart_static_byte_model.o
 .comment       0x00000000       0x3d build/Board4/production/_ext/635635118/sys_clk_pic32mx.o
 .comment       0x00000000       0x3d build/Board4/production/_ext/652723559/sys_devcon.o
 .comment       0x00000000       0x3d build/Board4/production/_ext/652723559/sys_devcon_pic32mx.o
 .comment       0x00000000       0x3d build/Board4/production/_ext/1842392706/sys_ports_static.o
 .comment       0x00000000       0x3d build/Board4/production/_ext/1445490757/system_init.o
 .comment       0x00000000       0x3d build/Board4/production/_ext/1445490757/system_interrupt.o
 .comment       0x00000000       0x3d build/Board4/production/_ext/1445490757/system_exceptions.o
 .comment       0x00000000       0x3d build/Board4/production/_ext/1445490757/system_tasks.o
 .comment       0x00000000       0x3d build/Board4/production/_ext/1445490757/rtos_hooks.o
 .comment       0x00000000       0x3d build/Board4/production/_ext/1360937237/motor_app.o
 .comment       0x00000000       0x3d build/Board4/production/_ext/1360937237/wifi_app.o
 .comment       0x00000000       0x3d build/Board4/production/_ext/1360937237/main.o
 .comment       0x00000000       0x3d build/Board4/production/_ext/676718598/cJSON.o
 .comment       0x00000000       0x3d build/Board4/production/_ext/676718598/debug.o
 .comment       0x00000000       0x3d build/Board4/production/_ext/676718598/http.o
 .comment       0x00000000       0x3d build/Board4/production/_ext/676718598/motor.o
 .comment       0x00000000       0x3d build/Board4/production/_ext/676718598/motor_queue.o
 .comment       0x00000000       0x3d build/Board4/production/_ext/676718598/motor_software_timer.o
 .comment       0x00000000       0x3d build/Board4/production/_ext/676718598/motor_state.o
 .comment       0x00000000       0x3d build/Board4/production/_ext/676718598/wifi_queue.o
 .comment       0x00000000       0x3d build/Board4/production/_ext/676718598/wifi_state.o
 .comment       0x00000000       0x3d build/Board4/production/_ext/676718598/wifi_timer.o
 .comment       0x00000000       0x3d build/Board4/production/_ext/676718598/pixy2Func.o
 .comment       0x00000000       0x3d build/Board4/production/_ext/676718598/pixy_app.o
 .comment       0x00000000       0x3d build/Board4/production/_ext/676718598/pixy_queue.o
 .comment       0x00000000       0x3d build/Board4/production/_ext/676718598/sensor_app.o
 .comment       0x00000000       0x3d build/Board4/production/_ext/676718598/sensor_queue.o
 .comment       0x00000000       0x3d build/Board4/production/_ext/676718598/sensor_state.o
 .comment       0x00000000       0x3d build/Board4/production/_ext/1043444669/osal_freertos.o
 .comment       0x00000000       0x3d build/Board4/production/_ext/249303043/sys_int_pic32.o
 .comment       0x00000000       0x3d build/Board4/production/_ext/905643201/heap_2.o
 .comment       0x00000000       0x3d build/Board4/production/_ext/331515796/port.o
 .comment       0x00000000       0x3d build/Board4/production/_ext/1539584926/croutine.o
 .comment       0x00000000       0x3d build/Board4/production/_ext/1539584926/list.o
 .comment       0x00000000       0x3d build/Board4/production/_ext/1539584926/queue.o
 .comment       0x00000000       0x3d build/Board4/production/_ext/1539584926/tasks.o
 .comment       0x00000000       0x3d build/Board4/production/_ext/1539584926/timers.o
 .comment       0x00000000       0x3d build/Board4/production/_ext/1539584926/event_groups.o
 .comment       0x00000000       0x3d build/Board4/production/_ext/1539584926/stream_buffer.o
 .comment       0x00000000       0x3d /Applications/microchip/xc32/v2.15/bin/bin/../../lib/gcc/pic32mx/4.8.3/libgcc.a(floatunsisf.o)
 .comment       0x0000003c       0x18 /Applications/microchip/xc32/v2.15/bin/bin/../../lib/gcc/pic32mx/4.8.3/../../../../pic32mx/lib/libpic32.a(memset.o)
                                 0x19 (size before relaxing)
 .comment       0x00000054       0x19 /Applications/microchip/xc32/v2.15/bin/bin/../../lib/gcc/pic32mx/4.8.3/../../../../pic32mx/lib/libpic32.a(strcmp.o)
                                 0x1a (size before relaxing)
 .comment       0x0000006d       0x19 /Applications/microchip/xc32/v2.15/bin/bin/../../lib/gcc/pic32mx/4.8.3/../../../../pic32mx/lib/libpic32.a(strcpy.o)
                                 0x1a (size before relaxing)
 .comment       0x00000086       0x19 /Applications/microchip/xc32/v2.15/bin/bin/../../lib/gcc/pic32mx/4.8.3/../../../../pic32mx/lib/libpic32.a(strlen.o)
                                 0x1a (size before relaxing)
 .comment       0x00000000       0x3d /Applications/microchip/xc32/v2.15/bin/bin/../../lib/gcc/pic32mx/4.8.3/../../../../pic32mx/lib/libpic32.a(default-bootstrap-exception-handler.o)
 .comment       0x00000000       0x3d /Applications/microchip/xc32/v2.15/bin/bin/../../lib/gcc/pic32mx/4.8.3/../../../../pic32mx/lib/libpic32.a(default-on-reset.o)
 .comment       0x00000000       0x3d /Applications/microchip/xc32/v2.15/bin/bin/../../lib/gcc/pic32mx/4.8.3/../../../../pic32mx/lib/libpic32.a(default-on-bootstrap.o)
 .comment       0x00000000       0x3d /Applications/microchip/xc32/v2.15/bin/bin/../../lib/gcc/pic32mx/4.8.3/../../../../pic32mx/lib/libpic32.a(defaultinterrupt.o)
 .comment       0x0000009f       0x4f /Applications/microchip/xc32/v2.15/bin/bin/../../lib/gcc/pic32mx/4.8.3/../../../../pic32mx/lib/libc.a(ctypef.o)
                                 0x8c (size before relaxing)
 .comment       0x00000000       0x3d /Applications/microchip/xc32/v2.15/bin/bin/../../lib/gcc/pic32mx/4.8.3/../../../../pic32mx/lib/libc.a(malloc.o)
 .comment       0x00000000       0x3d /Applications/microchip/xc32/v2.15/bin/bin/../../lib/gcc/pic32mx/4.8.3/../../../../pic32mx/lib/libc.a(strcat.o)
 .comment       0x00000000       0x3d /Applications/microchip/xc32/v2.15/bin/bin/../../lib/gcc/pic32mx/4.8.3/../../../../pic32mx/lib/libc.a(strncmp.o)
 .comment       0x00000000       0x3d /Applications/microchip/xc32/v2.15/bin/bin/../../lib/gcc/pic32mx/4.8.3/../../../../pic32mx/lib/libc.a(strtod.o)
 .comment       0x00000000       0x3d /Applications/microchip/xc32/v2.15/bin/bin/../../lib/gcc/pic32mx/4.8.3/../../../../pic32mx/lib/libc.a(sprintf_cdgGnopuxX.eo)
 .comment       0x00000000       0x3d /Applications/microchip/xc32/v2.15/bin/bin/../../lib/gcc/pic32mx/4.8.3/../../../../pic32mx/lib/libc.a(sscanf_gG.eo)
 .comment       0x000000ee       0x4e /Applications/microchip/xc32/v2.15/bin/bin/../../lib/gcc/pic32mx/4.8.3/../../../../pic32mx/lib/libc.a(ctype.o)
                                 0x8b (size before relaxing)
 .comment       0x00000000       0x3d /Applications/microchip/xc32/v2.15/bin/bin/../../lib/gcc/pic32mx/4.8.3/../../../../pic32mx/lib/libc.a(doprnt_cdgGnopuxX.eo)
 .comment       0x00000000       0x3d /Applications/microchip/xc32/v2.15/bin/bin/../../lib/gcc/pic32mx/4.8.3/../../../../pic32mx/lib/libc.a(doscan_gG.eo)
 .comment       0x00000000       0x3d /Applications/microchip/xc32/v2.15/bin/bin/../../lib/gcc/pic32mx/4.8.3/../../../../pic32mx/lib/libc.a(fgetc.o)
 .comment       0x00000000       0x3d /Applications/microchip/xc32/v2.15/bin/bin/../../lib/gcc/pic32mx/4.8.3/../../../../pic32mx/lib/libc.a(_fputc_simple.o)
 .comment       0x00000000       0x3d /Applications/microchip/xc32/v2.15/bin/bin/../../lib/gcc/pic32mx/4.8.3/../../../../pic32mx/lib/libc.a(atoi.o)
 .comment       0x00000000       0x3d /Applications/microchip/xc32/v2.15/bin/bin/../../lib/gcc/pic32mx/4.8.3/../../../../pic32mx/lib/libc.a(ldpowers.o)
 .comment       0x00000000       0x3d /Applications/microchip/xc32/v2.15/bin/bin/../../lib/gcc/pic32mx/4.8.3/../../../../pic32mx/lib/libc.a(strtof.o)
 .comment       0x00000000       0x3d /Applications/microchip/xc32/v2.15/bin/bin/../../lib/gcc/pic32mx/4.8.3/../../../../pic32mx/lib/libc.a(ungetc.o)
 .comment       0x00000000       0x3d /Applications/microchip/xc32/v2.15/bin/bin/../../lib/gcc/pic32mx/4.8.3/../../../../pic32mx/lib/libc.a(_iob.o)
 .comment       0x00000000       0x3d /Applications/microchip/xc32/v2.15/bin/bin/../../lib/gcc/pic32mx/4.8.3/../../../../pic32mx/lib/libc.a(filbuf.o)
 .comment       0x00000000       0x3d /Applications/microchip/xc32/v2.15/bin/bin/../../lib/gcc/pic32mx/4.8.3/../../../../pic32mx/lib/libc.a(_flsbuf_simple.o)
 .comment       0x00000000       0x3d /Applications/microchip/xc32/v2.15/bin/bin/../../lib/gcc/pic32mx/4.8.3/../../../../pic32mx/lib/libc.a(fflush.o)
 .comment       0x00000000       0x3d /Applications/microchip/xc32/v2.15/bin/bin/../../lib/gcc/pic32mx/4.8.3/../../../../pic32mx/lib/libm.a(w_powf.o)
 .comment       0x0000013c       0x9d /Applications/microchip/xc32/v2.15/bin/bin/../../lib/gcc/pic32mx/4.8.3/../../../../pic32mx/lib/libm.a(__strtod.o)
                                 0xda (size before relaxing)
 .comment       0x000001d9       0x4f /Applications/microchip/xc32/v2.15/bin/bin/../../lib/gcc/pic32mx/4.8.3/../../../../pic32mx/lib/libm.a(__strtof.o)
                                 0xda (size before relaxing)
 .comment       0x00000000       0x3d /Applications/microchip/xc32/v2.15/bin/bin/../../lib/gcc/pic32mx/4.8.3/../../../../pic32mx/lib/libm.a(s_lib_ver.o)
 .comment       0x00000228       0x51 /Applications/microchip/xc32/v2.15/bin/bin/../../lib/gcc/pic32mx/4.8.3/../../../../pic32mx/lib/libe.a(_fixunsdfdi.o)
                                 0xdc (size before relaxing)
 .comment       0x00000279       0x50 /Applications/microchip/xc32/v2.15/bin/bin/../../lib/gcc/pic32mx/4.8.3/../../../../pic32mx/lib/libe.a(_orderdf2.o)
                                 0xdb (size before relaxing)
 .comment       0x000002c9       0x50 /Applications/microchip/xc32/v2.15/bin/bin/../../lib/gcc/pic32mx/4.8.3/../../../../pic32mx/lib/libe.a(_ldexp.o)
                                 0xdb (size before relaxing)
 .comment       0x00000319       0x50 /Applications/microchip/xc32/v2.15/bin/bin/../../lib/gcc/pic32mx/4.8.3/../../../../pic32mx/lib/libe.a(_ldexpf.o)
                                 0xdb (size before relaxing)
 .comment       0x00000369       0x50 /Applications/microchip/xc32/v2.15/bin/bin/../../lib/gcc/pic32mx/4.8.3/../../../../pic32mx/lib/libe.a(_fixdfdi.o)
                                 0xdb (size before relaxing)
 .comment       0x00000000       0x3d /Applications/microchip/xc32/v2.15/bin/bin/../../lib/gcc/pic32mx/4.8.3/libgcc.a(_lshrdi3.o)
 .comment       0x00000000       0x3d /Applications/microchip/xc32/v2.15/bin/bin/../../lib/gcc/pic32mx/4.8.3/libgcc.a(_ashldi3.o)
 .comment       0x00000000       0x3d /Applications/microchip/xc32/v2.15/bin/bin/../../lib/gcc/pic32mx/4.8.3/libgcc.a(_floatundidf.o)
 .comment       0x00000000       0x3d /Applications/microchip/xc32/v2.15/bin/bin/../../lib/gcc/pic32mx/4.8.3/libgcc.a(_udivdi3.o)
 .comment       0x00000000       0x3d /Applications/microchip/xc32/v2.15/bin/bin/../../lib/gcc/pic32mx/4.8.3/libgcc.a(_umoddi3.o)
 .comment       0x00000000       0x3d /Applications/microchip/xc32/v2.15/bin/bin/../../lib/gcc/pic32mx/4.8.3/libgcc.a(floatunsidf.o)
 .comment       0x000003b9       0x4b /Applications/microchip/xc32/v2.15/bin/bin/../../lib/gcc/pic32mx/4.8.3/../../../../pic32mx/lib/libpic32.a(sbrk.o)
                                 0x88 (size before relaxing)
 .comment       0x00000000       0x3d /Applications/microchip/xc32/v2.15/bin/bin/../../lib/gcc/pic32mx/4.8.3/../../../../pic32mx/lib/libpic32.a(read.o)
 .comment       0x00000000       0x3d /Applications/microchip/xc32/v2.15/bin/bin/../../lib/gcc/pic32mx/4.8.3/../../../../pic32mx/lib/libpic32.a(write.o)
 .comment       0x00000000       0x3d /Applications/microchip/xc32/v2.15/bin/bin/../../lib/gcc/pic32mx/4.8.3/../../../../pic32mx/lib/libpic32.a(xc32_uart.o)
 .comment       0x00000000       0x3d /Applications/microchip/xc32/v2.15/bin/bin/../../lib/gcc/pic32mx/4.8.3/../../../../pic32mx/lib/libpic32.a(errno.o)
 .comment       0x00000000       0x3d /Applications/microchip/xc32/v2.15/bin/bin/../../lib/gcc/pic32mx/4.8.3/../../../../pic32mx/lib/libpic32.a(isinf.o)
 .comment       0x00000000       0x3d /Applications/microchip/xc32/v2.15/bin/bin/../../lib/gcc/pic32mx/4.8.3/../../../../pic32mx/lib/libpic32.a(_mon_putc.o)
 .comment       0x00000000       0x8b /Applications/microchip/xc32/v2.15/bin/bin/../../lib/gcc/pic32mx/4.8.3/../../../../pic32mx/lib/libe.a(_unorddf2.o)

.debug
 *(.debug)

.line
 *(.line)

.debug_srcinfo
 *(.debug_srcinfo)

.debug_sfnames
 *(.debug_sfnames)

.debug_aranges  0x00000000     0x1e48
 *(.debug_aranges)
 .debug_aranges
                0x00000000       0x50 build/Board4/production/_ext/1210681131/drv_oc_mapping.o
 .debug_aranges
                0x00000050       0x88 build/Board4/production/_ext/1210681131/drv_oc_static.o
 .debug_aranges
                0x000000d8      0x188 build/Board4/production/_ext/1612284866/drv_tmr_static.o
 .debug_aranges
                0x00000260       0xe8 build/Board4/production/_ext/1612284866/drv_tmr_mapping.o
 .debug_aranges
                0x00000348       0xb0 build/Board4/production/_ext/1303525714/drv_usart_mapping.o
 .debug_aranges
                0x000003f8      0x168 build/Board4/production/_ext/1303525714/drv_usart_static.o
 .debug_aranges
                0x00000560       0xa8 build/Board4/production/_ext/1303525714/drv_usart_static_byte_model.o
 .debug_aranges
                0x00000608       0x50 build/Board4/production/_ext/635635118/sys_clk_pic32mx.o
 .debug_aranges
                0x00000658       0x78 build/Board4/production/_ext/652723559/sys_devcon.o
 .debug_aranges
                0x000006d0       0x20 build/Board4/production/_ext/652723559/sys_devcon_pic32mx.o
 .debug_aranges
                0x000006f0      0x148 build/Board4/production/_ext/1842392706/sys_ports_static.o
 .debug_aranges
                0x00000838       0x20 build/Board4/production/_ext/1445490757/system_init.o
 .debug_aranges
                0x00000858       0x48 build/Board4/production/_ext/1445490757/system_interrupt.o
 .debug_aranges
                0x000008a0       0x20 build/Board4/production/_ext/1445490757/system_exceptions.o
 .debug_aranges
                0x000008c0       0x48 build/Board4/production/_ext/1445490757/system_tasks.o
 .debug_aranges
                0x00000908       0x78 build/Board4/production/_ext/1445490757/system_interrupt_a.o
 .debug_aranges
                0x00000980       0x28 build/Board4/production/_ext/1445490757/rtos_hooks.o
 .debug_aranges
                0x000009a8       0x28 build/Board4/production/_ext/1360937237/motor_app.o
 .debug_aranges
                0x000009d0       0x28 build/Board4/production/_ext/1360937237/wifi_app.o
 .debug_aranges
                0x000009f8       0x20 build/Board4/production/_ext/1360937237/main.o
 .debug_aranges
                0x00000a18      0x2f0 build/Board4/production/_ext/676718598/cJSON.o
 .debug_aranges
                0x00000d08       0x40 build/Board4/production/_ext/676718598/debug.o
 .debug_aranges
                0x00000d48       0xa0 build/Board4/production/_ext/676718598/http.o
 .debug_aranges
                0x00000de8       0x80 build/Board4/production/_ext/676718598/motor.o
 .debug_aranges
                0x00000e68       0x48 build/Board4/production/_ext/676718598/motor_queue.o
 .debug_aranges
                0x00000eb0       0x80 build/Board4/production/_ext/676718598/motor_software_timer.o
 .debug_aranges
                0x00000f30       0x30 build/Board4/production/_ext/676718598/motor_state.o
 .debug_aranges
                0x00000f60       0x70 build/Board4/production/_ext/676718598/wifi_queue.o
 .debug_aranges
                0x00000fd0       0x38 build/Board4/production/_ext/676718598/wifi_state.o
 .debug_aranges
                0x00001008       0x28 build/Board4/production/_ext/676718598/wifi_timer.o
 .debug_aranges
                0x00001030       0xb0 build/Board4/production/_ext/676718598/pixy2Func.o
 .debug_aranges
                0x000010e0       0x50 build/Board4/production/_ext/676718598/pixy_app.o
 .debug_aranges
                0x00001130       0x60 build/Board4/production/_ext/676718598/pixy_queue.o
 .debug_aranges
                0x00001190       0x28 build/Board4/production/_ext/676718598/sensor_app.o
 .debug_aranges
                0x000011b8       0x48 build/Board4/production/_ext/676718598/sensor_queue.o
 .debug_aranges
                0x00001200       0x28 build/Board4/production/_ext/676718598/sensor_state.o
 .debug_aranges
                0x00001228       0x88 build/Board4/production/_ext/1043444669/osal_freertos.o
 .debug_aranges
                0x000012b0       0x48 build/Board4/production/_ext/249303043/sys_int_pic32.o
 .debug_aranges
                0x000012f8       0x38 build/Board4/production/_ext/905643201/heap_2.o
 .debug_aranges
                0x00001330       0x58 build/Board4/production/_ext/331515796/port.o
 .debug_aranges
                0x00001388       0x20 build/Board4/production/_ext/331515796/port_asm.o
 .debug_aranges
                0x000013a8       0x18 build/Board4/production/_ext/1539584926/croutine.o
 .debug_aranges
                0x000013c0       0x40 build/Board4/production/_ext/1539584926/list.o
 .debug_aranges
                0x00001400       0xd0 build/Board4/production/_ext/1539584926/queue.o
 .debug_aranges
                0x000014d0      0x198 build/Board4/production/_ext/1539584926/tasks.o
 .debug_aranges
                0x00001668       0x88 build/Board4/production/_ext/1539584926/timers.o
 .debug_aranges
                0x000016f0       0x60 build/Board4/production/_ext/1539584926/event_groups.o
 .debug_aranges
                0x00001750       0xb0 build/Board4/production/_ext/1539584926/stream_buffer.o
 .debug_aranges
                0x00001800       0x20 /Applications/microchip/xc32/v2.15/bin/bin/../../lib/gcc/pic32mx/4.8.3/libgcc.a(floatunsisf.o)
 .debug_aranges
                0x00001820       0x20 /Applications/microchip/xc32/v2.15/bin/bin/../../lib/gcc/pic32mx/4.8.3/../../../../pic32mx/lib/libpic32.a(default-bootstrap-exception-handler.o)
 .debug_aranges
                0x00001840       0x20 /Applications/microchip/xc32/v2.15/bin/bin/../../lib/gcc/pic32mx/4.8.3/../../../../pic32mx/lib/libpic32.a(default-on-reset.o)
 .debug_aranges
                0x00001860       0x20 /Applications/microchip/xc32/v2.15/bin/bin/../../lib/gcc/pic32mx/4.8.3/../../../../pic32mx/lib/libpic32.a(default-on-bootstrap.o)
 .debug_aranges
                0x00001880       0x20 /Applications/microchip/xc32/v2.15/bin/bin/../../lib/gcc/pic32mx/4.8.3/../../../../pic32mx/lib/libpic32.a(defaultinterrupt.o)
 .debug_aranges
                0x000018a0       0xa0 /Applications/microchip/xc32/v2.15/bin/bin/../../lib/gcc/pic32mx/4.8.3/../../../../pic32mx/lib/libc.a(ctypef.o)
 .debug_aranges
                0x00001940       0x30 /Applications/microchip/xc32/v2.15/bin/bin/../../lib/gcc/pic32mx/4.8.3/../../../../pic32mx/lib/libc.a(malloc.o)
 .debug_aranges
                0x00001970       0x20 /Applications/microchip/xc32/v2.15/bin/bin/../../lib/gcc/pic32mx/4.8.3/../../../../pic32mx/lib/libc.a(strcat.o)
 .debug_aranges
                0x00001990       0x20 /Applications/microchip/xc32/v2.15/bin/bin/../../lib/gcc/pic32mx/4.8.3/../../../../pic32mx/lib/libc.a(strncmp.o)
 .debug_aranges
                0x000019b0       0x28 /Applications/microchip/xc32/v2.15/bin/bin/../../lib/gcc/pic32mx/4.8.3/../../../../pic32mx/lib/libc.a(strtod.o)
 .debug_aranges
                0x000019d8       0x20 /Applications/microchip/xc32/v2.15/bin/bin/../../lib/gcc/pic32mx/4.8.3/../../../../pic32mx/lib/libc.a(sprintf_cdgGnopuxX.eo)
 .debug_aranges
                0x000019f8       0x20 /Applications/microchip/xc32/v2.15/bin/bin/../../lib/gcc/pic32mx/4.8.3/../../../../pic32mx/lib/libc.a(sscanf_gG.eo)
 .debug_aranges
                0x00001a18       0x30 /Applications/microchip/xc32/v2.15/bin/bin/../../lib/gcc/pic32mx/4.8.3/../../../../pic32mx/lib/libc.a(doprnt_cdgGnopuxX.eo)
 .debug_aranges
                0x00001a48       0x30 /Applications/microchip/xc32/v2.15/bin/bin/../../lib/gcc/pic32mx/4.8.3/../../../../pic32mx/lib/libc.a(doscan_gG.eo)
 .debug_aranges
                0x00001a78       0x20 /Applications/microchip/xc32/v2.15/bin/bin/../../lib/gcc/pic32mx/4.8.3/../../../../pic32mx/lib/libc.a(fgetc.o)
 .debug_aranges
                0x00001a98       0x20 /Applications/microchip/xc32/v2.15/bin/bin/../../lib/gcc/pic32mx/4.8.3/../../../../pic32mx/lib/libc.a(_fputc_simple.o)
 .debug_aranges
                0x00001ab8       0x20 /Applications/microchip/xc32/v2.15/bin/bin/../../lib/gcc/pic32mx/4.8.3/../../../../pic32mx/lib/libc.a(atoi.o)
 .debug_aranges
                0x00001ad8       0x28 /Applications/microchip/xc32/v2.15/bin/bin/../../lib/gcc/pic32mx/4.8.3/../../../../pic32mx/lib/libc.a(strtof.o)
 .debug_aranges
                0x00001b00       0x20 /Applications/microchip/xc32/v2.15/bin/bin/../../lib/gcc/pic32mx/4.8.3/../../../../pic32mx/lib/libc.a(ungetc.o)
 .debug_aranges
                0x00001b20       0x20 /Applications/microchip/xc32/v2.15/bin/bin/../../lib/gcc/pic32mx/4.8.3/../../../../pic32mx/lib/libc.a(filbuf.o)
 .debug_aranges
                0x00001b40       0x20 /Applications/microchip/xc32/v2.15/bin/bin/../../lib/gcc/pic32mx/4.8.3/../../../../pic32mx/lib/libc.a(_flsbuf_simple.o)
 .debug_aranges
                0x00001b60       0x20 /Applications/microchip/xc32/v2.15/bin/bin/../../lib/gcc/pic32mx/4.8.3/../../../../pic32mx/lib/libc.a(fflush.o)
 .debug_aranges
                0x00001b80       0x20 /Applications/microchip/xc32/v2.15/bin/bin/../../lib/gcc/pic32mx/4.8.3/../../../../pic32mx/lib/libm.a(w_powf.o)
 .debug_aranges
                0x00001ba0       0x20 /Applications/microchip/xc32/v2.15/bin/bin/../../lib/gcc/pic32mx/4.8.3/../../../../pic32mx/lib/libm.a(__strtod.o)
 .debug_aranges
                0x00001bc0       0x20 /Applications/microchip/xc32/v2.15/bin/bin/../../lib/gcc/pic32mx/4.8.3/../../../../pic32mx/lib/libm.a(__strtof.o)
 .debug_aranges
                0x00001be0       0x20 /Applications/microchip/xc32/v2.15/bin/bin/../../lib/gcc/pic32mx/4.8.3/../../../../pic32mx/lib/libe.a(_fixunsdfdi.o)
 .debug_aranges
                0x00001c00       0x20 /Applications/microchip/xc32/v2.15/bin/bin/../../lib/gcc/pic32mx/4.8.3/../../../../pic32mx/lib/libe.a(_orderdf2.o)
 .debug_aranges
                0x00001c20       0x20 /Applications/microchip/xc32/v2.15/bin/bin/../../lib/gcc/pic32mx/4.8.3/../../../../pic32mx/lib/libe.a(_ldexp.o)
 .debug_aranges
                0x00001c40       0x20 /Applications/microchip/xc32/v2.15/bin/bin/../../lib/gcc/pic32mx/4.8.3/../../../../pic32mx/lib/libe.a(_ldexpf.o)
 .debug_aranges
                0x00001c60       0x20 /Applications/microchip/xc32/v2.15/bin/bin/../../lib/gcc/pic32mx/4.8.3/../../../../pic32mx/lib/libe.a(_fixdfdi.o)
 .debug_aranges
                0x00001c80       0x20 /Applications/microchip/xc32/v2.15/bin/bin/../../lib/gcc/pic32mx/4.8.3/libgcc.a(_lshrdi3.o)
 .debug_aranges
                0x00001ca0       0x20 /Applications/microchip/xc32/v2.15/bin/bin/../../lib/gcc/pic32mx/4.8.3/libgcc.a(_ashldi3.o)
 .debug_aranges
                0x00001cc0       0x20 /Applications/microchip/xc32/v2.15/bin/bin/../../lib/gcc/pic32mx/4.8.3/libgcc.a(_floatundidf.o)
 .debug_aranges
                0x00001ce0       0x20 /Applications/microchip/xc32/v2.15/bin/bin/../../lib/gcc/pic32mx/4.8.3/libgcc.a(_udivdi3.o)
 .debug_aranges
                0x00001d00       0x20 /Applications/microchip/xc32/v2.15/bin/bin/../../lib/gcc/pic32mx/4.8.3/libgcc.a(_umoddi3.o)
 .debug_aranges
                0x00001d20       0x20 /Applications/microchip/xc32/v2.15/bin/bin/../../lib/gcc/pic32mx/4.8.3/libgcc.a(floatunsidf.o)
 .debug_aranges
                0x00001d40       0x40 /Applications/microchip/xc32/v2.15/bin/bin/../../lib/gcc/pic32mx/4.8.3/../../../../pic32mx/lib/libpic32.a(sbrk.o)
 .debug_aranges
                0x00001d80       0x20 /Applications/microchip/xc32/v2.15/bin/bin/../../lib/gcc/pic32mx/4.8.3/../../../../pic32mx/lib/libpic32.a(read.o)
 .debug_aranges
                0x00001da0       0x20 /Applications/microchip/xc32/v2.15/bin/bin/../../lib/gcc/pic32mx/4.8.3/../../../../pic32mx/lib/libpic32.a(write.o)
 .debug_aranges
                0x00001dc0       0x48 /Applications/microchip/xc32/v2.15/bin/bin/../../lib/gcc/pic32mx/4.8.3/../../../../pic32mx/lib/libpic32.a(isinf.o)
 .debug_aranges
                0x00001e08       0x20 /Applications/microchip/xc32/v2.15/bin/bin/../../lib/gcc/pic32mx/4.8.3/../../../../pic32mx/lib/libpic32.a(_mon_putc.o)
 .debug_aranges
                0x00001e28       0x20 /Applications/microchip/xc32/v2.15/bin/bin/../../lib/gcc/pic32mx/4.8.3/../../../../pic32mx/lib/libe.a(_unorddf2.o)

.debug_pubnames
 *(.debug_pubnames)

.debug_info     0x00000000    0x5e7d3
 *(.debug_info .gnu.linkonce.wi.*)
 .debug_info    0x00000000     0x199c build/Board4/production/_ext/1210681131/drv_oc_mapping.o
 .debug_info    0x0000199c     0x12e2 build/Board4/production/_ext/1210681131/drv_oc_static.o
 .debug_info    0x00002c7e     0x575b build/Board4/production/_ext/1612284866/drv_tmr_static.o
 .debug_info    0x000083d9     0x1d50 build/Board4/production/_ext/1612284866/drv_tmr_mapping.o
 .debug_info    0x0000a129     0x2b94 build/Board4/production/_ext/1303525714/drv_usart_mapping.o
 .debug_info    0x0000ccbd     0x67a4 build/Board4/production/_ext/1303525714/drv_usart_static.o
 .debug_info    0x00013461     0x3285 build/Board4/production/_ext/1303525714/drv_usart_static_byte_model.o
 .debug_info    0x000166e6     0x1fc3 build/Board4/production/_ext/635635118/sys_clk_pic32mx.o
 .debug_info    0x000186a9     0x160e build/Board4/production/_ext/652723559/sys_devcon.o
 .debug_info    0x00019cb7     0x175d build/Board4/production/_ext/652723559/sys_devcon_pic32mx.o
 .debug_info    0x0001b414     0x40e2 build/Board4/production/_ext/1842392706/sys_ports_static.o
 .debug_info    0x0001f4f6     0x24cc build/Board4/production/_ext/1445490757/system_init.o
 .debug_info    0x000219c2     0x3581 build/Board4/production/_ext/1445490757/system_interrupt.o
 .debug_info    0x00024f43     0x14b4 build/Board4/production/_ext/1445490757/system_exceptions.o
 .debug_info    0x000263f7     0x1765 build/Board4/production/_ext/1445490757/system_tasks.o
 .debug_info    0x00027b5c       0x87 build/Board4/production/_ext/1445490757/system_interrupt_a.o
 .debug_info    0x00027be3      0x23d build/Board4/production/_ext/1445490757/rtos_hooks.o
 .debug_info    0x00027e20     0x1730 build/Board4/production/_ext/1360937237/motor_app.o
 .debug_info    0x00029550     0x1777 build/Board4/production/_ext/1360937237/wifi_app.o
 .debug_info    0x0002acc7      0x196 build/Board4/production/_ext/1360937237/main.o
 .debug_info    0x0002ae5d     0x404f build/Board4/production/_ext/676718598/cJSON.o
 .debug_info    0x0002eeac     0x1b37 build/Board4/production/_ext/676718598/debug.o
 .debug_info    0x000309e3     0x2e20 build/Board4/production/_ext/676718598/http.o
 .debug_info    0x00033803     0x2497 build/Board4/production/_ext/676718598/motor.o
 .debug_info    0x00035c9a     0x1915 build/Board4/production/_ext/676718598/motor_queue.o
 .debug_info    0x000375af     0x1bfd build/Board4/production/_ext/676718598/motor_software_timer.o
 .debug_info    0x000391ac     0x1a11 build/Board4/production/_ext/676718598/motor_state.o
 .debug_info    0x0003abbd     0x1d6b build/Board4/production/_ext/676718598/wifi_queue.o
 .debug_info    0x0003c928     0x30bf build/Board4/production/_ext/676718598/wifi_state.o
 .debug_info    0x0003f9e7     0x1873 build/Board4/production/_ext/676718598/wifi_timer.o
 .debug_info    0x0004125a     0x3678 build/Board4/production/_ext/676718598/pixy2Func.o
 .debug_info    0x000448d2     0x2541 build/Board4/production/_ext/676718598/pixy_app.o
 .debug_info    0x00046e13     0x2aa6 build/Board4/production/_ext/676718598/pixy_queue.o
 .debug_info    0x000498b9     0x1ca0 build/Board4/production/_ext/676718598/sensor_app.o
 .debug_info    0x0004b559     0x1897 build/Board4/production/_ext/676718598/sensor_queue.o
 .debug_info    0x0004cdf0     0x18dc build/Board4/production/_ext/676718598/sensor_state.o
 .debug_info    0x0004e6cc      0xa23 build/Board4/production/_ext/1043444669/osal_freertos.o
 .debug_info    0x0004f0ef     0x142c build/Board4/production/_ext/249303043/sys_int_pic32.o
 .debug_info    0x0005051b      0x57b build/Board4/production/_ext/905643201/heap_2.o
 .debug_info    0x00050a96     0x119b build/Board4/production/_ext/331515796/port.o
 .debug_info    0x00051c31       0xc1 build/Board4/production/_ext/331515796/port_asm.o
 .debug_info    0x00051cf2      0x173 build/Board4/production/_ext/1539584926/croutine.o
 .debug_info    0x00051e65      0x476 build/Board4/production/_ext/1539584926/list.o
 .debug_info    0x000522db     0x1ecd build/Board4/production/_ext/1539584926/queue.o
 .debug_info    0x000541a8     0x2b3d build/Board4/production/_ext/1539584926/tasks.o
 .debug_info    0x00056ce5     0x15bb build/Board4/production/_ext/1539584926/timers.o
 .debug_info    0x000582a0      0xd49 build/Board4/production/_ext/1539584926/event_groups.o
 .debug_info    0x00058fe9     0x16ef build/Board4/production/_ext/1539584926/stream_buffer.o
 .debug_info    0x0005a6d8      0x159 /Applications/microchip/xc32/v2.15/bin/bin/../../lib/gcc/pic32mx/4.8.3/libgcc.a(floatunsisf.o)
 .debug_info    0x0005a831      0x11f /Applications/microchip/xc32/v2.15/bin/bin/../../lib/gcc/pic32mx/4.8.3/../../../../pic32mx/lib/libpic32.a(default-bootstrap-exception-handler.o)
 .debug_info    0x0005a950       0xf8 /Applications/microchip/xc32/v2.15/bin/bin/../../lib/gcc/pic32mx/4.8.3/../../../../pic32mx/lib/libpic32.a(default-on-reset.o)
 .debug_info    0x0005aa48      0x100 /Applications/microchip/xc32/v2.15/bin/bin/../../lib/gcc/pic32mx/4.8.3/../../../../pic32mx/lib/libpic32.a(default-on-bootstrap.o)
 .debug_info    0x0005ab48      0x112 /Applications/microchip/xc32/v2.15/bin/bin/../../lib/gcc/pic32mx/4.8.3/../../../../pic32mx/lib/libpic32.a(defaultinterrupt.o)
 .debug_info    0x0005ac5a      0x264 /Applications/microchip/xc32/v2.15/bin/bin/../../lib/gcc/pic32mx/4.8.3/../../../../pic32mx/lib/libc.a(ctypef.o)
 .debug_info    0x0005aebe      0x121 /Applications/microchip/xc32/v2.15/bin/bin/../../lib/gcc/pic32mx/4.8.3/../../../../pic32mx/lib/libc.a(malloc.o)
 .debug_info    0x0005afdf       0xf0 /Applications/microchip/xc32/v2.15/bin/bin/../../lib/gcc/pic32mx/4.8.3/../../../../pic32mx/lib/libc.a(strcat.o)
 .debug_info    0x0005b0cf       0xf2 /Applications/microchip/xc32/v2.15/bin/bin/../../lib/gcc/pic32mx/4.8.3/../../../../pic32mx/lib/libc.a(strncmp.o)
 .debug_info    0x0005b1c1      0x120 /Applications/microchip/xc32/v2.15/bin/bin/../../lib/gcc/pic32mx/4.8.3/../../../../pic32mx/lib/libc.a(strtod.o)
 .debug_info    0x0005b2e1       0xfe /Applications/microchip/xc32/v2.15/bin/bin/../../lib/gcc/pic32mx/4.8.3/../../../../pic32mx/lib/libc.a(sprintf_cdgGnopuxX.eo)
 .debug_info    0x0005b3df       0xf4 /Applications/microchip/xc32/v2.15/bin/bin/../../lib/gcc/pic32mx/4.8.3/../../../../pic32mx/lib/libc.a(sscanf_gG.eo)
 .debug_info    0x0005b4d3      0x136 /Applications/microchip/xc32/v2.15/bin/bin/../../lib/gcc/pic32mx/4.8.3/../../../../pic32mx/lib/libc.a(doprnt_cdgGnopuxX.eo)
 .debug_info    0x0005b609      0x11e /Applications/microchip/xc32/v2.15/bin/bin/../../lib/gcc/pic32mx/4.8.3/../../../../pic32mx/lib/libc.a(doscan_gG.eo)
 .debug_info    0x0005b727       0xee /Applications/microchip/xc32/v2.15/bin/bin/../../lib/gcc/pic32mx/4.8.3/../../../../pic32mx/lib/libc.a(fgetc.o)
 .debug_info    0x0005b815       0xee /Applications/microchip/xc32/v2.15/bin/bin/../../lib/gcc/pic32mx/4.8.3/../../../../pic32mx/lib/libc.a(_fputc_simple.o)
 .debug_info    0x0005b903       0xec /Applications/microchip/xc32/v2.15/bin/bin/../../lib/gcc/pic32mx/4.8.3/../../../../pic32mx/lib/libc.a(atoi.o)
 .debug_info    0x0005b9ef      0x11f /Applications/microchip/xc32/v2.15/bin/bin/../../lib/gcc/pic32mx/4.8.3/../../../../pic32mx/lib/libc.a(strtof.o)
 .debug_info    0x0005bb0e       0xf0 /Applications/microchip/xc32/v2.15/bin/bin/../../lib/gcc/pic32mx/4.8.3/../../../../pic32mx/lib/libc.a(ungetc.o)
 .debug_info    0x0005bbfe       0xf1 /Applications/microchip/xc32/v2.15/bin/bin/../../lib/gcc/pic32mx/4.8.3/../../../../pic32mx/lib/libc.a(filbuf.o)
 .debug_info    0x0005bcef       0xf1 /Applications/microchip/xc32/v2.15/bin/bin/../../lib/gcc/pic32mx/4.8.3/../../../../pic32mx/lib/libc.a(_flsbuf_simple.o)
 .debug_info    0x0005bde0       0xf0 /Applications/microchip/xc32/v2.15/bin/bin/../../lib/gcc/pic32mx/4.8.3/../../../../pic32mx/lib/libc.a(fflush.o)
 .debug_info    0x0005bed0       0xe7 /Applications/microchip/xc32/v2.15/bin/bin/../../lib/gcc/pic32mx/4.8.3/../../../../pic32mx/lib/libm.a(w_powf.o)
 .debug_info    0x0005bfb7      0x103 /Applications/microchip/xc32/v2.15/bin/bin/../../lib/gcc/pic32mx/4.8.3/../../../../pic32mx/lib/libm.a(__strtod.o)
 .debug_info    0x0005c0ba      0x103 /Applications/microchip/xc32/v2.15/bin/bin/../../lib/gcc/pic32mx/4.8.3/../../../../pic32mx/lib/libm.a(__strtof.o)
 .debug_info    0x0005c1bd       0xf9 /Applications/microchip/xc32/v2.15/bin/bin/../../lib/gcc/pic32mx/4.8.3/../../../../pic32mx/lib/libe.a(_fixunsdfdi.o)
 .debug_info    0x0005c2b6       0xe5 /Applications/microchip/xc32/v2.15/bin/bin/../../lib/gcc/pic32mx/4.8.3/../../../../pic32mx/lib/libe.a(_orderdf2.o)
 .debug_info    0x0005c39b      0x104 /Applications/microchip/xc32/v2.15/bin/bin/../../lib/gcc/pic32mx/4.8.3/../../../../pic32mx/lib/libe.a(_ldexp.o)
 .debug_info    0x0005c49f      0x104 /Applications/microchip/xc32/v2.15/bin/bin/../../lib/gcc/pic32mx/4.8.3/../../../../pic32mx/lib/libe.a(_ldexpf.o)
 .debug_info    0x0005c5a3       0xe4 /Applications/microchip/xc32/v2.15/bin/bin/../../lib/gcc/pic32mx/4.8.3/../../../../pic32mx/lib/libe.a(_fixdfdi.o)
 .debug_info    0x0005c687      0x37d /Applications/microchip/xc32/v2.15/bin/bin/../../lib/gcc/pic32mx/4.8.3/libgcc.a(_lshrdi3.o)
 .debug_info    0x0005ca04      0x380 /Applications/microchip/xc32/v2.15/bin/bin/../../lib/gcc/pic32mx/4.8.3/libgcc.a(_ashldi3.o)
 .debug_info    0x0005cd84      0x2b6 /Applications/microchip/xc32/v2.15/bin/bin/../../lib/gcc/pic32mx/4.8.3/libgcc.a(_floatundidf.o)
 .debug_info    0x0005d03a      0x7bc /Applications/microchip/xc32/v2.15/bin/bin/../../lib/gcc/pic32mx/4.8.3/libgcc.a(_udivdi3.o)
 .debug_info    0x0005d7f6      0x7f9 /Applications/microchip/xc32/v2.15/bin/bin/../../lib/gcc/pic32mx/4.8.3/libgcc.a(_umoddi3.o)
 .debug_info    0x0005dfef      0x16c /Applications/microchip/xc32/v2.15/bin/bin/../../lib/gcc/pic32mx/4.8.3/libgcc.a(floatunsidf.o)
 .debug_info    0x0005e15b      0x15c /Applications/microchip/xc32/v2.15/bin/bin/../../lib/gcc/pic32mx/4.8.3/../../../../pic32mx/lib/libpic32.a(sbrk.o)
 .debug_info    0x0005e2b7       0xe8 /Applications/microchip/xc32/v2.15/bin/bin/../../lib/gcc/pic32mx/4.8.3/../../../../pic32mx/lib/libpic32.a(read.o)
 .debug_info    0x0005e39f       0xea /Applications/microchip/xc32/v2.15/bin/bin/../../lib/gcc/pic32mx/4.8.3/../../../../pic32mx/lib/libpic32.a(write.o)
 .debug_info    0x0005e489      0x15f /Applications/microchip/xc32/v2.15/bin/bin/../../lib/gcc/pic32mx/4.8.3/../../../../pic32mx/lib/libpic32.a(isinf.o)
 .debug_info    0x0005e5e8       0xf2 /Applications/microchip/xc32/v2.15/bin/bin/../../lib/gcc/pic32mx/4.8.3/../../../../pic32mx/lib/libpic32.a(_mon_putc.o)
 .debug_info    0x0005e6da       0xf9 /Applications/microchip/xc32/v2.15/bin/bin/../../lib/gcc/pic32mx/4.8.3/../../../../pic32mx/lib/libe.a(_unorddf2.o)

.debug_abbrev   0x00000000     0x7889
 *(.debug_abbrev)
 .debug_abbrev  0x00000000      0x1d6 build/Board4/production/_ext/1210681131/drv_oc_mapping.o
 .debug_abbrev  0x000001d6      0x1c2 build/Board4/production/_ext/1210681131/drv_oc_static.o
 .debug_abbrev  0x00000398      0x402 build/Board4/production/_ext/1612284866/drv_tmr_static.o
 .debug_abbrev  0x0000079a      0x2dd build/Board4/production/_ext/1612284866/drv_tmr_mapping.o
 .debug_abbrev  0x00000a77      0x250 build/Board4/production/_ext/1303525714/drv_usart_mapping.o
 .debug_abbrev  0x00000cc7      0x46d build/Board4/production/_ext/1303525714/drv_usart_static.o
 .debug_abbrev  0x00001134      0x355 build/Board4/production/_ext/1303525714/drv_usart_static_byte_model.o
 .debug_abbrev  0x00001489      0x283 build/Board4/production/_ext/635635118/sys_clk_pic32mx.o
 .debug_abbrev  0x0000170c      0x27b build/Board4/production/_ext/652723559/sys_devcon.o
 .debug_abbrev  0x00001987      0x20f build/Board4/production/_ext/652723559/sys_devcon_pic32mx.o
 .debug_abbrev  0x00001b96      0x279 build/Board4/production/_ext/1842392706/sys_ports_static.o
 .debug_abbrev  0x00001e0f      0x27f build/Board4/production/_ext/1445490757/system_init.o
 .debug_abbrev  0x0000208e      0x2bd build/Board4/production/_ext/1445490757/system_interrupt.o
 .debug_abbrev  0x0000234b      0x114 build/Board4/production/_ext/1445490757/system_exceptions.o
 .debug_abbrev  0x0000245f      0x18e build/Board4/production/_ext/1445490757/system_tasks.o
 .debug_abbrev  0x000025ed       0x12 build/Board4/production/_ext/1445490757/system_interrupt_a.o
 .debug_abbrev  0x000025ff       0x97 build/Board4/production/_ext/1445490757/rtos_hooks.o
 .debug_abbrev  0x00002696      0x18b build/Board4/production/_ext/1360937237/motor_app.o
 .debug_abbrev  0x00002821      0x19e build/Board4/production/_ext/1360937237/wifi_app.o
 .debug_abbrev  0x000029bf       0x93 build/Board4/production/_ext/1360937237/main.o
 .debug_abbrev  0x00002a52      0x4cf build/Board4/production/_ext/676718598/cJSON.o
 .debug_abbrev  0x00002f21      0x260 build/Board4/production/_ext/676718598/debug.o
 .debug_abbrev  0x00003181      0x3d3 build/Board4/production/_ext/676718598/http.o
 .debug_abbrev  0x00003554      0x288 build/Board4/production/_ext/676718598/motor.o
 .debug_abbrev  0x000037dc      0x1fc build/Board4/production/_ext/676718598/motor_queue.o
 .debug_abbrev  0x000039d8      0x1d0 build/Board4/production/_ext/676718598/motor_software_timer.o
 .debug_abbrev  0x00003ba8      0x1bc build/Board4/production/_ext/676718598/motor_state.o
 .debug_abbrev  0x00003d64      0x221 build/Board4/production/_ext/676718598/wifi_queue.o
 .debug_abbrev  0x00003f85      0x2ce build/Board4/production/_ext/676718598/wifi_state.o
 .debug_abbrev  0x00004253      0x1be build/Board4/production/_ext/676718598/wifi_timer.o
 .debug_abbrev  0x00004411      0x356 build/Board4/production/_ext/676718598/pixy2Func.o
 .debug_abbrev  0x00004767      0x294 build/Board4/production/_ext/676718598/pixy_app.o
 .debug_abbrev  0x000049fb      0x2c5 build/Board4/production/_ext/676718598/pixy_queue.o
 .debug_abbrev  0x00004cc0      0x225 build/Board4/production/_ext/676718598/sensor_app.o
 .debug_abbrev  0x00004ee5      0x24d build/Board4/production/_ext/676718598/sensor_queue.o
 .debug_abbrev  0x00005132      0x1b8 build/Board4/production/_ext/676718598/sensor_state.o
 .debug_abbrev  0x000052ea      0x1fe build/Board4/production/_ext/1043444669/osal_freertos.o
 .debug_abbrev  0x000054e8      0x237 build/Board4/production/_ext/249303043/sys_int_pic32.o
 .debug_abbrev  0x0000571f      0x1cc build/Board4/production/_ext/905643201/heap_2.o
 .debug_abbrev  0x000058eb      0x2cf build/Board4/production/_ext/331515796/port.o
 .debug_abbrev  0x00005bba       0x14 build/Board4/production/_ext/331515796/port_asm.o
 .debug_abbrev  0x00005bce       0x1b build/Board4/production/_ext/1539584926/croutine.o
 .debug_abbrev  0x00005be9       0xf8 build/Board4/production/_ext/1539584926/list.o
 .debug_abbrev  0x00005ce1      0x34a build/Board4/production/_ext/1539584926/queue.o
 .debug_abbrev  0x0000602b      0x3a3 build/Board4/production/_ext/1539584926/tasks.o
 .debug_abbrev  0x000063ce      0x373 build/Board4/production/_ext/1539584926/timers.o
 .debug_abbrev  0x00006741      0x27d build/Board4/production/_ext/1539584926/event_groups.o
 .debug_abbrev  0x000069be      0x2dd build/Board4/production/_ext/1539584926/stream_buffer.o
 .debug_abbrev  0x00006c9b       0x62 /Applications/microchip/xc32/v2.15/bin/bin/../../lib/gcc/pic32mx/4.8.3/libgcc.a(floatunsisf.o)
 .debug_abbrev  0x00006cfd       0x28 /Applications/microchip/xc32/v2.15/bin/bin/../../lib/gcc/pic32mx/4.8.3/../../../../pic32mx/lib/libpic32.a(default-bootstrap-exception-handler.o)
 .debug_abbrev  0x00006d25       0x28 /Applications/microchip/xc32/v2.15/bin/bin/../../lib/gcc/pic32mx/4.8.3/../../../../pic32mx/lib/libpic32.a(default-on-reset.o)
 .debug_abbrev  0x00006d4d       0x28 /Applications/microchip/xc32/v2.15/bin/bin/../../lib/gcc/pic32mx/4.8.3/../../../../pic32mx/lib/libpic32.a(default-on-bootstrap.o)
 .debug_abbrev  0x00006d75       0x28 /Applications/microchip/xc32/v2.15/bin/bin/../../lib/gcc/pic32mx/4.8.3/../../../../pic32mx/lib/libpic32.a(defaultinterrupt.o)
 .debug_abbrev  0x00006d9d       0x28 /Applications/microchip/xc32/v2.15/bin/bin/../../lib/gcc/pic32mx/4.8.3/../../../../pic32mx/lib/libc.a(ctypef.o)
 .debug_abbrev  0x00006dc5       0x47 /Applications/microchip/xc32/v2.15/bin/bin/../../lib/gcc/pic32mx/4.8.3/../../../../pic32mx/lib/libc.a(malloc.o)
 .debug_abbrev  0x00006e0c       0x28 /Applications/microchip/xc32/v2.15/bin/bin/../../lib/gcc/pic32mx/4.8.3/../../../../pic32mx/lib/libc.a(strcat.o)
 .debug_abbrev  0x00006e34       0x28 /Applications/microchip/xc32/v2.15/bin/bin/../../lib/gcc/pic32mx/4.8.3/../../../../pic32mx/lib/libc.a(strncmp.o)
 .debug_abbrev  0x00006e5c       0x4f /Applications/microchip/xc32/v2.15/bin/bin/../../lib/gcc/pic32mx/4.8.3/../../../../pic32mx/lib/libc.a(strtod.o)
 .debug_abbrev  0x00006eab       0x28 /Applications/microchip/xc32/v2.15/bin/bin/../../lib/gcc/pic32mx/4.8.3/../../../../pic32mx/lib/libc.a(sprintf_cdgGnopuxX.eo)
 .debug_abbrev  0x00006ed3       0x28 /Applications/microchip/xc32/v2.15/bin/bin/../../lib/gcc/pic32mx/4.8.3/../../../../pic32mx/lib/libc.a(sscanf_gG.eo)
 .debug_abbrev  0x00006efb       0x45 /Applications/microchip/xc32/v2.15/bin/bin/../../lib/gcc/pic32mx/4.8.3/../../../../pic32mx/lib/libc.a(doprnt_cdgGnopuxX.eo)
 .debug_abbrev  0x00006f40       0x3c /Applications/microchip/xc32/v2.15/bin/bin/../../lib/gcc/pic32mx/4.8.3/../../../../pic32mx/lib/libc.a(doscan_gG.eo)
 .debug_abbrev  0x00006f7c       0x28 /Applications/microchip/xc32/v2.15/bin/bin/../../lib/gcc/pic32mx/4.8.3/../../../../pic32mx/lib/libc.a(fgetc.o)
 .debug_abbrev  0x00006fa4       0x28 /Applications/microchip/xc32/v2.15/bin/bin/../../lib/gcc/pic32mx/4.8.3/../../../../pic32mx/lib/libc.a(_fputc_simple.o)
 .debug_abbrev  0x00006fcc       0x28 /Applications/microchip/xc32/v2.15/bin/bin/../../lib/gcc/pic32mx/4.8.3/../../../../pic32mx/lib/libc.a(atoi.o)
 .debug_abbrev  0x00006ff4       0x4f /Applications/microchip/xc32/v2.15/bin/bin/../../lib/gcc/pic32mx/4.8.3/../../../../pic32mx/lib/libc.a(strtof.o)
 .debug_abbrev  0x00007043       0x28 /Applications/microchip/xc32/v2.15/bin/bin/../../lib/gcc/pic32mx/4.8.3/../../../../pic32mx/lib/libc.a(ungetc.o)
 .debug_abbrev  0x0000706b       0x28 /Applications/microchip/xc32/v2.15/bin/bin/../../lib/gcc/pic32mx/4.8.3/../../../../pic32mx/lib/libc.a(filbuf.o)
 .debug_abbrev  0x00007093       0x28 /Applications/microchip/xc32/v2.15/bin/bin/../../lib/gcc/pic32mx/4.8.3/../../../../pic32mx/lib/libc.a(_flsbuf_simple.o)
 .debug_abbrev  0x000070bb       0x28 /Applications/microchip/xc32/v2.15/bin/bin/../../lib/gcc/pic32mx/4.8.3/../../../../pic32mx/lib/libc.a(fflush.o)
 .debug_abbrev  0x000070e3       0x28 /Applications/microchip/xc32/v2.15/bin/bin/../../lib/gcc/pic32mx/4.8.3/../../../../pic32mx/lib/libm.a(w_powf.o)
 .debug_abbrev  0x0000710b       0x35 /Applications/microchip/xc32/v2.15/bin/bin/../../lib/gcc/pic32mx/4.8.3/../../../../pic32mx/lib/libm.a(__strtod.o)
 .debug_abbrev  0x00007140       0x35 /Applications/microchip/xc32/v2.15/bin/bin/../../lib/gcc/pic32mx/4.8.3/../../../../pic32mx/lib/libm.a(__strtof.o)
 .debug_abbrev  0x00007175       0x37 /Applications/microchip/xc32/v2.15/bin/bin/../../lib/gcc/pic32mx/4.8.3/../../../../pic32mx/lib/libe.a(_fixunsdfdi.o)
 .debug_abbrev  0x000071ac       0x28 /Applications/microchip/xc32/v2.15/bin/bin/../../lib/gcc/pic32mx/4.8.3/../../../../pic32mx/lib/libe.a(_orderdf2.o)
 .debug_abbrev  0x000071d4       0x35 /Applications/microchip/xc32/v2.15/bin/bin/../../lib/gcc/pic32mx/4.8.3/../../../../pic32mx/lib/libe.a(_ldexp.o)
 .debug_abbrev  0x00007209       0x35 /Applications/microchip/xc32/v2.15/bin/bin/../../lib/gcc/pic32mx/4.8.3/../../../../pic32mx/lib/libe.a(_ldexpf.o)
 .debug_abbrev  0x0000723e       0x28 /Applications/microchip/xc32/v2.15/bin/bin/../../lib/gcc/pic32mx/4.8.3/../../../../pic32mx/lib/libe.a(_fixdfdi.o)
 .debug_abbrev  0x00007266       0xd7 /Applications/microchip/xc32/v2.15/bin/bin/../../lib/gcc/pic32mx/4.8.3/libgcc.a(_lshrdi3.o)
 .debug_abbrev  0x0000733d       0xc8 /Applications/microchip/xc32/v2.15/bin/bin/../../lib/gcc/pic32mx/4.8.3/libgcc.a(_ashldi3.o)
 .debug_abbrev  0x00007405       0x64 /Applications/microchip/xc32/v2.15/bin/bin/../../lib/gcc/pic32mx/4.8.3/libgcc.a(_floatundidf.o)
 .debug_abbrev  0x00007469      0x138 /Applications/microchip/xc32/v2.15/bin/bin/../../lib/gcc/pic32mx/4.8.3/libgcc.a(_udivdi3.o)
 .debug_abbrev  0x000075a1      0x147 /Applications/microchip/xc32/v2.15/bin/bin/../../lib/gcc/pic32mx/4.8.3/libgcc.a(_umoddi3.o)
 .debug_abbrev  0x000076e8       0x62 /Applications/microchip/xc32/v2.15/bin/bin/../../lib/gcc/pic32mx/4.8.3/libgcc.a(floatunsidf.o)
 .debug_abbrev  0x0000774a       0x54 /Applications/microchip/xc32/v2.15/bin/bin/../../lib/gcc/pic32mx/4.8.3/../../../../pic32mx/lib/libpic32.a(sbrk.o)
 .debug_abbrev  0x0000779e       0x28 /Applications/microchip/xc32/v2.15/bin/bin/../../lib/gcc/pic32mx/4.8.3/../../../../pic32mx/lib/libpic32.a(read.o)
 .debug_abbrev  0x000077c6       0x28 /Applications/microchip/xc32/v2.15/bin/bin/../../lib/gcc/pic32mx/4.8.3/../../../../pic32mx/lib/libpic32.a(write.o)
 .debug_abbrev  0x000077ee       0x3e /Applications/microchip/xc32/v2.15/bin/bin/../../lib/gcc/pic32mx/4.8.3/../../../../pic32mx/lib/libpic32.a(isinf.o)
 .debug_abbrev  0x0000782c       0x28 /Applications/microchip/xc32/v2.15/bin/bin/../../lib/gcc/pic32mx/4.8.3/../../../../pic32mx/lib/libpic32.a(_mon_putc.o)
 .debug_abbrev  0x00007854       0x35 /Applications/microchip/xc32/v2.15/bin/bin/../../lib/gcc/pic32mx/4.8.3/../../../../pic32mx/lib/libe.a(_unorddf2.o)

.debug_line     0x00000000    0x104ef
 *(.debug_line)
 .debug_line    0x00000000      0x486 build/Board4/production/_ext/1210681131/drv_oc_mapping.o
 .debug_line    0x00000486      0x3f5 build/Board4/production/_ext/1210681131/drv_oc_static.o
 .debug_line    0x0000087b      0xac5 build/Board4/production/_ext/1612284866/drv_tmr_static.o
 .debug_line    0x00001340      0x556 build/Board4/production/_ext/1612284866/drv_tmr_mapping.o
 .debug_line    0x00001896      0x685 build/Board4/production/_ext/1303525714/drv_usart_mapping.o
 .debug_line    0x00001f1b      0xe7c build/Board4/production/_ext/1303525714/drv_usart_static.o
 .debug_line    0x00002d97      0x77f build/Board4/production/_ext/1303525714/drv_usart_static_byte_model.o
 .debug_line    0x00003516      0x635 build/Board4/production/_ext/635635118/sys_clk_pic32mx.o
 .debug_line    0x00003b4b      0x68c build/Board4/production/_ext/652723559/sys_devcon.o
 .debug_line    0x000041d7      0x4bc build/Board4/production/_ext/652723559/sys_devcon_pic32mx.o
 .debug_line    0x00004693      0x76e build/Board4/production/_ext/1842392706/sys_ports_static.o
 .debug_line    0x00004e01      0x756 build/Board4/production/_ext/1445490757/system_init.o
 .debug_line    0x00005557      0x6ce build/Board4/production/_ext/1445490757/system_interrupt.o
 .debug_line    0x00005c25      0x328 build/Board4/production/_ext/1445490757/system_exceptions.o
 .debug_line    0x00005f4d      0x438 build/Board4/production/_ext/1445490757/system_tasks.o
 .debug_line    0x00006385      0x14d build/Board4/production/_ext/1445490757/system_interrupt_a.o
 .debug_line    0x000064d2      0x134 build/Board4/production/_ext/1445490757/rtos_hooks.o
 .debug_line    0x00006606      0x330 build/Board4/production/_ext/1360937237/motor_app.o
 .debug_line    0x00006936      0x31d build/Board4/production/_ext/1360937237/wifi_app.o
 .debug_line    0x00006c53       0xb3 build/Board4/production/_ext/1360937237/main.o
 .debug_line    0x00006d06      0xd53 build/Board4/production/_ext/676718598/cJSON.o
 .debug_line    0x00007a59      0x4e0 build/Board4/production/_ext/676718598/debug.o
 .debug_line    0x00007f39      0x59a build/Board4/production/_ext/676718598/http.o
 .debug_line    0x000084d3      0x5cf build/Board4/production/_ext/676718598/motor.o
 .debug_line    0x00008aa2      0x3ca build/Board4/production/_ext/676718598/motor_queue.o
 .debug_line    0x00008e6c      0x46d build/Board4/production/_ext/676718598/motor_software_timer.o
 .debug_line    0x000092d9      0x371 build/Board4/production/_ext/676718598/motor_state.o
 .debug_line    0x0000964a      0x448 build/Board4/production/_ext/676718598/wifi_queue.o
 .debug_line    0x00009a92      0x5bb build/Board4/production/_ext/676718598/wifi_state.o
 .debug_line    0x0000a04d      0x39a build/Board4/production/_ext/676718598/wifi_timer.o
 .debug_line    0x0000a3e7      0x71e build/Board4/production/_ext/676718598/pixy2Func.o
 .debug_line    0x0000ab05      0x4f5 build/Board4/production/_ext/676718598/pixy_app.o
 .debug_line    0x0000affa      0x50f build/Board4/production/_ext/676718598/pixy_queue.o
 .debug_line    0x0000b509      0x399 build/Board4/production/_ext/676718598/sensor_app.o
 .debug_line    0x0000b8a2      0x3c2 build/Board4/production/_ext/676718598/sensor_queue.o
 .debug_line    0x0000bc64      0x353 build/Board4/production/_ext/676718598/sensor_state.o
 .debug_line    0x0000bfb7      0x305 build/Board4/production/_ext/1043444669/osal_freertos.o
 .debug_line    0x0000c2bc      0x2eb build/Board4/production/_ext/249303043/sys_int_pic32.o
 .debug_line    0x0000c5a7      0x24a build/Board4/production/_ext/905643201/heap_2.o
 .debug_line    0x0000c7f1      0x23e build/Board4/production/_ext/331515796/port.o
 .debug_line    0x0000ca2f      0x119 build/Board4/production/_ext/331515796/port_asm.o
 .debug_line    0x0000cb48       0x1d build/Board4/production/_ext/1539584926/croutine.o
 .debug_line    0x0000cb65      0x1f3 build/Board4/production/_ext/1539584926/list.o
 .debug_line    0x0000cd58      0x555 build/Board4/production/_ext/1539584926/queue.o
 .debug_line    0x0000d2ad      0x853 build/Board4/production/_ext/1539584926/tasks.o
 .debug_line    0x0000db00      0x3d9 build/Board4/production/_ext/1539584926/timers.o
 .debug_line    0x0000ded9      0x332 build/Board4/production/_ext/1539584926/event_groups.o
 .debug_line    0x0000e20b      0x425 build/Board4/production/_ext/1539584926/stream_buffer.o
 .debug_line    0x0000e630       0xc4 /Applications/microchip/xc32/v2.15/bin/bin/../../lib/gcc/pic32mx/4.8.3/libgcc.a(floatunsisf.o)
 .debug_line    0x0000e6f4       0xd1 /Applications/microchip/xc32/v2.15/bin/bin/../../lib/gcc/pic32mx/4.8.3/../../../../pic32mx/lib/libpic32.a(default-bootstrap-exception-handler.o)
 .debug_line    0x0000e7c5       0xbe /Applications/microchip/xc32/v2.15/bin/bin/../../lib/gcc/pic32mx/4.8.3/../../../../pic32mx/lib/libpic32.a(default-on-reset.o)
 .debug_line    0x0000e883       0xc2 /Applications/microchip/xc32/v2.15/bin/bin/../../lib/gcc/pic32mx/4.8.3/../../../../pic32mx/lib/libpic32.a(default-on-bootstrap.o)
 .debug_line    0x0000e945       0xd0 /Applications/microchip/xc32/v2.15/bin/bin/../../lib/gcc/pic32mx/4.8.3/../../../../pic32mx/lib/libpic32.a(defaultinterrupt.o)
 .debug_line    0x0000ea15       0xaa /Applications/microchip/xc32/v2.15/bin/bin/../../lib/gcc/pic32mx/4.8.3/../../../../pic32mx/lib/libc.a(ctypef.o)
 .debug_line    0x0000eabf       0xaa /Applications/microchip/xc32/v2.15/bin/bin/../../lib/gcc/pic32mx/4.8.3/../../../../pic32mx/lib/libc.a(malloc.o)
 .debug_line    0x0000eb69       0xaa /Applications/microchip/xc32/v2.15/bin/bin/../../lib/gcc/pic32mx/4.8.3/../../../../pic32mx/lib/libc.a(strcat.o)
 .debug_line    0x0000ec13       0xab /Applications/microchip/xc32/v2.15/bin/bin/../../lib/gcc/pic32mx/4.8.3/../../../../pic32mx/lib/libc.a(strncmp.o)
 .debug_line    0x0000ecbe       0xaa /Applications/microchip/xc32/v2.15/bin/bin/../../lib/gcc/pic32mx/4.8.3/../../../../pic32mx/lib/libc.a(strtod.o)
 .debug_line    0x0000ed68       0xab /Applications/microchip/xc32/v2.15/bin/bin/../../lib/gcc/pic32mx/4.8.3/../../../../pic32mx/lib/libc.a(sprintf_cdgGnopuxX.eo)
 .debug_line    0x0000ee13       0xaa /Applications/microchip/xc32/v2.15/bin/bin/../../lib/gcc/pic32mx/4.8.3/../../../../pic32mx/lib/libc.a(sscanf_gG.eo)
 .debug_line    0x0000eebd        0x0 /Applications/microchip/xc32/v2.15/bin/bin/../../lib/gcc/pic32mx/4.8.3/../../../../pic32mx/lib/libc.a(ctype.o)
 .debug_line    0x0000eebd       0xaa /Applications/microchip/xc32/v2.15/bin/bin/../../lib/gcc/pic32mx/4.8.3/../../../../pic32mx/lib/libc.a(doprnt_cdgGnopuxX.eo)
 .debug_line    0x0000ef67       0xaa /Applications/microchip/xc32/v2.15/bin/bin/../../lib/gcc/pic32mx/4.8.3/../../../../pic32mx/lib/libc.a(doscan_gG.eo)
 .debug_line    0x0000f011       0xa9 /Applications/microchip/xc32/v2.15/bin/bin/../../lib/gcc/pic32mx/4.8.3/../../../../pic32mx/lib/libc.a(fgetc.o)
 .debug_line    0x0000f0ba       0xa9 /Applications/microchip/xc32/v2.15/bin/bin/../../lib/gcc/pic32mx/4.8.3/../../../../pic32mx/lib/libc.a(_fputc_simple.o)
 .debug_line    0x0000f163       0xa8 /Applications/microchip/xc32/v2.15/bin/bin/../../lib/gcc/pic32mx/4.8.3/../../../../pic32mx/lib/libc.a(atoi.o)
 .debug_line    0x0000f20b        0x0 /Applications/microchip/xc32/v2.15/bin/bin/../../lib/gcc/pic32mx/4.8.3/../../../../pic32mx/lib/libc.a(ldpowers.o)
 .debug_line    0x0000f20b       0xaa /Applications/microchip/xc32/v2.15/bin/bin/../../lib/gcc/pic32mx/4.8.3/../../../../pic32mx/lib/libc.a(strtof.o)
 .debug_line    0x0000f2b5       0xaa /Applications/microchip/xc32/v2.15/bin/bin/../../lib/gcc/pic32mx/4.8.3/../../../../pic32mx/lib/libc.a(ungetc.o)
 .debug_line    0x0000f35f        0x0 /Applications/microchip/xc32/v2.15/bin/bin/../../lib/gcc/pic32mx/4.8.3/../../../../pic32mx/lib/libc.a(_iob.o)
 .debug_line    0x0000f35f       0xaa /Applications/microchip/xc32/v2.15/bin/bin/../../lib/gcc/pic32mx/4.8.3/../../../../pic32mx/lib/libc.a(filbuf.o)
 .debug_line    0x0000f409       0xaa /Applications/microchip/xc32/v2.15/bin/bin/../../lib/gcc/pic32mx/4.8.3/../../../../pic32mx/lib/libc.a(_flsbuf_simple.o)
 .debug_line    0x0000f4b3       0xaa /Applications/microchip/xc32/v2.15/bin/bin/../../lib/gcc/pic32mx/4.8.3/../../../../pic32mx/lib/libc.a(fflush.o)
 .debug_line    0x0000f55d       0xb1 /Applications/microchip/xc32/v2.15/bin/bin/../../lib/gcc/pic32mx/4.8.3/../../../../pic32mx/lib/libm.a(w_powf.o)
 .debug_line    0x0000f60e       0xb3 /Applications/microchip/xc32/v2.15/bin/bin/../../lib/gcc/pic32mx/4.8.3/../../../../pic32mx/lib/libm.a(__strtod.o)
 .debug_line    0x0000f6c1       0xb3 /Applications/microchip/xc32/v2.15/bin/bin/../../lib/gcc/pic32mx/4.8.3/../../../../pic32mx/lib/libm.a(__strtof.o)
 .debug_line    0x0000f774        0x0 /Applications/microchip/xc32/v2.15/bin/bin/../../lib/gcc/pic32mx/4.8.3/../../../../pic32mx/lib/libm.a(s_lib_ver.o)
 .debug_line    0x0000f774       0xad /Applications/microchip/xc32/v2.15/bin/bin/../../lib/gcc/pic32mx/4.8.3/../../../../pic32mx/lib/libe.a(_fixunsdfdi.o)
 .debug_line    0x0000f821       0xac /Applications/microchip/xc32/v2.15/bin/bin/../../lib/gcc/pic32mx/4.8.3/../../../../pic32mx/lib/libe.a(_orderdf2.o)
 .debug_line    0x0000f8cd       0xcd /Applications/microchip/xc32/v2.15/bin/bin/../../lib/gcc/pic32mx/4.8.3/../../../../pic32mx/lib/libe.a(_ldexp.o)
 .debug_line    0x0000f99a       0xcd /Applications/microchip/xc32/v2.15/bin/bin/../../lib/gcc/pic32mx/4.8.3/../../../../pic32mx/lib/libe.a(_ldexpf.o)
 .debug_line    0x0000fa67       0xac /Applications/microchip/xc32/v2.15/bin/bin/../../lib/gcc/pic32mx/4.8.3/../../../../pic32mx/lib/libe.a(_fixdfdi.o)
 .debug_line    0x0000fb13       0xd5 /Applications/microchip/xc32/v2.15/bin/bin/../../lib/gcc/pic32mx/4.8.3/libgcc.a(_lshrdi3.o)
 .debug_line    0x0000fbe8       0xd5 /Applications/microchip/xc32/v2.15/bin/bin/../../lib/gcc/pic32mx/4.8.3/libgcc.a(_ashldi3.o)
 .debug_line    0x0000fcbd       0xd5 /Applications/microchip/xc32/v2.15/bin/bin/../../lib/gcc/pic32mx/4.8.3/libgcc.a(_floatundidf.o)
 .debug_line    0x0000fd92      0x127 /Applications/microchip/xc32/v2.15/bin/bin/../../lib/gcc/pic32mx/4.8.3/libgcc.a(_udivdi3.o)
 .debug_line    0x0000feb9      0x139 /Applications/microchip/xc32/v2.15/bin/bin/../../lib/gcc/pic32mx/4.8.3/libgcc.a(_umoddi3.o)
 .debug_line    0x0000fff2       0xc3 /Applications/microchip/xc32/v2.15/bin/bin/../../lib/gcc/pic32mx/4.8.3/libgcc.a(floatunsidf.o)
 .debug_line    0x000100b5       0xb2 /Applications/microchip/xc32/v2.15/bin/bin/../../lib/gcc/pic32mx/4.8.3/../../../../pic32mx/lib/libpic32.a(sbrk.o)
 .debug_line    0x00010167       0xb2 /Applications/microchip/xc32/v2.15/bin/bin/../../lib/gcc/pic32mx/4.8.3/../../../../pic32mx/lib/libpic32.a(read.o)
 .debug_line    0x00010219       0xb3 /Applications/microchip/xc32/v2.15/bin/bin/../../lib/gcc/pic32mx/4.8.3/../../../../pic32mx/lib/libpic32.a(write.o)
 .debug_line    0x000102cc        0x0 /Applications/microchip/xc32/v2.15/bin/bin/../../lib/gcc/pic32mx/4.8.3/../../../../pic32mx/lib/libpic32.a(xc32_uart.o)
 .debug_line    0x000102cc        0x0 /Applications/microchip/xc32/v2.15/bin/bin/../../lib/gcc/pic32mx/4.8.3/../../../../pic32mx/lib/libpic32.a(errno.o)
 .debug_line    0x000102cc       0xb3 /Applications/microchip/xc32/v2.15/bin/bin/../../lib/gcc/pic32mx/4.8.3/../../../../pic32mx/lib/libpic32.a(isinf.o)
 .debug_line    0x0001037f       0xb7 /Applications/microchip/xc32/v2.15/bin/bin/../../lib/gcc/pic32mx/4.8.3/../../../../pic32mx/lib/libpic32.a(_mon_putc.o)
 .debug_line    0x00010436       0xb9 /Applications/microchip/xc32/v2.15/bin/bin/../../lib/gcc/pic32mx/4.8.3/../../../../pic32mx/lib/libe.a(_unorddf2.o)

.debug_frame    0x00000000     0x4184
 *(.debug_frame)
 .debug_frame   0x00000000       0xa8 build/Board4/production/_ext/1210681131/drv_oc_mapping.o
 .debug_frame   0x000000a8       0xf0 build/Board4/production/_ext/1210681131/drv_oc_static.o
 .debug_frame   0x00000198      0x31c build/Board4/production/_ext/1612284866/drv_tmr_static.o
 .debug_frame   0x000004b4      0x218 build/Board4/production/_ext/1612284866/drv_tmr_mapping.o
 .debug_frame   0x000006cc      0x1d8 build/Board4/production/_ext/1303525714/drv_usart_mapping.o
 .debug_frame   0x000008a4      0x340 build/Board4/production/_ext/1303525714/drv_usart_static.o
 .debug_frame   0x00000be4      0x160 build/Board4/production/_ext/1303525714/drv_usart_static_byte_model.o
 .debug_frame   0x00000d44       0xa0 build/Board4/production/_ext/635635118/sys_clk_pic32mx.o
 .debug_frame   0x00000de4       0xe8 build/Board4/production/_ext/652723559/sys_devcon.o
 .debug_frame   0x00000ecc       0x28 build/Board4/production/_ext/652723559/sys_devcon_pic32mx.o
 .debug_frame   0x00000ef4      0x270 build/Board4/production/_ext/1842392706/sys_ports_static.o
 .debug_frame   0x00001164       0x28 build/Board4/production/_ext/1445490757/system_init.o
 .debug_frame   0x0000118c       0x88 build/Board4/production/_ext/1445490757/system_interrupt.o
 .debug_frame   0x00001214       0x28 build/Board4/production/_ext/1445490757/system_exceptions.o
 .debug_frame   0x0000123c       0x98 build/Board4/production/_ext/1445490757/system_tasks.o
 .debug_frame   0x000012d4       0x40 build/Board4/production/_ext/1445490757/rtos_hooks.o
 .debug_frame   0x00001314       0x40 build/Board4/production/_ext/1360937237/motor_app.o
 .debug_frame   0x00001354       0x40 build/Board4/production/_ext/1360937237/wifi_app.o
 .debug_frame   0x00001394       0x28 build/Board4/production/_ext/1360937237/main.o
 .debug_frame   0x000013bc      0x950 build/Board4/production/_ext/676718598/cJSON.o
 .debug_frame   0x00001d0c       0x78 build/Board4/production/_ext/676718598/debug.o
 .debug_frame   0x00001d84      0x208 build/Board4/production/_ext/676718598/http.o
 .debug_frame   0x00001f8c      0x13c build/Board4/production/_ext/676718598/motor.o
 .debug_frame   0x000020c8       0xa0 build/Board4/production/_ext/676718598/motor_queue.o
 .debug_frame   0x00002168      0x148 build/Board4/production/_ext/676718598/motor_software_timer.o
 .debug_frame   0x000022b0       0x58 build/Board4/production/_ext/676718598/motor_state.o
 .debug_frame   0x00002308      0x11c build/Board4/production/_ext/676718598/wifi_queue.o
 .debug_frame   0x00002424       0x84 build/Board4/production/_ext/676718598/wifi_state.o
 .debug_frame   0x000024a8       0x40 build/Board4/production/_ext/676718598/wifi_timer.o
 .debug_frame   0x000024e8      0x178 build/Board4/production/_ext/676718598/pixy2Func.o
 .debug_frame   0x00002660       0xb0 build/Board4/production/_ext/676718598/pixy_app.o
 .debug_frame   0x00002710       0xec build/Board4/production/_ext/676718598/pixy_queue.o
 .debug_frame   0x000027fc       0x40 build/Board4/production/_ext/676718598/sensor_app.o
 .debug_frame   0x0000283c       0xa0 build/Board4/production/_ext/676718598/sensor_queue.o
 .debug_frame   0x000028dc       0x40 build/Board4/production/_ext/676718598/sensor_state.o
 .debug_frame   0x0000291c      0x150 build/Board4/production/_ext/1043444669/osal_freertos.o
 .debug_frame   0x00002a6c       0x90 build/Board4/production/_ext/249303043/sys_int_pic32.o
 .debug_frame   0x00002afc       0x64 build/Board4/production/_ext/905643201/heap_2.o
 .debug_frame   0x00002b60       0xc0 build/Board4/production/_ext/331515796/port.o
 .debug_frame   0x00002c20       0x60 build/Board4/production/_ext/1539584926/list.o
 .debug_frame   0x00002c80      0x28c build/Board4/production/_ext/1539584926/queue.o
 .debug_frame   0x00002f0c      0x4b8 build/Board4/production/_ext/1539584926/tasks.o
 .debug_frame   0x000033c4      0x164 build/Board4/production/_ext/1539584926/timers.o
 .debug_frame   0x00003528      0x108 build/Board4/production/_ext/1539584926/event_groups.o
 .debug_frame   0x00003630      0x218 build/Board4/production/_ext/1539584926/stream_buffer.o
 .debug_frame   0x00003848       0x28 /Applications/microchip/xc32/v2.15/bin/bin/../../lib/gcc/pic32mx/4.8.3/libgcc.a(floatunsisf.o)
 .debug_frame   0x00003870       0x2c /Applications/microchip/xc32/v2.15/bin/bin/../../lib/gcc/pic32mx/4.8.3/../../../../pic32mx/lib/libpic32.a(default-bootstrap-exception-handler.o)
 .debug_frame   0x0000389c       0x20 /Applications/microchip/xc32/v2.15/bin/bin/../../lib/gcc/pic32mx/4.8.3/../../../../pic32mx/lib/libpic32.a(default-on-reset.o)
 .debug_frame   0x000038bc       0x20 /Applications/microchip/xc32/v2.15/bin/bin/../../lib/gcc/pic32mx/4.8.3/../../../../pic32mx/lib/libpic32.a(default-on-bootstrap.o)
 .debug_frame   0x000038dc       0x20 /Applications/microchip/xc32/v2.15/bin/bin/../../lib/gcc/pic32mx/4.8.3/../../../../pic32mx/lib/libpic32.a(defaultinterrupt.o)
 .debug_frame   0x000038fc      0x120 /Applications/microchip/xc32/v2.15/bin/bin/../../lib/gcc/pic32mx/4.8.3/../../../../pic32mx/lib/libc.a(ctypef.o)
 .debug_frame   0x00003a1c       0x68 /Applications/microchip/xc32/v2.15/bin/bin/../../lib/gcc/pic32mx/4.8.3/../../../../pic32mx/lib/libc.a(malloc.o)
 .debug_frame   0x00003a84       0x20 /Applications/microchip/xc32/v2.15/bin/bin/../../lib/gcc/pic32mx/4.8.3/../../../../pic32mx/lib/libc.a(strcat.o)
 .debug_frame   0x00003aa4       0x20 /Applications/microchip/xc32/v2.15/bin/bin/../../lib/gcc/pic32mx/4.8.3/../../../../pic32mx/lib/libc.a(strncmp.o)
 .debug_frame   0x00003ac4       0x40 /Applications/microchip/xc32/v2.15/bin/bin/../../lib/gcc/pic32mx/4.8.3/../../../../pic32mx/lib/libc.a(strtod.o)
 .debug_frame   0x00003b04       0x28 /Applications/microchip/xc32/v2.15/bin/bin/../../lib/gcc/pic32mx/4.8.3/../../../../pic32mx/lib/libc.a(sprintf_cdgGnopuxX.eo)
 .debug_frame   0x00003b2c       0x28 /Applications/microchip/xc32/v2.15/bin/bin/../../lib/gcc/pic32mx/4.8.3/../../../../pic32mx/lib/libc.a(sscanf_gG.eo)
 .debug_frame   0x00003b54       0x74 /Applications/microchip/xc32/v2.15/bin/bin/../../lib/gcc/pic32mx/4.8.3/../../../../pic32mx/lib/libc.a(doprnt_cdgGnopuxX.eo)
 .debug_frame   0x00003bc8       0x70 /Applications/microchip/xc32/v2.15/bin/bin/../../lib/gcc/pic32mx/4.8.3/../../../../pic32mx/lib/libc.a(doscan_gG.eo)
 .debug_frame   0x00003c38       0x2c /Applications/microchip/xc32/v2.15/bin/bin/../../lib/gcc/pic32mx/4.8.3/../../../../pic32mx/lib/libc.a(fgetc.o)
 .debug_frame   0x00003c64       0x2c /Applications/microchip/xc32/v2.15/bin/bin/../../lib/gcc/pic32mx/4.8.3/../../../../pic32mx/lib/libc.a(_fputc_simple.o)
 .debug_frame   0x00003c90       0x20 /Applications/microchip/xc32/v2.15/bin/bin/../../lib/gcc/pic32mx/4.8.3/../../../../pic32mx/lib/libc.a(atoi.o)
 .debug_frame   0x00003cb0       0x40 /Applications/microchip/xc32/v2.15/bin/bin/../../lib/gcc/pic32mx/4.8.3/../../../../pic32mx/lib/libc.a(strtof.o)
 .debug_frame   0x00003cf0       0x20 /Applications/microchip/xc32/v2.15/bin/bin/../../lib/gcc/pic32mx/4.8.3/../../../../pic32mx/lib/libc.a(ungetc.o)
 .debug_frame   0x00003d10       0x30 /Applications/microchip/xc32/v2.15/bin/bin/../../lib/gcc/pic32mx/4.8.3/../../../../pic32mx/lib/libc.a(filbuf.o)
 .debug_frame   0x00003d40       0x28 /Applications/microchip/xc32/v2.15/bin/bin/../../lib/gcc/pic32mx/4.8.3/../../../../pic32mx/lib/libc.a(_flsbuf_simple.o)
 .debug_frame   0x00003d68       0x28 /Applications/microchip/xc32/v2.15/bin/bin/../../lib/gcc/pic32mx/4.8.3/../../../../pic32mx/lib/libc.a(fflush.o)
 .debug_frame   0x00003d90       0x2c /Applications/microchip/xc32/v2.15/bin/bin/../../lib/gcc/pic32mx/4.8.3/../../../../pic32mx/lib/libm.a(w_powf.o)
 .debug_frame   0x00003dbc       0x38 /Applications/microchip/xc32/v2.15/bin/bin/../../lib/gcc/pic32mx/4.8.3/../../../../pic32mx/lib/libm.a(__strtod.o)
 .debug_frame   0x00003df4       0x38 /Applications/microchip/xc32/v2.15/bin/bin/../../lib/gcc/pic32mx/4.8.3/../../../../pic32mx/lib/libm.a(__strtof.o)
 .debug_frame   0x00003e2c       0x2c /Applications/microchip/xc32/v2.15/bin/bin/../../lib/gcc/pic32mx/4.8.3/../../../../pic32mx/lib/libe.a(_fixunsdfdi.o)
 .debug_frame   0x00003e58       0x20 /Applications/microchip/xc32/v2.15/bin/bin/../../lib/gcc/pic32mx/4.8.3/../../../../pic32mx/lib/libe.a(_orderdf2.o)
 .debug_frame   0x00003e78       0x2c /Applications/microchip/xc32/v2.15/bin/bin/../../lib/gcc/pic32mx/4.8.3/../../../../pic32mx/lib/libe.a(_ldexp.o)
 .debug_frame   0x00003ea4       0x20 /Applications/microchip/xc32/v2.15/bin/bin/../../lib/gcc/pic32mx/4.8.3/../../../../pic32mx/lib/libe.a(_ldexpf.o)
 .debug_frame   0x00003ec4       0x20 /Applications/microchip/xc32/v2.15/bin/bin/../../lib/gcc/pic32mx/4.8.3/../../../../pic32mx/lib/libe.a(_fixdfdi.o)
 .debug_frame   0x00003ee4       0x20 /Applications/microchip/xc32/v2.15/bin/bin/../../lib/gcc/pic32mx/4.8.3/libgcc.a(_lshrdi3.o)
 .debug_frame   0x00003f04       0x20 /Applications/microchip/xc32/v2.15/bin/bin/../../lib/gcc/pic32mx/4.8.3/libgcc.a(_ashldi3.o)
 .debug_frame   0x00003f24       0x28 /Applications/microchip/xc32/v2.15/bin/bin/../../lib/gcc/pic32mx/4.8.3/libgcc.a(_floatundidf.o)
 .debug_frame   0x00003f4c       0x20 /Applications/microchip/xc32/v2.15/bin/bin/../../lib/gcc/pic32mx/4.8.3/libgcc.a(_udivdi3.o)
 .debug_frame   0x00003f6c       0x20 /Applications/microchip/xc32/v2.15/bin/bin/../../lib/gcc/pic32mx/4.8.3/libgcc.a(_umoddi3.o)
 .debug_frame   0x00003f8c       0x28 /Applications/microchip/xc32/v2.15/bin/bin/../../lib/gcc/pic32mx/4.8.3/libgcc.a(floatunsidf.o)
 .debug_frame   0x00003fb4       0x84 /Applications/microchip/xc32/v2.15/bin/bin/../../lib/gcc/pic32mx/4.8.3/../../../../pic32mx/lib/libpic32.a(sbrk.o)
 .debug_frame   0x00004038       0x2c /Applications/microchip/xc32/v2.15/bin/bin/../../lib/gcc/pic32mx/4.8.3/../../../../pic32mx/lib/libpic32.a(read.o)
 .debug_frame   0x00004064       0x38 /Applications/microchip/xc32/v2.15/bin/bin/../../lib/gcc/pic32mx/4.8.3/../../../../pic32mx/lib/libpic32.a(write.o)
 .debug_frame   0x0000409c       0xa0 /Applications/microchip/xc32/v2.15/bin/bin/../../lib/gcc/pic32mx/4.8.3/../../../../pic32mx/lib/libpic32.a(isinf.o)
 .debug_frame   0x0000413c       0x28 /Applications/microchip/xc32/v2.15/bin/bin/../../lib/gcc/pic32mx/4.8.3/../../../../pic32mx/lib/libpic32.a(_mon_putc.o)
 .debug_frame   0x00004164       0x20 /Applications/microchip/xc32/v2.15/bin/bin/../../lib/gcc/pic32mx/4.8.3/../../../../pic32mx/lib/libe.a(_unorddf2.o)

.debug_str      0x00000000      0xd4b
 *(.debug_str)
 .debug_str     0x00000000       0x13 build/Board4/production/_ext/1210681131/drv_oc_mapping.o
 .debug_str     0x00000013       0x1f build/Board4/production/_ext/1210681131/drv_oc_static.o
 .debug_str     0x00000032       0x99 build/Board4/production/_ext/1612284866/drv_tmr_static.o
 .debug_str     0x000000cb        0xe build/Board4/production/_ext/1612284866/drv_tmr_mapping.o
 .debug_str     0x000000d9       0x23 build/Board4/production/_ext/1303525714/drv_usart_mapping.o
 .debug_str     0x000000fc      0x134 build/Board4/production/_ext/1303525714/drv_usart_static.o
 .debug_str     0x00000230       0x22 build/Board4/production/_ext/1303525714/drv_usart_static_byte_model.o
 .debug_str     0x00000252       0x39 build/Board4/production/_ext/635635118/sys_clk_pic32mx.o
 .debug_str     0x0000028b       0x16 build/Board4/production/_ext/652723559/sys_devcon.o
 .debug_str     0x000002a1        0x6 build/Board4/production/_ext/652723559/sys_devcon_pic32mx.o
 .debug_str     0x000002a7       0x55 build/Board4/production/_ext/1842392706/sys_ports_static.o
 .debug_str     0x000002fc       0x2b build/Board4/production/_ext/1445490757/system_init.o
 .debug_str     0x00000327       0x15 build/Board4/production/_ext/1445490757/system_interrupt.o
 .debug_str     0x0000033c        0x0 build/Board4/production/_ext/1445490757/system_exceptions.o
 .debug_str     0x0000033c        0x0 build/Board4/production/_ext/1445490757/system_tasks.o
 .debug_str     0x0000033c        0x9 build/Board4/production/_ext/1445490757/rtos_hooks.o
 .debug_str     0x00000345        0x0 build/Board4/production/_ext/1360937237/motor_app.o
 .debug_str     0x00000345       0x10 build/Board4/production/_ext/1360937237/wifi_app.o
 .debug_str     0x00000355        0x0 build/Board4/production/_ext/1360937237/main.o
 .debug_str     0x00000355      0x141 build/Board4/production/_ext/676718598/cJSON.o
 .debug_str     0x00000496       0x1e build/Board4/production/_ext/676718598/debug.o
 .debug_str     0x000004b4       0xa6 build/Board4/production/_ext/676718598/http.o
 .debug_str     0x0000055a       0x51 build/Board4/production/_ext/676718598/motor.o
 .debug_str     0x000005ab        0xb build/Board4/production/_ext/676718598/motor_queue.o
 .debug_str     0x000005b6        0x7 build/Board4/production/_ext/676718598/motor_software_timer.o
 .debug_str     0x000005bd       0x1a build/Board4/production/_ext/676718598/motor_state.o
 .debug_str     0x000005d7        0x0 build/Board4/production/_ext/676718598/wifi_queue.o
 .debug_str     0x000005d7       0x2d build/Board4/production/_ext/676718598/wifi_state.o
 .debug_str     0x00000604        0x0 build/Board4/production/_ext/676718598/wifi_timer.o
 .debug_str     0x00000604       0x4d build/Board4/production/_ext/676718598/pixy2Func.o
 .debug_str     0x00000651        0x0 build/Board4/production/_ext/676718598/pixy_app.o
 .debug_str     0x00000651       0x1b build/Board4/production/_ext/676718598/pixy_queue.o
 .debug_str     0x0000066c        0x0 build/Board4/production/_ext/676718598/sensor_app.o
 .debug_str     0x0000066c        0xe build/Board4/production/_ext/676718598/sensor_queue.o
 .debug_str     0x0000067a        0xb build/Board4/production/_ext/676718598/sensor_state.o
 .debug_str     0x00000685       0x40 build/Board4/production/_ext/1043444669/osal_freertos.o
 .debug_str     0x000006c5       0x1d build/Board4/production/_ext/249303043/sys_int_pic32.o
 .debug_str     0x000006e2       0x33 build/Board4/production/_ext/905643201/heap_2.o
 .debug_str     0x00000715       0x37 build/Board4/production/_ext/331515796/port.o
 .debug_str     0x0000074c        0x0 build/Board4/production/_ext/1539584926/croutine.o
 .debug_str     0x0000074c       0x2b build/Board4/production/_ext/1539584926/list.o
 .debug_str     0x00000777      0x131 build/Board4/production/_ext/1539584926/queue.o
 .debug_str     0x000008a8      0x19c build/Board4/production/_ext/1539584926/tasks.o
 .debug_str     0x00000a44       0xd2 build/Board4/production/_ext/1539584926/timers.o
 .debug_str     0x00000b16       0xe6 build/Board4/production/_ext/1539584926/event_groups.o
 .debug_str     0x00000bfc      0x13d build/Board4/production/_ext/1539584926/stream_buffer.o
 .debug_str     0x00000d39        0x0 /Applications/microchip/xc32/v2.15/bin/bin/../../lib/gcc/pic32mx/4.8.3/libgcc.a(floatunsisf.o)
 .debug_str     0x00000d39        0x0 /Applications/microchip/xc32/v2.15/bin/bin/../../lib/gcc/pic32mx/4.8.3/../../../../pic32mx/lib/libpic32.a(default-bootstrap-exception-handler.o)
 .debug_str     0x00000d39        0x0 /Applications/microchip/xc32/v2.15/bin/bin/../../lib/gcc/pic32mx/4.8.3/../../../../pic32mx/lib/libpic32.a(default-on-reset.o)
 .debug_str     0x00000d39        0x0 /Applications/microchip/xc32/v2.15/bin/bin/../../lib/gcc/pic32mx/4.8.3/../../../../pic32mx/lib/libpic32.a(default-on-bootstrap.o)
 .debug_str     0x00000d39        0x0 /Applications/microchip/xc32/v2.15/bin/bin/../../lib/gcc/pic32mx/4.8.3/../../../../pic32mx/lib/libpic32.a(defaultinterrupt.o)
 .debug_str     0x00000d39        0x0 /Applications/microchip/xc32/v2.15/bin/bin/../../lib/gcc/pic32mx/4.8.3/../../../../pic32mx/lib/libc.a(ctypef.o)
 .debug_str     0x00000d39        0x0 /Applications/microchip/xc32/v2.15/bin/bin/../../lib/gcc/pic32mx/4.8.3/../../../../pic32mx/lib/libc.a(malloc.o)
 .debug_str     0x00000d39        0x0 /Applications/microchip/xc32/v2.15/bin/bin/../../lib/gcc/pic32mx/4.8.3/../../../../pic32mx/lib/libc.a(strcat.o)
 .debug_str     0x00000d39        0x0 /Applications/microchip/xc32/v2.15/bin/bin/../../lib/gcc/pic32mx/4.8.3/../../../../pic32mx/lib/libc.a(strncmp.o)
 .debug_str     0x00000d39        0x9 /Applications/microchip/xc32/v2.15/bin/bin/../../lib/gcc/pic32mx/4.8.3/../../../../pic32mx/lib/libc.a(strtod.o)
 .debug_str     0x00000d42        0x0 /Applications/microchip/xc32/v2.15/bin/bin/../../lib/gcc/pic32mx/4.8.3/../../../../pic32mx/lib/libc.a(sprintf_cdgGnopuxX.eo)
 .debug_str     0x00000d42        0x0 /Applications/microchip/xc32/v2.15/bin/bin/../../lib/gcc/pic32mx/4.8.3/../../../../pic32mx/lib/libc.a(sscanf_gG.eo)
 .debug_str     0x00000d42        0x0 /Applications/microchip/xc32/v2.15/bin/bin/../../lib/gcc/pic32mx/4.8.3/../../../../pic32mx/lib/libc.a(ctype.o)
 .debug_str     0x00000d42        0x0 /Applications/microchip/xc32/v2.15/bin/bin/../../lib/gcc/pic32mx/4.8.3/../../../../pic32mx/lib/libc.a(doprnt_cdgGnopuxX.eo)
 .debug_str     0x00000d42        0x0 /Applications/microchip/xc32/v2.15/bin/bin/../../lib/gcc/pic32mx/4.8.3/../../../../pic32mx/lib/libc.a(doscan_gG.eo)
 .debug_str     0x00000d42        0x0 /Applications/microchip/xc32/v2.15/bin/bin/../../lib/gcc/pic32mx/4.8.3/../../../../pic32mx/lib/libc.a(fgetc.o)
 .debug_str     0x00000d42        0x0 /Applications/microchip/xc32/v2.15/bin/bin/../../lib/gcc/pic32mx/4.8.3/../../../../pic32mx/lib/libc.a(_fputc_simple.o)
 .debug_str     0x00000d42        0x0 /Applications/microchip/xc32/v2.15/bin/bin/../../lib/gcc/pic32mx/4.8.3/../../../../pic32mx/lib/libc.a(atoi.o)
 .debug_str     0x00000d42        0x0 /Applications/microchip/xc32/v2.15/bin/bin/../../lib/gcc/pic32mx/4.8.3/../../../../pic32mx/lib/libc.a(ldpowers.o)
 .debug_str     0x00000d42        0x9 /Applications/microchip/xc32/v2.15/bin/bin/../../lib/gcc/pic32mx/4.8.3/../../../../pic32mx/lib/libc.a(strtof.o)
 .debug_str     0x00000d4b        0x0 /Applications/microchip/xc32/v2.15/bin/bin/../../lib/gcc/pic32mx/4.8.3/../../../../pic32mx/lib/libc.a(ungetc.o)
 .debug_str     0x00000d4b        0x0 /Applications/microchip/xc32/v2.15/bin/bin/../../lib/gcc/pic32mx/4.8.3/../../../../pic32mx/lib/libc.a(_iob.o)
 .debug_str     0x00000d4b        0x0 /Applications/microchip/xc32/v2.15/bin/bin/../../lib/gcc/pic32mx/4.8.3/../../../../pic32mx/lib/libc.a(filbuf.o)
 .debug_str     0x00000d4b        0x0 /Applications/microchip/xc32/v2.15/bin/bin/../../lib/gcc/pic32mx/4.8.3/../../../../pic32mx/lib/libc.a(_flsbuf_simple.o)
 .debug_str     0x00000d4b        0x0 /Applications/microchip/xc32/v2.15/bin/bin/../../lib/gcc/pic32mx/4.8.3/../../../../pic32mx/lib/libc.a(fflush.o)
 .debug_str     0x00000d4b        0x0 /Applications/microchip/xc32/v2.15/bin/bin/../../lib/gcc/pic32mx/4.8.3/../../../../pic32mx/lib/libm.a(w_powf.o)
 .debug_str     0x00000d4b        0x0 /Applications/microchip/xc32/v2.15/bin/bin/../../lib/gcc/pic32mx/4.8.3/../../../../pic32mx/lib/libm.a(__strtod.o)
 .debug_str     0x00000d4b        0x0 /Applications/microchip/xc32/v2.15/bin/bin/../../lib/gcc/pic32mx/4.8.3/../../../../pic32mx/lib/libm.a(__strtof.o)
 .debug_str     0x00000d4b        0x0 /Applications/microchip/xc32/v2.15/bin/bin/../../lib/gcc/pic32mx/4.8.3/../../../../pic32mx/lib/libm.a(s_lib_ver.o)
 .debug_str     0x00000d4b        0x0 /Applications/microchip/xc32/v2.15/bin/bin/../../lib/gcc/pic32mx/4.8.3/../../../../pic32mx/lib/libe.a(_fixunsdfdi.o)
 .debug_str     0x00000d4b        0x0 /Applications/microchip/xc32/v2.15/bin/bin/../../lib/gcc/pic32mx/4.8.3/../../../../pic32mx/lib/libe.a(_orderdf2.o)
 .debug_str     0x00000d4b        0x0 /Applications/microchip/xc32/v2.15/bin/bin/../../lib/gcc/pic32mx/4.8.3/../../../../pic32mx/lib/libe.a(_ldexp.o)
 .debug_str     0x00000d4b        0x0 /Applications/microchip/xc32/v2.15/bin/bin/../../lib/gcc/pic32mx/4.8.3/../../../../pic32mx/lib/libe.a(_ldexpf.o)
 .debug_str     0x00000d4b        0x0 /Applications/microchip/xc32/v2.15/bin/bin/../../lib/gcc/pic32mx/4.8.3/../../../../pic32mx/lib/libe.a(_fixdfdi.o)
 .debug_str     0x00000d4b        0x0 /Applications/microchip/xc32/v2.15/bin/bin/../../lib/gcc/pic32mx/4.8.3/libgcc.a(_lshrdi3.o)
 .debug_str     0x00000d4b        0x0 /Applications/microchip/xc32/v2.15/bin/bin/../../lib/gcc/pic32mx/4.8.3/libgcc.a(_ashldi3.o)
 .debug_str     0x00000d4b        0x0 /Applications/microchip/xc32/v2.15/bin/bin/../../lib/gcc/pic32mx/4.8.3/libgcc.a(_floatundidf.o)
 .debug_str     0x00000d4b        0x0 /Applications/microchip/xc32/v2.15/bin/bin/../../lib/gcc/pic32mx/4.8.3/libgcc.a(_udivdi3.o)
 .debug_str     0x00000d4b        0x0 /Applications/microchip/xc32/v2.15/bin/bin/../../lib/gcc/pic32mx/4.8.3/libgcc.a(_umoddi3.o)
 .debug_str     0x00000d4b        0x0 /Applications/microchip/xc32/v2.15/bin/bin/../../lib/gcc/pic32mx/4.8.3/libgcc.a(floatunsidf.o)
 .debug_str     0x00000d4b        0x0 /Applications/microchip/xc32/v2.15/bin/bin/../../lib/gcc/pic32mx/4.8.3/../../../../pic32mx/lib/libpic32.a(sbrk.o)
 .debug_str     0x00000d4b        0x0 /Applications/microchip/xc32/v2.15/bin/bin/../../lib/gcc/pic32mx/4.8.3/../../../../pic32mx/lib/libpic32.a(read.o)
 .debug_str     0x00000d4b        0x0 /Applications/microchip/xc32/v2.15/bin/bin/../../lib/gcc/pic32mx/4.8.3/../../../../pic32mx/lib/libpic32.a(write.o)
 .debug_str     0x00000d4b        0x0 /Applications/microchip/xc32/v2.15/bin/bin/../../lib/gcc/pic32mx/4.8.3/../../../../pic32mx/lib/libpic32.a(xc32_uart.o)
 .debug_str     0x00000d4b        0x0 /Applications/microchip/xc32/v2.15/bin/bin/../../lib/gcc/pic32mx/4.8.3/../../../../pic32mx/lib/libpic32.a(errno.o)
 .debug_str     0x00000d4b        0x0 /Applications/microchip/xc32/v2.15/bin/bin/../../lib/gcc/pic32mx/4.8.3/../../../../pic32mx/lib/libpic32.a(isinf.o)
 .debug_str     0x00000d4b        0x0 /Applications/microchip/xc32/v2.15/bin/bin/../../lib/gcc/pic32mx/4.8.3/../../../../pic32mx/lib/libpic32.a(_mon_putc.o)
 .debug_str     0x00000d4b        0x0 /Applications/microchip/xc32/v2.15/bin/bin/../../lib/gcc/pic32mx/4.8.3/../../../../pic32mx/lib/libe.a(_unorddf2.o)

.debug_loc      0x00000000    0x113c1
 *(.debug_loc)
 .debug_loc     0x00000000      0x26b build/Board4/production/_ext/1210681131/drv_oc_mapping.o
 .debug_loc     0x0000026b       0x42 build/Board4/production/_ext/1210681131/drv_oc_static.o
 .debug_loc     0x000002ad      0x775 build/Board4/production/_ext/1612284866/drv_tmr_static.o
 .debug_loc     0x00000a22      0x5d2 build/Board4/production/_ext/1612284866/drv_tmr_mapping.o
 .debug_loc     0x00000ff4      0x93f build/Board4/production/_ext/1303525714/drv_usart_mapping.o
 .debug_loc     0x00001933     0x12b7 build/Board4/production/_ext/1303525714/drv_usart_static.o
 .debug_loc     0x00002bea      0x11d build/Board4/production/_ext/1303525714/drv_usart_static_byte_model.o
 .debug_loc     0x00002d07       0x49 build/Board4/production/_ext/635635118/sys_clk_pic32mx.o
 .debug_loc     0x00002d50       0xf0 build/Board4/production/_ext/652723559/sys_devcon.o
 .debug_loc     0x00002e40       0xda build/Board4/production/_ext/652723559/sys_devcon_pic32mx.o
 .debug_loc     0x00002f1a      0x74e build/Board4/production/_ext/1842392706/sys_ports_static.o
 .debug_loc     0x00003668       0x21 build/Board4/production/_ext/1445490757/system_init.o
 .debug_loc     0x00003689      0x28b build/Board4/production/_ext/1445490757/system_interrupt.o
 .debug_loc     0x00003914       0x4a build/Board4/production/_ext/1445490757/rtos_hooks.o
 .debug_loc     0x0000395e     0x37b7 build/Board4/production/_ext/676718598/cJSON.o
 .debug_loc     0x00007115       0xe4 build/Board4/production/_ext/676718598/debug.o
 .debug_loc     0x000071f9     0x121b build/Board4/production/_ext/676718598/http.o
 .debug_loc     0x00008414      0x614 build/Board4/production/_ext/676718598/motor.o
 .debug_loc     0x00008a28       0x50 build/Board4/production/_ext/676718598/motor_queue.o
 .debug_loc     0x00008a78       0xb0 build/Board4/production/_ext/676718598/motor_software_timer.o
 .debug_loc     0x00008b28      0x4eb build/Board4/production/_ext/676718598/motor_state.o
 .debug_loc     0x00009013       0xa8 build/Board4/production/_ext/676718598/wifi_queue.o
 .debug_loc     0x000090bb      0x360 build/Board4/production/_ext/676718598/wifi_state.o
 .debug_loc     0x0000941b       0x21 build/Board4/production/_ext/676718598/wifi_timer.o
 .debug_loc     0x0000943c     0x1137 build/Board4/production/_ext/676718598/pixy2Func.o
 .debug_loc     0x0000a573       0x2c build/Board4/production/_ext/676718598/pixy_app.o
 .debug_loc     0x0000a59f       0xad build/Board4/production/_ext/676718598/pixy_queue.o
 .debug_loc     0x0000a64c       0x42 build/Board4/production/_ext/676718598/sensor_queue.o
 .debug_loc     0x0000a68e      0x22d build/Board4/production/_ext/676718598/sensor_state.o
 .debug_loc     0x0000a8bb      0x3e6 build/Board4/production/_ext/1043444669/osal_freertos.o
 .debug_loc     0x0000aca1       0x7c build/Board4/production/_ext/249303043/sys_int_pic32.o
 .debug_loc     0x0000ad1d      0x20d build/Board4/production/_ext/905643201/heap_2.o
 .debug_loc     0x0000af2a       0xf5 build/Board4/production/_ext/331515796/port.o
 .debug_loc     0x0000b01f       0x44 build/Board4/production/_ext/1539584926/list.o
 .debug_loc     0x0000b063     0x11c7 build/Board4/production/_ext/1539584926/queue.o
 .debug_loc     0x0000c22a     0x16ba build/Board4/production/_ext/1539584926/tasks.o
 .debug_loc     0x0000d8e4      0x820 build/Board4/production/_ext/1539584926/timers.o
 .debug_loc     0x0000e104      0x90a build/Board4/production/_ext/1539584926/event_groups.o
 .debug_loc     0x0000ea0e     0x1076 build/Board4/production/_ext/1539584926/stream_buffer.o
 .debug_loc     0x0000fa84       0x74 /Applications/microchip/xc32/v2.15/bin/bin/../../lib/gcc/pic32mx/4.8.3/libgcc.a(floatunsisf.o)
 .debug_loc     0x0000faf8       0x2c /Applications/microchip/xc32/v2.15/bin/bin/../../lib/gcc/pic32mx/4.8.3/../../../../pic32mx/lib/libpic32.a(default-bootstrap-exception-handler.o)
 .debug_loc     0x0000fb24       0x20 /Applications/microchip/xc32/v2.15/bin/bin/../../lib/gcc/pic32mx/4.8.3/../../../../pic32mx/lib/libm.a(w_powf.o)
 .debug_loc     0x0000fb44       0x20 /Applications/microchip/xc32/v2.15/bin/bin/../../lib/gcc/pic32mx/4.8.3/../../../../pic32mx/lib/libm.a(__strtod.o)
 .debug_loc     0x0000fb64       0x20 /Applications/microchip/xc32/v2.15/bin/bin/../../lib/gcc/pic32mx/4.8.3/../../../../pic32mx/lib/libm.a(__strtof.o)
 .debug_loc     0x0000fb84       0x20 /Applications/microchip/xc32/v2.15/bin/bin/../../lib/gcc/pic32mx/4.8.3/../../../../pic32mx/lib/libe.a(_fixunsdfdi.o)
 .debug_loc     0x0000fba4       0x20 /Applications/microchip/xc32/v2.15/bin/bin/../../lib/gcc/pic32mx/4.8.3/../../../../pic32mx/lib/libe.a(_ldexp.o)
 .debug_loc     0x0000fbc4       0xbb /Applications/microchip/xc32/v2.15/bin/bin/../../lib/gcc/pic32mx/4.8.3/libgcc.a(_lshrdi3.o)
 .debug_loc     0x0000fc7f       0x82 /Applications/microchip/xc32/v2.15/bin/bin/../../lib/gcc/pic32mx/4.8.3/libgcc.a(_ashldi3.o)
 .debug_loc     0x0000fd01       0x41 /Applications/microchip/xc32/v2.15/bin/bin/../../lib/gcc/pic32mx/4.8.3/libgcc.a(_floatundidf.o)
 .debug_loc     0x0000fd42      0xa6a /Applications/microchip/xc32/v2.15/bin/bin/../../lib/gcc/pic32mx/4.8.3/libgcc.a(_udivdi3.o)
 .debug_loc     0x000107ac      0xa3d /Applications/microchip/xc32/v2.15/bin/bin/../../lib/gcc/pic32mx/4.8.3/libgcc.a(_umoddi3.o)
 .debug_loc     0x000111e9       0x80 /Applications/microchip/xc32/v2.15/bin/bin/../../lib/gcc/pic32mx/4.8.3/libgcc.a(floatunsidf.o)
 .debug_loc     0x00011269       0x60 /Applications/microchip/xc32/v2.15/bin/bin/../../lib/gcc/pic32mx/4.8.3/../../../../pic32mx/lib/libpic32.a(sbrk.o)
 .debug_loc     0x000112c9       0x20 /Applications/microchip/xc32/v2.15/bin/bin/../../lib/gcc/pic32mx/4.8.3/../../../../pic32mx/lib/libpic32.a(read.o)
 .debug_loc     0x000112e9       0x38 /Applications/microchip/xc32/v2.15/bin/bin/../../lib/gcc/pic32mx/4.8.3/../../../../pic32mx/lib/libpic32.a(write.o)
 .debug_loc     0x00011321       0x80 /Applications/microchip/xc32/v2.15/bin/bin/../../lib/gcc/pic32mx/4.8.3/../../../../pic32mx/lib/libpic32.a(isinf.o)
 .debug_loc     0x000113a1       0x20 /Applications/microchip/xc32/v2.15/bin/bin/../../lib/gcc/pic32mx/4.8.3/../../../../pic32mx/lib/libpic32.a(_mon_putc.o)

.debug_macinfo
 *(.debug_macinfo)

.debug_weaknames
 *(.debug_weaknames)

.debug_funcnames
 *(.debug_funcnames)

.debug_typenames
 *(.debug_typenames)

.debug_varnames
 *(.debug_varnames)

.debug_pubtypes
 *(.debug_pubtypes)

.debug_ranges   0x00000000     0x1e70
 *(.debug_ranges)
 .debug_ranges  0x00000000       0x40 build/Board4/production/_ext/1210681131/drv_oc_mapping.o
 .debug_ranges  0x00000040       0x78 build/Board4/production/_ext/1210681131/drv_oc_static.o
 .debug_ranges  0x000000b8      0x178 build/Board4/production/_ext/1612284866/drv_tmr_static.o
 .debug_ranges  0x00000230       0xd8 build/Board4/production/_ext/1612284866/drv_tmr_mapping.o
 .debug_ranges  0x00000308       0xa0 build/Board4/production/_ext/1303525714/drv_usart_mapping.o
 .debug_ranges  0x000003a8      0x1e8 build/Board4/production/_ext/1303525714/drv_usart_static.o
 .debug_ranges  0x00000590       0x98 build/Board4/production/_ext/1303525714/drv_usart_static_byte_model.o
 .debug_ranges  0x00000628       0x40 build/Board4/production/_ext/635635118/sys_clk_pic32mx.o
 .debug_ranges  0x00000668       0x68 build/Board4/production/_ext/652723559/sys_devcon.o
 .debug_ranges  0x000006d0       0x10 build/Board4/production/_ext/652723559/sys_devcon_pic32mx.o
 .debug_ranges  0x000006e0      0x138 build/Board4/production/_ext/1842392706/sys_ports_static.o
 .debug_ranges  0x00000818       0x10 build/Board4/production/_ext/1445490757/system_init.o
 .debug_ranges  0x00000828       0x38 build/Board4/production/_ext/1445490757/system_interrupt.o
 .debug_ranges  0x00000860       0x10 build/Board4/production/_ext/1445490757/system_exceptions.o
 .debug_ranges  0x00000870       0x38 build/Board4/production/_ext/1445490757/system_tasks.o
 .debug_ranges  0x000008a8       0x70 build/Board4/production/_ext/1445490757/system_interrupt_a.o
 .debug_ranges  0x00000918       0x18 build/Board4/production/_ext/1445490757/rtos_hooks.o
 .debug_ranges  0x00000930       0x18 build/Board4/production/_ext/1360937237/motor_app.o
 .debug_ranges  0x00000948       0x18 build/Board4/production/_ext/1360937237/wifi_app.o
 .debug_ranges  0x00000960       0x10 build/Board4/production/_ext/1360937237/main.o
 .debug_ranges  0x00000970      0x4e8 build/Board4/production/_ext/676718598/cJSON.o
 .debug_ranges  0x00000e58       0x30 build/Board4/production/_ext/676718598/debug.o
 .debug_ranges  0x00000e88       0x90 build/Board4/production/_ext/676718598/http.o
 .debug_ranges  0x00000f18       0x70 build/Board4/production/_ext/676718598/motor.o
 .debug_ranges  0x00000f88       0x38 build/Board4/production/_ext/676718598/motor_queue.o
 .debug_ranges  0x00000fc0       0x70 build/Board4/production/_ext/676718598/motor_software_timer.o
 .debug_ranges  0x00001030       0x20 build/Board4/production/_ext/676718598/motor_state.o
 .debug_ranges  0x00001050       0x60 build/Board4/production/_ext/676718598/wifi_queue.o
 .debug_ranges  0x000010b0       0x28 build/Board4/production/_ext/676718598/wifi_state.o
 .debug_ranges  0x000010d8       0x18 build/Board4/production/_ext/676718598/wifi_timer.o
 .debug_ranges  0x000010f0       0xa0 build/Board4/production/_ext/676718598/pixy2Func.o
 .debug_ranges  0x00001190       0x40 build/Board4/production/_ext/676718598/pixy_app.o
 .debug_ranges  0x000011d0       0x50 build/Board4/production/_ext/676718598/pixy_queue.o
 .debug_ranges  0x00001220       0x18 build/Board4/production/_ext/676718598/sensor_app.o
 .debug_ranges  0x00001238       0x38 build/Board4/production/_ext/676718598/sensor_queue.o
 .debug_ranges  0x00001270       0x18 build/Board4/production/_ext/676718598/sensor_state.o
 .debug_ranges  0x00001288       0x78 build/Board4/production/_ext/1043444669/osal_freertos.o
 .debug_ranges  0x00001300       0x50 build/Board4/production/_ext/249303043/sys_int_pic32.o
 .debug_ranges  0x00001350       0x58 build/Board4/production/_ext/905643201/heap_2.o
 .debug_ranges  0x000013a8       0x48 build/Board4/production/_ext/331515796/port.o
 .debug_ranges  0x000013f0       0x30 build/Board4/production/_ext/1539584926/list.o
 .debug_ranges  0x00001420      0x150 build/Board4/production/_ext/1539584926/queue.o
 .debug_ranges  0x00001570      0x1e8 build/Board4/production/_ext/1539584926/tasks.o
 .debug_ranges  0x00001758      0x120 build/Board4/production/_ext/1539584926/timers.o
 .debug_ranges  0x00001878       0x98 build/Board4/production/_ext/1539584926/event_groups.o
 .debug_ranges  0x00001910       0xb8 build/Board4/production/_ext/1539584926/stream_buffer.o
 .debug_ranges  0x000019c8       0x10 /Applications/microchip/xc32/v2.15/bin/bin/../../lib/gcc/pic32mx/4.8.3/../../../../pic32mx/lib/libpic32.a(default-bootstrap-exception-handler.o)
 .debug_ranges  0x000019d8       0x10 /Applications/microchip/xc32/v2.15/bin/bin/../../lib/gcc/pic32mx/4.8.3/../../../../pic32mx/lib/libpic32.a(default-on-reset.o)
 .debug_ranges  0x000019e8       0x10 /Applications/microchip/xc32/v2.15/bin/bin/../../lib/gcc/pic32mx/4.8.3/../../../../pic32mx/lib/libpic32.a(default-on-bootstrap.o)
 .debug_ranges  0x000019f8       0x10 /Applications/microchip/xc32/v2.15/bin/bin/../../lib/gcc/pic32mx/4.8.3/../../../../pic32mx/lib/libpic32.a(defaultinterrupt.o)
 .debug_ranges  0x00001a08       0x90 /Applications/microchip/xc32/v2.15/bin/bin/../../lib/gcc/pic32mx/4.8.3/../../../../pic32mx/lib/libc.a(ctypef.o)
 .debug_ranges  0x00001a98       0x20 /Applications/microchip/xc32/v2.15/bin/bin/../../lib/gcc/pic32mx/4.8.3/../../../../pic32mx/lib/libc.a(malloc.o)
 .debug_ranges  0x00001ab8       0x10 /Applications/microchip/xc32/v2.15/bin/bin/../../lib/gcc/pic32mx/4.8.3/../../../../pic32mx/lib/libc.a(strcat.o)
 .debug_ranges  0x00001ac8       0x10 /Applications/microchip/xc32/v2.15/bin/bin/../../lib/gcc/pic32mx/4.8.3/../../../../pic32mx/lib/libc.a(strncmp.o)
 .debug_ranges  0x00001ad8       0x18 /Applications/microchip/xc32/v2.15/bin/bin/../../lib/gcc/pic32mx/4.8.3/../../../../pic32mx/lib/libc.a(strtod.o)
 .debug_ranges  0x00001af0       0x10 /Applications/microchip/xc32/v2.15/bin/bin/../../lib/gcc/pic32mx/4.8.3/../../../../pic32mx/lib/libc.a(sprintf_cdgGnopuxX.eo)
 .debug_ranges  0x00001b00       0x10 /Applications/microchip/xc32/v2.15/bin/bin/../../lib/gcc/pic32mx/4.8.3/../../../../pic32mx/lib/libc.a(sscanf_gG.eo)
 .debug_ranges  0x00001b10       0x20 /Applications/microchip/xc32/v2.15/bin/bin/../../lib/gcc/pic32mx/4.8.3/../../../../pic32mx/lib/libc.a(doprnt_cdgGnopuxX.eo)
 .debug_ranges  0x00001b30       0x20 /Applications/microchip/xc32/v2.15/bin/bin/../../lib/gcc/pic32mx/4.8.3/../../../../pic32mx/lib/libc.a(doscan_gG.eo)
 .debug_ranges  0x00001b50       0x10 /Applications/microchip/xc32/v2.15/bin/bin/../../lib/gcc/pic32mx/4.8.3/../../../../pic32mx/lib/libc.a(fgetc.o)
 .debug_ranges  0x00001b60       0x10 /Applications/microchip/xc32/v2.15/bin/bin/../../lib/gcc/pic32mx/4.8.3/../../../../pic32mx/lib/libc.a(_fputc_simple.o)
 .debug_ranges  0x00001b70       0x10 /Applications/microchip/xc32/v2.15/bin/bin/../../lib/gcc/pic32mx/4.8.3/../../../../pic32mx/lib/libc.a(atoi.o)
 .debug_ranges  0x00001b80       0x18 /Applications/microchip/xc32/v2.15/bin/bin/../../lib/gcc/pic32mx/4.8.3/../../../../pic32mx/lib/libc.a(strtof.o)
 .debug_ranges  0x00001b98       0x10 /Applications/microchip/xc32/v2.15/bin/bin/../../lib/gcc/pic32mx/4.8.3/../../../../pic32mx/lib/libc.a(ungetc.o)
 .debug_ranges  0x00001ba8       0x10 /Applications/microchip/xc32/v2.15/bin/bin/../../lib/gcc/pic32mx/4.8.3/../../../../pic32mx/lib/libc.a(filbuf.o)
 .debug_ranges  0x00001bb8       0x10 /Applications/microchip/xc32/v2.15/bin/bin/../../lib/gcc/pic32mx/4.8.3/../../../../pic32mx/lib/libc.a(_flsbuf_simple.o)
 .debug_ranges  0x00001bc8       0x10 /Applications/microchip/xc32/v2.15/bin/bin/../../lib/gcc/pic32mx/4.8.3/../../../../pic32mx/lib/libc.a(fflush.o)
 .debug_ranges  0x00001bd8       0x10 /Applications/microchip/xc32/v2.15/bin/bin/../../lib/gcc/pic32mx/4.8.3/../../../../pic32mx/lib/libm.a(w_powf.o)
 .debug_ranges  0x00001be8       0x10 /Applications/microchip/xc32/v2.15/bin/bin/../../lib/gcc/pic32mx/4.8.3/../../../../pic32mx/lib/libm.a(__strtod.o)
 .debug_ranges  0x00001bf8       0x10 /Applications/microchip/xc32/v2.15/bin/bin/../../lib/gcc/pic32mx/4.8.3/../../../../pic32mx/lib/libm.a(__strtof.o)
 .debug_ranges  0x00001c08       0x10 /Applications/microchip/xc32/v2.15/bin/bin/../../lib/gcc/pic32mx/4.8.3/../../../../pic32mx/lib/libe.a(_fixunsdfdi.o)
 .debug_ranges  0x00001c18       0x10 /Applications/microchip/xc32/v2.15/bin/bin/../../lib/gcc/pic32mx/4.8.3/../../../../pic32mx/lib/libe.a(_orderdf2.o)
 .debug_ranges  0x00001c28       0x10 /Applications/microchip/xc32/v2.15/bin/bin/../../lib/gcc/pic32mx/4.8.3/../../../../pic32mx/lib/libe.a(_ldexp.o)
 .debug_ranges  0x00001c38       0x10 /Applications/microchip/xc32/v2.15/bin/bin/../../lib/gcc/pic32mx/4.8.3/../../../../pic32mx/lib/libe.a(_ldexpf.o)
 .debug_ranges  0x00001c48       0x10 /Applications/microchip/xc32/v2.15/bin/bin/../../lib/gcc/pic32mx/4.8.3/../../../../pic32mx/lib/libe.a(_fixdfdi.o)
 .debug_ranges  0x00001c58       0x98 /Applications/microchip/xc32/v2.15/bin/bin/../../lib/gcc/pic32mx/4.8.3/libgcc.a(_udivdi3.o)
 .debug_ranges  0x00001cf0       0xd8 /Applications/microchip/xc32/v2.15/bin/bin/../../lib/gcc/pic32mx/4.8.3/libgcc.a(_umoddi3.o)
 .debug_ranges  0x00001dc8       0x30 /Applications/microchip/xc32/v2.15/bin/bin/../../lib/gcc/pic32mx/4.8.3/../../../../pic32mx/lib/libpic32.a(sbrk.o)
 .debug_ranges  0x00001df8       0x10 /Applications/microchip/xc32/v2.15/bin/bin/../../lib/gcc/pic32mx/4.8.3/../../../../pic32mx/lib/libpic32.a(read.o)
 .debug_ranges  0x00001e08       0x10 /Applications/microchip/xc32/v2.15/bin/bin/../../lib/gcc/pic32mx/4.8.3/../../../../pic32mx/lib/libpic32.a(write.o)
 .debug_ranges  0x00001e18       0x38 /Applications/microchip/xc32/v2.15/bin/bin/../../lib/gcc/pic32mx/4.8.3/../../../../pic32mx/lib/libpic32.a(isinf.o)
 .debug_ranges  0x00001e50       0x10 /Applications/microchip/xc32/v2.15/bin/bin/../../lib/gcc/pic32mx/4.8.3/../../../../pic32mx/lib/libpic32.a(_mon_putc.o)
 .debug_ranges  0x00001e60       0x10 /Applications/microchip/xc32/v2.15/bin/bin/../../lib/gcc/pic32mx/4.8.3/../../../../pic32mx/lib/libe.a(_unorddf2.o)

.gnu.attributes
                0x00000000       0x10
 *(.gnu.attributes)
 .gnu.attributes
                0x00000000       0x10 build/Board4/production/_ext/1210681131/drv_oc_mapping.o
 .gnu.attributes
                0x00000010       0x10 build/Board4/production/_ext/1210681131/drv_oc_static.o
 .gnu.attributes
                0x00000020       0x10 build/Board4/production/_ext/1612284866/drv_tmr_static.o
 .gnu.attributes
                0x00000030       0x10 build/Board4/production/_ext/1612284866/drv_tmr_mapping.o
 .gnu.attributes
                0x00000040       0x10 build/Board4/production/_ext/1303525714/drv_usart_mapping.o
 .gnu.attributes
                0x00000050       0x10 build/Board4/production/_ext/1303525714/drv_usart_static.o
 .gnu.attributes
                0x00000060       0x10 build/Board4/production/_ext/1303525714/drv_usart_static_byte_model.o
 .gnu.attributes
                0x00000070       0x10 build/Board4/production/_ext/635635118/sys_clk_pic32mx.o
 .gnu.attributes
                0x00000080       0x10 build/Board4/production/_ext/652723559/sys_devcon.o
 .gnu.attributes
                0x00000090       0x10 build/Board4/production/_ext/652723559/sys_devcon_pic32mx.o
 .gnu.attributes
                0x000000a0       0x10 build/Board4/production/_ext/1842392706/sys_ports_static.o
 .gnu.attributes
                0x000000b0       0x10 build/Board4/production/_ext/1445490757/system_init.o
 .gnu.attributes
                0x000000c0       0x10 build/Board4/production/_ext/1445490757/system_interrupt.o
 .gnu.attributes
                0x000000d0       0x10 build/Board4/production/_ext/1445490757/system_exceptions.o
 .gnu.attributes
                0x000000e0       0x10 build/Board4/production/_ext/1445490757/system_tasks.o
 .gnu.attributes
                0x000000f0       0x10 build/Board4/production/_ext/1445490757/rtos_hooks.o
 .gnu.attributes
                0x00000100       0x10 build/Board4/production/_ext/1360937237/motor_app.o
 .gnu.attributes
                0x00000110       0x10 build/Board4/production/_ext/1360937237/wifi_app.o
 .gnu.attributes
                0x00000120       0x10 build/Board4/production/_ext/1360937237/main.o
 .gnu.attributes
                0x00000130       0x10 build/Board4/production/_ext/676718598/cJSON.o
 .gnu.attributes
                0x00000140       0x10 build/Board4/production/_ext/676718598/debug.o
 .gnu.attributes
                0x00000150       0x10 build/Board4/production/_ext/676718598/http.o
 .gnu.attributes
                0x00000160       0x10 build/Board4/production/_ext/676718598/motor.o
 .gnu.attributes
                0x00000170       0x10 build/Board4/production/_ext/676718598/motor_queue.o
 .gnu.attributes
                0x00000180       0x10 build/Board4/production/_ext/676718598/motor_software_timer.o
 .gnu.attributes
                0x00000190       0x10 build/Board4/production/_ext/676718598/motor_state.o
 .gnu.attributes
                0x000001a0       0x10 build/Board4/production/_ext/676718598/wifi_queue.o
 .gnu.attributes
                0x000001b0       0x10 build/Board4/production/_ext/676718598/wifi_state.o
 .gnu.attributes
                0x000001c0       0x10 build/Board4/production/_ext/676718598/wifi_timer.o
 .gnu.attributes
                0x000001d0       0x10 build/Board4/production/_ext/676718598/pixy2Func.o
 .gnu.attributes
                0x000001e0       0x10 build/Board4/production/_ext/676718598/pixy_app.o
 .gnu.attributes
                0x000001f0       0x10 build/Board4/production/_ext/676718598/pixy_queue.o
 .gnu.attributes
                0x00000200       0x10 build/Board4/production/_ext/676718598/sensor_app.o
 .gnu.attributes
                0x00000210       0x10 build/Board4/production/_ext/676718598/sensor_queue.o
 .gnu.attributes
                0x00000220       0x10 build/Board4/production/_ext/676718598/sensor_state.o
 .gnu.attributes
                0x00000230       0x10 build/Board4/production/_ext/1043444669/osal_freertos.o
 .gnu.attributes
                0x00000240       0x10 build/Board4/production/_ext/249303043/sys_int_pic32.o
 .gnu.attributes
                0x00000250       0x10 build/Board4/production/_ext/905643201/heap_2.o
 .gnu.attributes
                0x00000260       0x10 build/Board4/production/_ext/331515796/port.o
 .gnu.attributes
                0x00000270       0x10 build/Board4/production/_ext/1539584926/croutine.o
 .gnu.attributes
                0x00000280       0x10 build/Board4/production/_ext/1539584926/list.o
 .gnu.attributes
                0x00000290       0x10 build/Board4/production/_ext/1539584926/queue.o
 .gnu.attributes
                0x000002a0       0x10 build/Board4/production/_ext/1539584926/tasks.o
 .gnu.attributes
                0x000002b0       0x10 build/Board4/production/_ext/1539584926/timers.o
 .gnu.attributes
                0x000002c0       0x10 build/Board4/production/_ext/1539584926/event_groups.o
 .gnu.attributes
                0x000002d0       0x10 build/Board4/production/_ext/1539584926/stream_buffer.o
 .gnu.attributes
                0x000002e0       0x10 /Applications/microchip/xc32/v2.15/bin/bin/../../lib/gcc/pic32mx/4.8.3/libgcc.a(floatunsisf.o)
 .gnu.attributes
                0x000002f0       0x10 /Applications/microchip/xc32/v2.15/bin/bin/../../lib/gcc/pic32mx/4.8.3/../../../../pic32mx/lib/libpic32.a(default-bootstrap-exception-handler.o)
 .gnu.attributes
                0x00000300       0x10 /Applications/microchip/xc32/v2.15/bin/bin/../../lib/gcc/pic32mx/4.8.3/../../../../pic32mx/lib/libpic32.a(default-on-reset.o)
 .gnu.attributes
                0x00000310       0x10 /Applications/microchip/xc32/v2.15/bin/bin/../../lib/gcc/pic32mx/4.8.3/../../../../pic32mx/lib/libpic32.a(default-on-bootstrap.o)
 .gnu.attributes
                0x00000320       0x10 /Applications/microchip/xc32/v2.15/bin/bin/../../lib/gcc/pic32mx/4.8.3/../../../../pic32mx/lib/libpic32.a(defaultinterrupt.o)
 .gnu.attributes
                0x00000330       0x10 /Applications/microchip/xc32/v2.15/bin/bin/../../lib/gcc/pic32mx/4.8.3/../../../../pic32mx/lib/libc.a(ctypef.o)
 .gnu.attributes
                0x00000340       0x10 /Applications/microchip/xc32/v2.15/bin/bin/../../lib/gcc/pic32mx/4.8.3/../../../../pic32mx/lib/libc.a(malloc.o)
 .gnu.attributes
                0x00000350       0x10 /Applications/microchip/xc32/v2.15/bin/bin/../../lib/gcc/pic32mx/4.8.3/../../../../pic32mx/lib/libc.a(strcat.o)
 .gnu.attributes
                0x00000360       0x10 /Applications/microchip/xc32/v2.15/bin/bin/../../lib/gcc/pic32mx/4.8.3/../../../../pic32mx/lib/libc.a(strncmp.o)
 .gnu.attributes
                0x00000370       0x10 /Applications/microchip/xc32/v2.15/bin/bin/../../lib/gcc/pic32mx/4.8.3/../../../../pic32mx/lib/libc.a(strtod.o)
 .gnu.attributes
                0x00000380       0x10 /Applications/microchip/xc32/v2.15/bin/bin/../../lib/gcc/pic32mx/4.8.3/../../../../pic32mx/lib/libc.a(sprintf_cdgGnopuxX.eo)
 .gnu.attributes
                0x00000390       0x10 /Applications/microchip/xc32/v2.15/bin/bin/../../lib/gcc/pic32mx/4.8.3/../../../../pic32mx/lib/libc.a(sscanf_gG.eo)
 .gnu.attributes
                0x000003a0       0x10 /Applications/microchip/xc32/v2.15/bin/bin/../../lib/gcc/pic32mx/4.8.3/../../../../pic32mx/lib/libc.a(ctype.o)
 .gnu.attributes
                0x000003b0       0x10 /Applications/microchip/xc32/v2.15/bin/bin/../../lib/gcc/pic32mx/4.8.3/../../../../pic32mx/lib/libc.a(doprnt_cdgGnopuxX.eo)
 .gnu.attributes
                0x000003c0       0x10 /Applications/microchip/xc32/v2.15/bin/bin/../../lib/gcc/pic32mx/4.8.3/../../../../pic32mx/lib/libc.a(doscan_gG.eo)
 .gnu.attributes
                0x000003d0       0x10 /Applications/microchip/xc32/v2.15/bin/bin/../../lib/gcc/pic32mx/4.8.3/../../../../pic32mx/lib/libc.a(fgetc.o)
 .gnu.attributes
                0x000003e0       0x10 /Applications/microchip/xc32/v2.15/bin/bin/../../lib/gcc/pic32mx/4.8.3/../../../../pic32mx/lib/libc.a(_fputc_simple.o)
 .gnu.attributes
                0x000003f0       0x10 /Applications/microchip/xc32/v2.15/bin/bin/../../lib/gcc/pic32mx/4.8.3/../../../../pic32mx/lib/libc.a(atoi.o)
 .gnu.attributes
                0x00000400       0x10 /Applications/microchip/xc32/v2.15/bin/bin/../../lib/gcc/pic32mx/4.8.3/../../../../pic32mx/lib/libc.a(ldpowers.o)
 .gnu.attributes
                0x00000410       0x10 /Applications/microchip/xc32/v2.15/bin/bin/../../lib/gcc/pic32mx/4.8.3/../../../../pic32mx/lib/libc.a(strtof.o)
 .gnu.attributes
                0x00000420       0x10 /Applications/microchip/xc32/v2.15/bin/bin/../../lib/gcc/pic32mx/4.8.3/../../../../pic32mx/lib/libc.a(ungetc.o)
 .gnu.attributes
                0x00000430       0x10 /Applications/microchip/xc32/v2.15/bin/bin/../../lib/gcc/pic32mx/4.8.3/../../../../pic32mx/lib/libc.a(_iob.o)
 .gnu.attributes
                0x00000440       0x10 /Applications/microchip/xc32/v2.15/bin/bin/../../lib/gcc/pic32mx/4.8.3/../../../../pic32mx/lib/libc.a(filbuf.o)
 .gnu.attributes
                0x00000450       0x10 /Applications/microchip/xc32/v2.15/bin/bin/../../lib/gcc/pic32mx/4.8.3/../../../../pic32mx/lib/libc.a(_flsbuf_simple.o)
 .gnu.attributes
                0x00000460       0x10 /Applications/microchip/xc32/v2.15/bin/bin/../../lib/gcc/pic32mx/4.8.3/../../../../pic32mx/lib/libc.a(fflush.o)
 .gnu.attributes
                0x00000470       0x10 /Applications/microchip/xc32/v2.15/bin/bin/../../lib/gcc/pic32mx/4.8.3/../../../../pic32mx/lib/libm.a(w_powf.o)
 .gnu.attributes
                0x00000480       0x10 /Applications/microchip/xc32/v2.15/bin/bin/../../lib/gcc/pic32mx/4.8.3/../../../../pic32mx/lib/libm.a(__strtod.o)
 .gnu.attributes
                0x00000490       0x10 /Applications/microchip/xc32/v2.15/bin/bin/../../lib/gcc/pic32mx/4.8.3/../../../../pic32mx/lib/libm.a(__strtof.o)
 .gnu.attributes
                0x000004a0       0x10 /Applications/microchip/xc32/v2.15/bin/bin/../../lib/gcc/pic32mx/4.8.3/../../../../pic32mx/lib/libm.a(s_lib_ver.o)
 .gnu.attributes
                0x000004b0       0x10 /Applications/microchip/xc32/v2.15/bin/bin/../../lib/gcc/pic32mx/4.8.3/../../../../pic32mx/lib/libe.a(_fixunsdfdi.o)
 .gnu.attributes
                0x000004c0       0x10 /Applications/microchip/xc32/v2.15/bin/bin/../../lib/gcc/pic32mx/4.8.3/../../../../pic32mx/lib/libe.a(_orderdf2.o)
 .gnu.attributes
                0x000004d0       0x10 /Applications/microchip/xc32/v2.15/bin/bin/../../lib/gcc/pic32mx/4.8.3/../../../../pic32mx/lib/libe.a(_ldexp.o)
 .gnu.attributes
                0x000004e0       0x10 /Applications/microchip/xc32/v2.15/bin/bin/../../lib/gcc/pic32mx/4.8.3/../../../../pic32mx/lib/libe.a(_ldexpf.o)
 .gnu.attributes
                0x000004f0       0x10 /Applications/microchip/xc32/v2.15/bin/bin/../../lib/gcc/pic32mx/4.8.3/../../../../pic32mx/lib/libe.a(_fixdfdi.o)
 .gnu.attributes
                0x00000500       0x10 /Applications/microchip/xc32/v2.15/bin/bin/../../lib/gcc/pic32mx/4.8.3/libgcc.a(_lshrdi3.o)
 .gnu.attributes
                0x00000510       0x10 /Applications/microchip/xc32/v2.15/bin/bin/../../lib/gcc/pic32mx/4.8.3/libgcc.a(_ashldi3.o)
 .gnu.attributes
                0x00000520       0x10 /Applications/microchip/xc32/v2.15/bin/bin/../../lib/gcc/pic32mx/4.8.3/libgcc.a(_floatundidf.o)
 .gnu.attributes
                0x00000530       0x10 /Applications/microchip/xc32/v2.15/bin/bin/../../lib/gcc/pic32mx/4.8.3/libgcc.a(_udivdi3.o)
 .gnu.attributes
                0x00000540       0x10 /Applications/microchip/xc32/v2.15/bin/bin/../../lib/gcc/pic32mx/4.8.3/libgcc.a(_umoddi3.o)
 .gnu.attributes
                0x00000550       0x10 /Applications/microchip/xc32/v2.15/bin/bin/../../lib/gcc/pic32mx/4.8.3/libgcc.a(floatunsidf.o)
 .gnu.attributes
                0x00000560       0x10 /Applications/microchip/xc32/v2.15/bin/bin/../../lib/gcc/pic32mx/4.8.3/../../../../pic32mx/lib/libpic32.a(sbrk.o)
 .gnu.attributes
                0x00000570       0x10 /Applications/microchip/xc32/v2.15/bin/bin/../../lib/gcc/pic32mx/4.8.3/../../../../pic32mx/lib/libpic32.a(read.o)
 .gnu.attributes
                0x00000580       0x10 /Applications/microchip/xc32/v2.15/bin/bin/../../lib/gcc/pic32mx/4.8.3/../../../../pic32mx/lib/libpic32.a(write.o)
 .gnu.attributes
                0x00000590       0x10 /Applications/microchip/xc32/v2.15/bin/bin/../../lib/gcc/pic32mx/4.8.3/../../../../pic32mx/lib/libpic32.a(xc32_uart.o)
 .gnu.attributes
                0x000005a0       0x10 /Applications/microchip/xc32/v2.15/bin/bin/../../lib/gcc/pic32mx/4.8.3/../../../../pic32mx/lib/libpic32.a(errno.o)
 .gnu.attributes
                0x000005b0       0x10 /Applications/microchip/xc32/v2.15/bin/bin/../../lib/gcc/pic32mx/4.8.3/../../../../pic32mx/lib/libpic32.a(isinf.o)
 .gnu.attributes
                0x000005c0       0x10 /Applications/microchip/xc32/v2.15/bin/bin/../../lib/gcc/pic32mx/4.8.3/../../../../pic32mx/lib/libpic32.a(_mon_putc.o)
 .gnu.attributes
                0x000005d0       0x10 /Applications/microchip/xc32/v2.15/bin/bin/../../lib/gcc/pic32mx/4.8.3/../../../../pic32mx/lib/libe.a(_unorddf2.o)
LOAD /Applications/microchip/xc32/v2.15/bin/bin/../../lib/gcc/pic32mx/4.8.3/libgcc.a
START GROUP
LOAD /Applications/microchip/xc32/v2.15/bin/bin/../../lib/gcc/pic32mx/4.8.3/../../../../pic32mx/lib/libpic32.a
LOAD /Applications/microchip/xc32/v2.15/bin/bin/../../lib/gcc/pic32mx/4.8.3/../../../../pic32mx/lib/libdebug.a
LOAD /Applications/microchip/xc32/v2.15/bin/bin/../../lib/gcc/pic32mx/4.8.3/../../../../pic32mx/lib/libpic32.a
LOAD /Applications/microchip/xc32/v2.15/bin/bin/../../lib/gcc/pic32mx/4.8.3/../../../../pic32mx/lib/libc.a
LOAD /Applications/microchip/xc32/v2.15/bin/bin/../../lib/gcc/pic32mx/4.8.3/../../../../pic32mx/lib/libc.a
LOAD /Applications/microchip/xc32/v2.15/bin/bin/../../lib/gcc/pic32mx/4.8.3/../../../../pic32mx/lib/libm.a
LOAD /Applications/microchip/xc32/v2.15/bin/bin/../../lib/gcc/pic32mx/4.8.3/../../../../pic32mx/lib/libe.a
LOAD /Applications/microchip/xc32/v2.15/bin/bin/../../lib/gcc/pic32mx/4.8.3/../../../../pic32mx/lib/libdsp.a
LOAD /Applications/microchip/xc32/v2.15/bin/bin/../../lib/gcc/pic32mx/4.8.3/libgcc.a
LOAD /Applications/microchip/xc32/v2.15/bin/bin/../../lib/gcc/pic32mx/4.8.3/../../../../pic32mx/lib/libpic32.a
END GROUP
LOAD /Applications/microchip/xc32/v2.15/bin/bin/../../lib/gcc/pic32mx/4.8.3/libgcc.a
OUTPUT(dist/Board4/production/Board4.X.production.elf elf32-tradlittlemips)
LOAD stack
LOAD data_init

.reginfo        0x00000000       0x18
 .reginfo       0x00000000       0x18 /Applications/microchip/xc32/v2.15/bin/bin/../../lib/gcc/pic32mx/4.8.3/../../../../pic32mx/lib/debug-exception-return.o

.stack          0xa00150f0      0x400
 .stack         0xa00150f0      0x400 stack

.bss            0xa0000154    0x14000
 .bss           0xa0000154    0x14000 build/Board4/production/_ext/905643201/heap_2.o

.bss            0xa0014158      0x948
 .bss           0xa0014158      0x640 build/Board4/production/_ext/331515796/port.o
                0xa0014158                xISRStack
 .bss           0xa0014798      0x308 build/Board4/production/_ext/676718598/wifi_state.o

.bss            0xa0014aa0      0x344
 .bss           0xa0014aa0      0x278 build/Board4/production/_ext/676718598/pixy2Func.o
 .bss           0xa0014d18       0xcc build/Board4/production/_ext/676718598/http.o

.bss            0xa0014de4       0xc8
 .bss           0xa0014de4       0xc8 build/Board4/production/_ext/1539584926/tasks.o

.data           0xa0014eac      0x130
 .data          0xa0014eac       0xa4 /Applications/microchip/xc32/v2.15/bin/bin/../../lib/gcc/pic32mx/4.8.3/../../../../pic32mx/lib/libc.a(_iob.o)
                0xa0014eac                _Files
                0xa0014eb0                _iob
 .data          0xa0014f50       0x8c /Applications/microchip/xc32/v2.15/bin/bin/../../lib/gcc/pic32mx/4.8.3/../../../../pic32mx/lib/libm.a(fpexlog.o)

.bss            0xa0014fdc       0xa0
 .bss           0xa0014fdc       0x5c build/Board4/production/_ext/676718598/pixy_queue.o
 .bss           0xa0015038       0x44 /Applications/microchip/xc32/v2.15/bin/bin/../../lib/gcc/pic32mx/4.8.3/../../../../pic32mx/lib/libc.a(_iob.o)
                0xa0015038                _sobuf
                0xa0015058                _sibuf
                0xa0015078                _outdone

.bss            0xa001507c       0x28
 .bss           0xa001507c       0x28 build/Board4/production/_ext/1539584926/timers.o

.data           0xa00150a4       0x28
 .data          0xa00150a4       0x1c /Applications/microchip/xc32/v2.15/bin/bin/../../lib/gcc/pic32mx/4.8.3/../../../../pic32mx/lib/libm.a(fpexp32.o)
 .data          0xa00150c0        0xc build/Board4/production/_ext/676718598/cJSON.o

.bss            0xa0014154        0x4
 .bss           0xa0014154        0x4 /Applications/microchip/xc32/v2.15/bin/bin/../../lib/gcc/pic32mx/4.8.3/../../../../pic32mx/lib/libc.a(doscan_gG.eo)

.data.math_errhandling_flag
                0xa00150cc        0x4
 .data.math_errhandling_flag
                0xa00150cc        0x4 /Applications/microchip/xc32/v2.15/bin/bin/../../lib/gcc/pic32mx/4.8.3/../../../../pic32mx/lib/libm.a(s_lib_ver.o)
                0xa00150cc                math_errhandling

.bss.errno      0xa00150d0        0x4
 .bss.errno     0xa00150d0        0x4 /Applications/microchip/xc32/v2.15/bin/bin/../../lib/gcc/pic32mx/4.8.3/../../../../pic32mx/lib/libpic32.a(errno.o)
                0xa00150d0                errno

._debug_exception
                0xbfc00480       0x2c
 ._debug_exception
                0xbfc00480       0x2c /Applications/microchip/xc32/v2.15/bin/bin/../../lib/gcc/pic32mx/4.8.3/../../../../pic32mx/lib/debug-exception-return.o
                0xbfc00480                __DbgExecReturn

.text._vfprintf_cdgGnopuxX
                0x9d000000     0x1c44
 .text._vfprintf_cdgGnopuxX
                0x9d000000     0x1c44 /Applications/microchip/xc32/v2.15/bin/bin/../../lib/gcc/pic32mx/4.8.3/../../../../pic32mx/lib/libc.a(doprnt_cdgGnopuxX.eo)
                0x9d000000                _vfprintf_cdnopuxX
                0x9d000000                _vfprintf_cdgGnopuxX

.text._vfscanf_gG
                0x9d001c44      0xb98
 .text._vfscanf_gG
                0x9d001c44      0xb98 /Applications/microchip/xc32/v2.15/bin/bin/../../lib/gcc/pic32mx/4.8.3/../../../../pic32mx/lib/libc.a(doscan_gG.eo)
                0x9d001c44                _vfscanf_gG

.text.parse_value
                0x9d0027dc      0x740
 .text.parse_value
                0x9d0027dc      0x740 build/Board4/production/_ext/676718598/cJSON.o

.text.print_value
                0x9d002f1c      0x67c
 .text.print_value
                0x9d002f1c      0x67c build/Board4/production/_ext/676718598/cJSON.o

.text.parse_string
                0x9d003598      0x530
 .text.parse_string
                0x9d003598      0x530 build/Board4/production/_ext/676718598/cJSON.o

.text.dp32mul   0x9d003ac8      0x4b8
 .text.dp32mul  0x9d003ac8      0x4b8 /Applications/microchip/xc32/v2.15/bin/bin/../../lib/gcc/pic32mx/4.8.3/../../../../pic32mx/lib/libm.a(dp32div.o)
                0x9d003ac8                __divdf3
                0x9d003ac8                dpdiv

.text           0x9d003f80      0x8bc
 .text          0x9d003f80      0x464 /Applications/microchip/xc32/v2.15/bin/bin/../../lib/gcc/pic32mx/4.8.3/libgcc.a(_umoddi3.o)
                0x9d003f80                __umoddi3
 .text          0x9d0043e4      0x458 /Applications/microchip/xc32/v2.15/bin/bin/../../lib/gcc/pic32mx/4.8.3/libgcc.a(_udivdi3.o)
                0x9d0043e4                __udivdi3

.text           0x9d00483c      0x454
 .text          0x9d00483c      0x454 build/Board4/production/_ext/331515796/port_asm.o
                0x9d00483c                vPortTickInterruptHandler
                0x9d0049e8                vPortStartFirstTask
                0x9d004ab0                vPortYieldISR

.text.dp32subadd
                0x9d004c90      0x430
 .text.dp32subadd
                0x9d004c90      0x430 /Applications/microchip/xc32/v2.15/bin/bin/../../lib/gcc/pic32mx/4.8.3/../../../../pic32mx/lib/libm.a(dp32subadd.o)
                0x9d004c90                dpsub
                0x9d004c90                __subdf3
                0x9d004c98                dpadd
                0x9d004c98                __adddf3

.text.libm      0x9d0050c0      0x408
 .text.libm     0x9d0050c0      0x408 /Applications/microchip/xc32/v2.15/bin/bin/../../lib/gcc/pic32mx/4.8.3/../../../../pic32mx/lib/libm.a(fppow32.o)
                0x9d0050c0                fppow
                0x9d0050c0                __mchp_powf

.text.__strtod  0x9d0054c8      0x3d0
 .text.__strtod
                0x9d0054c8      0x3d0 /Applications/microchip/xc32/v2.15/bin/bin/../../lib/gcc/pic32mx/4.8.3/../../../../pic32mx/lib/libm.a(__strtod.o)
                0x9d0054c8                __strtod

.text.motorPixy
                0x9d005898      0x388
 .text.motorPixy
                0x9d005898      0x388 build/Board4/production/_ext/676718598/pixy2Func.o
                0x9d005898                motorPixy

.rodata         0x9d005c20      0x364
 .rodata        0x9d005c20      0x364 build/Board4/production/_ext/676718598/http.o

.text.__strtof  0x9d005f84      0x358
 .text.__strtof
                0x9d005f84      0x358 /Applications/microchip/xc32/v2.15/bin/bin/../../lib/gcc/pic32mx/4.8.3/../../../../pic32mx/lib/libm.a(__strtof.o)
                0x9d005f84                __strtof

.text.dp32mul   0x9d0062dc      0x32c
 .text.dp32mul  0x9d0062dc      0x32c /Applications/microchip/xc32/v2.15/bin/bin/../../lib/gcc/pic32mx/4.8.3/../../../../pic32mx/lib/libm.a(dp32mul.o)
                0x9d0062dc                dpmul
                0x9d0062dc                __muldf3

.dinit          0x9d006608      0x300
 .dinit         0x9d006608      0x300 data_init

.text.xTaskCreate
                0x9d006908      0x2c8
 .text.xTaskCreate
                0x9d006908      0x2c8 build/Board4/production/_ext/1539584926/tasks.o
                0x9d006908                xTaskCreate

.text.libm      0x9d006bd0      0x2b4
 .text.libm     0x9d006bd0      0x2b4 /Applications/microchip/xc32/v2.15/bin/bin/../../lib/gcc/pic32mx/4.8.3/../../../../pic32mx/lib/libm.a(fpexlog.o)
                0x9d006bd0                fpexlog

.text.print_string_ptr
                0x9d006e84      0x2a8
 .text.print_string_ptr
                0x9d006e84      0x2a8 build/Board4/production/_ext/676718598/cJSON.o

.text.fpsubadd  0x9d00712c      0x278
 .text.fpsubadd
                0x9d00712c      0x278 /Applications/microchip/xc32/v2.15/bin/bin/../../lib/gcc/pic32mx/4.8.3/../../../../pic32mx/lib/libm.a(fp32subadd.o)
                0x9d00712c                fpsub
                0x9d00712c                __subsf3
                0x9d007134                fpadd
                0x9d007134                __addsf3

.text.prvTimerTask
                0x9d0073a4      0x270
 .text.prvTimerTask
                0x9d0073a4      0x270 build/Board4/production/_ext/1539584926/timers.o

.text.scale     0x9d007614      0x23c
 .text.scale    0x9d007614      0x23c /Applications/microchip/xc32/v2.15/bin/bin/../../lib/gcc/pic32mx/4.8.3/../../../../pic32mx/lib/libc.a(doprnt_cdgGnopuxX.eo)

.text.pixy2fsm  0x9d007850      0x230
 .text.pixy2fsm
                0x9d007850      0x230 build/Board4/production/_ext/676718598/pixy_queue.o
                0x9d007850                pixy2fsm

.text.fp32div   0x9d007a80      0x230
 .text.fp32div  0x9d007a80      0x230 /Applications/microchip/xc32/v2.15/bin/bin/../../lib/gcc/pic32mx/4.8.3/../../../../pic32mx/lib/libm.a(fp32div.o)
                0x9d007a80                __divsf3
                0x9d007a80                fpdiv

.text.xQueueGenericSend
                0x9d007cb0      0x20c
 .text.xQueueGenericSend
                0x9d007cb0      0x20c build/Board4/production/_ext/1539584926/queue.o
                0x9d007cb0                xQueueGenericSend

.text           0x9d007ebc      0x204
 .text          0x9d007ebc      0x204 /Applications/microchip/xc32/v2.15/bin/bin/../../lib/gcc/pic32mx/4.8.3/../../../../pic32mx/lib/libm.a(fpexp32.o)
                0x9d007ebc                fpexexp
                0x9d007fd4                __mchp_expf
                0x9d007fd4                fpexp

.text.UART_Proxy
                0x9d0080c0      0x1cc
 .text.UART_Proxy
                0x9d0080c0      0x1cc build/Board4/production/_ext/676718598/wifi_state.o
                0x9d0080c0                UART_Proxy

.text.fround    0x9d00828c      0x1cc
 .text.fround   0x9d00828c      0x1cc /Applications/microchip/xc32/v2.15/bin/bin/../../lib/gcc/pic32mx/4.8.3/../../../../pic32mx/lib/libc.a(doprnt_cdgGnopuxX.eo)

.text.StateMachineHelper
                0x9d008458      0x1c4
 .text.StateMachineHelper
                0x9d008458      0x1c4 build/Board4/production/_ext/676718598/sensor_state.o
                0x9d008458                StateMachineHelper

.text.WaitingStateHelper
                0x9d00861c      0x1c0
 .text.WaitingStateHelper
                0x9d00861c      0x1c0 build/Board4/production/_ext/676718598/motor_state.o
                0x9d00861c                WaitingStateHelper

.text.xQueueReceive
                0x9d0087dc      0x1c0
 .text.xQueueReceive
                0x9d0087dc      0x1c0 build/Board4/production/_ext/1539584926/queue.o
                0x9d0087dc                xQueueReceive

.text.cJSON_ParseWithOpts
                0x9d00899c      0x1bc
 .text.cJSON_ParseWithOpts
                0x9d00899c      0x1bc build/Board4/production/_ext/676718598/cJSON.o
                0x9d00899c                cJSON_ParseWithOpts

.text.fp32mul   0x9d008b58      0x1bc
 .text.fp32mul  0x9d008b58      0x1bc /Applications/microchip/xc32/v2.15/bin/bin/../../lib/gcc/pic32mx/4.8.3/../../../../pic32mx/lib/libm.a(fp32mul.o)
                0x9d008b58                fpmul
                0x9d008b58                __mulsf3

.DrvTmrInstance1_vector_text
                0x9d008d14      0x1b4
 .DrvTmrInstance1_vector_text
                0x9d008d14      0x1b4 build/Board4/production/_ext/1445490757/system_interrupt_a.o

.DrvTmrInstance2_vector_text
                0x9d008ec8      0x1b4
 .DrvTmrInstance2_vector_text
                0x9d008ec8      0x1b4 build/Board4/production/_ext/1445490757/system_interrupt_a.o

.DrvTmrInstance3_vector_text
                0x9d00907c      0x1b4
 .DrvTmrInstance3_vector_text
                0x9d00907c      0x1b4 build/Board4/production/_ext/1445490757/system_interrupt_a.o

.DrvUsartInstance0_vector_text
                0x9d009230      0x1b4
 .DrvUsartInstance0_vector_text
                0x9d009230      0x1b4 build/Board4/production/_ext/1445490757/system_interrupt_a.o

.DrvUsartInstance1_vector_text
                0x9d0093e4      0x1b4
 .DrvUsartInstance1_vector_text
                0x9d0093e4      0x1b4 build/Board4/production/_ext/1445490757/system_interrupt_a.o

.DrvUsartInstance2_vector_text
                0x9d009598      0x1b4
 .DrvUsartInstance2_vector_text
                0x9d009598      0x1b4 build/Board4/production/_ext/1445490757/system_interrupt_a.o

.text.PIXYMOTOR_PUT_construct_Helper
                0x9d00974c      0x1a8
 .text.PIXYMOTOR_PUT_construct_Helper
                0x9d00974c      0x1a8 build/Board4/production/_ext/676718598/http.o
                0x9d00974c                PIXYMOTOR_PUT_construct_Helper

.text.__ldexp   0x9d0098f4      0x1a8
 .text.__ldexp  0x9d0098f4      0x1a8 /Applications/microchip/xc32/v2.15/bin/bin/../../lib/gcc/pic32mx/4.8.3/../../../../pic32mx/lib/libe.a(_ldexp.o)
                0x9d0098f4                __ldexp

.text           0x9d009a9c      0x1a0
 .text          0x9d009a9c      0x1a0 /Applications/microchip/xc32/v2.15/bin/bin/../../lib/gcc/pic32mx/4.8.3/../../../../pic32mx/lib/libpic32.a(strcpy.o)
                0x9d009a9c                strcpy

.text.xTaskIncrementTick
                0x9d009c3c      0x198
 .text.xTaskIncrementTick
                0x9d009c3c      0x198 build/Board4/production/_ext/1539584926/tasks.o
                0x9d009c3c                xTaskIncrementTick

.text.DRV_USART0_Initialize
                0x9d009dd4      0x18c
 .text.DRV_USART0_Initialize
                0x9d009dd4      0x18c build/Board4/production/_ext/1303525714/drv_usart_static.o
                0x9d009dd4                DRV_USART0_Initialize

.text.DRV_USART1_Initialize
                0x9d009f60      0x18c
 .text.DRV_USART1_Initialize
                0x9d009f60      0x18c build/Board4/production/_ext/1303525714/drv_usart_static.o
                0x9d009f60                DRV_USART1_Initialize

.text.DRV_USART2_Initialize
                0x9d00a0ec      0x18c
 .text.DRV_USART2_Initialize
                0x9d00a0ec      0x18c build/Board4/production/_ext/1303525714/drv_usart_static.o
                0x9d00a0ec                DRV_USART2_Initialize

.text._filbuf   0x9d00a278      0x188
 .text._filbuf  0x9d00a278      0x188 /Applications/microchip/xc32/v2.15/bin/bin/../../lib/gcc/pic32mx/4.8.3/../../../../pic32mx/lib/libc.a(filbuf.o)
                0x9d00a278                _filbuf

.text.GETnumHelpFunc
                0x9d00a400      0x17c
 .text.GETnumHelpFunc
                0x9d00a400      0x17c build/Board4/production/_ext/676718598/http.o
                0x9d00a400                GETnumHelpFunc

.text.IntHandlerDrvUsartInstance0
                0x9d00a57c      0x16c
 .text.IntHandlerDrvUsartInstance0
                0x9d00a57c      0x16c build/Board4/production/_ext/1445490757/system_interrupt.o
                0x9d00a57c                IntHandlerDrvUsartInstance0

.text.print     0x9d00a6e8      0x168
 .text.print    0x9d00a6e8      0x168 build/Board4/production/_ext/676718598/cJSON.o

.text           0x9d00a850      0x2d0
 .text          0x9d00a850      0x168 /Applications/microchip/xc32/v2.15/bin/bin/../../lib/gcc/pic32mx/4.8.3/../../../../pic32mx/lib/libpic32.a(memcpy.o)
                0x9d00a850                memcpy
 .text          0x9d00a9b8      0x168 /Applications/microchip/xc32/v2.15/bin/bin/../../lib/gcc/pic32mx/4.8.3/../../../../pic32mx/lib/libpic32.a(strlen.o)
                0x9d00a9b8                strlen

.rodata         0x9d00ab20      0x160
 .rodata        0x9d00ab20      0x160 /Applications/microchip/xc32/v2.15/bin/bin/../../lib/gcc/pic32mx/4.8.3/../../../../pic32mx/lib/libc.a(ldpowers.o)
                0x9d00ab20                _npowers_
                0x9d00abd0                _powers_

.text.SYS_Initialize
                0x9d00ac80      0x15c
 .text.SYS_Initialize
                0x9d00ac80      0x15c build/Board4/production/_ext/1445490757/system_init.o
                0x9d00ac80                SYS_Initialize

.text.pvPortMalloc
                0x9d00addc      0x15c
 .text.pvPortMalloc
                0x9d00addc      0x15c build/Board4/production/_ext/905643201/heap_2.o
                0x9d00addc                pvPortMalloc

.text.read      0x9d00af38      0x158
 .text.read     0x9d00af38      0x158 /Applications/microchip/xc32/v2.15/bin/bin/../../lib/gcc/pic32mx/4.8.3/../../../../pic32mx/lib/libpic32.a(read.o)
                0x9d00af38                read

.text.ensure    0x9d00b090      0x154
 .text.ensure   0x9d00b090      0x154 build/Board4/production/_ext/676718598/cJSON.o

.text.xTaskResumeAll
                0x9d00b1e4      0x148
 .text.xTaskResumeAll
                0x9d00b1e4      0x148 build/Board4/production/_ext/1539584926/tasks.o
                0x9d00b1e4                xTaskResumeAll

.text.powf      0x9d00b32c      0x148
 .text.powf     0x9d00b32c      0x148 /Applications/microchip/xc32/v2.15/bin/bin/../../lib/gcc/pic32mx/4.8.3/../../../../pic32mx/lib/libm.a(w_powf.o)
                0x9d00b32c                powf

.text.stat_http_construct
                0x9d00b474      0x144
 .text.stat_http_construct
                0x9d00b474      0x144 build/Board4/production/_ext/676718598/http.o
                0x9d00b474                stat_http_construct

.text.fputc     0x9d00b5b8      0x144
 .text.fputc    0x9d00b5b8      0x144 /Applications/microchip/xc32/v2.15/bin/bin/../../lib/gcc/pic32mx/4.8.3/../../../../pic32mx/lib/libc.a(_fputc_simple.o)
                0x9d00b5b8                fputc

.text.http_parse
                0x9d00b6fc      0x140
 .text.http_parse
                0x9d00b6fc      0x140 build/Board4/production/_ext/676718598/http.o
                0x9d00b6fc                http_parse

.text.pixy_uart_fsm
                0x9d00b83c      0x134
 .text.pixy_uart_fsm
                0x9d00b83c      0x134 build/Board4/production/_ext/676718598/pixy2Func.o
                0x9d00b83c                pixy_uart_fsm

.text.get_object_item
                0x9d00b970      0x130
 .text.get_object_item
                0x9d00b970      0x130 build/Board4/production/_ext/676718598/cJSON.o

.text.GETrecieveHelpFunc
                0x9d00baa0      0x130
 .text.GETrecieveHelpFunc
                0x9d00baa0      0x130 build/Board4/production/_ext/676718598/http.o
                0x9d00baa0                GETrecieveHelpFunc

.text._flsbuf   0x9d00bbd0      0x12c
 .text._flsbuf  0x9d00bbd0      0x12c /Applications/microchip/xc32/v2.15/bin/bin/../../lib/gcc/pic32mx/4.8.3/../../../../pic32mx/lib/libc.a(_flsbuf_simple.o)
                0x9d00bbd0                _flsbuf

.text.dpcmp     0x9d00bcfc      0x12c
 .text.dpcmp    0x9d00bcfc      0x12c /Applications/microchip/xc32/v2.15/bin/bin/../../lib/gcc/pic32mx/4.8.3/../../../../pic32mx/lib/libm.a(dpcmp.o)
                0x9d00bcfc                __gtdf2
                0x9d00bcfc                __ltdf2
                0x9d00bcfc                __gedf2
                0x9d00bcfc                dpcmp
                0x9d00bcfc                __ledf2
                0x9d00bcfc                __nedf2
                0x9d00bcfc                __eqdf2

.rodata         0x9d00be28      0x128
 .rodata        0x9d00be28      0x128 build/Board4/production/_ext/1445490757/system_exceptions.o

.text.jsonDecode
                0x9d00bf50      0x124
 .text.jsonDecode
                0x9d00bf50      0x124 build/Board4/production/_ext/676718598/http.o
                0x9d00bf50                jsonDecode

.text           0x9d00c074      0x120
 .text          0x9d00c074      0x120 /Applications/microchip/xc32/v2.15/bin/bin/../../lib/gcc/pic32mx/4.8.3/../../../../pic32mx/lib/libpic32.a(strcmp.o)
                0x9d00c074                strcmp

.text.isHttp    0x9d00c194      0x11c
 .text.isHttp   0x9d00c194      0x11c build/Board4/production/_ext/676718598/http.o
                0x9d00c194                isHttp

.text.sensorStateMachine
                0x9d00c2b0      0x11c
 .text.sensorStateMachine
                0x9d00c2b0      0x11c build/Board4/production/_ext/676718598/sensor_state.o
                0x9d00c2b0                sensorStateMachine

.text.GET_construct_Helper
                0x9d00c3cc      0x110
 .text.GET_construct_Helper
                0x9d00c3cc      0x110 build/Board4/production/_ext/676718598/http.o
                0x9d00c3cc                GET_construct_Helper

.text.GETcontentHelpFunc
                0x9d00c4dc      0x110
 .text.GETcontentHelpFunc
                0x9d00c4dc      0x110 build/Board4/production/_ext/676718598/http.o
                0x9d00c4dc                GETcontentHelpFunc

.text.prvSampleTimeNow
                0x9d00c5ec      0x104
 .text.prvSampleTimeNow
                0x9d00c5ec      0x104 build/Board4/production/_ext/1539584926/timers.o

.rodata         0x9d00c6f0      0x104
 .rodata        0x9d00c6f0      0x104 /Applications/microchip/xc32/v2.15/bin/bin/../../lib/gcc/pic32mx/4.8.3/../../../../pic32mx/lib/libc.a(ctype.o)
                0x9d00c6f0                _ctype

.text.fgetc     0x9d00c7f4      0x104
 .text.fgetc    0x9d00c7f4      0x104 /Applications/microchip/xc32/v2.15/bin/bin/../../lib/gcc/pic32mx/4.8.3/../../../../pic32mx/lib/libc.a(fgetc.o)
                0x9d00c7f4                fgetc

.text.__ldexpf  0x9d00c8f8      0x104
 .text.__ldexpf
                0x9d00c8f8      0x104 /Applications/microchip/xc32/v2.15/bin/bin/../../lib/gcc/pic32mx/4.8.3/../../../../pic32mx/lib/libe.a(_ldexpf.o)
                0x9d00c8f8                __ldexpf

.text.IntHandlerDrvUsartInstance2
                0x9d00c9fc      0x100
 .text.IntHandlerDrvUsartInstance2
                0x9d00c9fc      0x100 build/Board4/production/_ext/1445490757/system_interrupt.o
                0x9d00c9fc                IntHandlerDrvUsartInstance2

.text.prvUnlockQueue
                0x9d00cafc      0x100
 .text.prvUnlockQueue
                0x9d00cafc      0x100 build/Board4/production/_ext/1539584926/queue.o

.text.dptofp    0x9d00cbfc      0x100
 .text.dptofp   0x9d00cbfc      0x100 /Applications/microchip/xc32/v2.15/bin/bin/../../lib/gcc/pic32mx/4.8.3/../../../../pic32mx/lib/libm.a(dptofp.o)
                0x9d00cbfc                dptofp
                0x9d00cbfc                __truncdfsf2

.text.xTaskPriorityDisinherit
                0x9d00ccfc       0xf8
 .text.xTaskPriorityDisinherit
                0x9d00ccfc       0xf8 build/Board4/production/_ext/1539584926/tasks.o
                0x9d00ccfc                xTaskPriorityDisinherit

.rodata         0x9d00cdf8       0xf8
 .rodata        0x9d00cdf8       0xf8 /Applications/microchip/xc32/v2.15/bin/bin/../../lib/gcc/pic32mx/4.8.3/../../../../pic32mx/lib/libc.a(doprnt_cdgGnopuxX.eo)

.text.MT_PUT_construct_Helper
                0x9d00cef0       0xf4
 .text.MT_PUT_construct_Helper
                0x9d00cef0       0xf4 build/Board4/production/_ext/676718598/http.o
                0x9d00cef0                MT_PUT_construct_Helper

.text.MT_PUT_Enco_construct_Helper
                0x9d00cfe4       0xf4
 .text.MT_PUT_Enco_construct_Helper
                0x9d00cfe4       0xf4 build/Board4/production/_ext/676718598/http.o
                0x9d00cfe4                MT_PUT_Enco_construct_Helper

.text.SONAR_PUT_construct_Helper
                0x9d00d0d8       0xf4
 .text.SONAR_PUT_construct_Helper
                0x9d00d0d8       0xf4 build/Board4/production/_ext/676718598/http.o
                0x9d00d0d8                SONAR_PUT_construct_Helper

.text.prvCopyDataToQueue
                0x9d00d1cc       0xf4
 .text.prvCopyDataToQueue
                0x9d00d1cc       0xf4 build/Board4/production/_ext/1539584926/queue.o

.text.xQueueGenericSendFromISR
                0x9d00d2c0       0xf0
 .text.xQueueGenericSendFromISR
                0x9d00d2c0       0xf0 build/Board4/production/_ext/1539584926/queue.o
                0x9d00d2c0                xQueueGenericSendFromISR

.text.autoAdjustPWM
                0x9d00d3b0       0xec
 .text.autoAdjustPWM
                0x9d00d3b0       0xec build/Board4/production/_ext/676718598/motor.o
                0x9d00d3b0                autoAdjustPWM

.text.__fixdfdi
                0x9d00d49c       0xe8
 .text.__fixdfdi
                0x9d00d49c       0xe8 /Applications/microchip/xc32/v2.15/bin/bin/../../lib/gcc/pic32mx/4.8.3/../../../../pic32mx/lib/libe.a(_fixdfdi.o)
                0x9d00d49c                __fixdfdi

.text.IntHandlerDrvUsartInstance1
                0x9d00d584       0xe4
 .text.IntHandlerDrvUsartInstance1
                0x9d00d584       0xe4 build/Board4/production/_ext/1445490757/system_interrupt.o
                0x9d00d584                IntHandlerDrvUsartInstance1

.text.add_item_to_object
                0x9d00d668       0xe4
 .text.add_item_to_object
                0x9d00d668       0xe4 build/Board4/production/_ext/676718598/cJSON.o

.text.prvAddCurrentTaskToDelayedList
                0x9d00d74c       0xe4
 .text.prvAddCurrentTaskToDelayedList
                0x9d00d74c       0xe4 build/Board4/production/_ext/1539584926/tasks.o

.text.SYS_DEVCON_PerformanceConfig
                0x9d00d830       0xe0
 .text.SYS_DEVCON_PerformanceConfig
                0x9d00d830       0xe0 build/Board4/production/_ext/652723559/sys_devcon_pic32mx.o
                0x9d00d830                SYS_DEVCON_PerformanceConfig

.text.xQueueReceiveFromISR
                0x9d00d910       0xe0
 .text.xQueueReceiveFromISR
                0x9d00d910       0xe0 build/Board4/production/_ext/1539584926/queue.o
                0x9d00d910                xQueueReceiveFromISR

.text.vTaskSwitchContext
                0x9d00d9f0       0xe0
 .text.vTaskSwitchContext
                0x9d00d9f0       0xe0 build/Board4/production/_ext/1539584926/tasks.o
                0x9d00d9f0                vTaskSwitchContext

.text.SYS_Tasks
                0x9d00dad0       0xdc
 .text.SYS_Tasks
                0x9d00dad0       0xdc build/Board4/production/_ext/1445490757/system_tasks.o
                0x9d00dad0                SYS_Tasks

.text.general_exception
                0x9d00dbac       0xdc
 .text.general_exception
                0x9d00dbac       0xdc /Applications/microchip/xc32/v2.15/bin/bin/../../lib/gcc/pic32mx/4.8.3/../../../../pic32mx/lib/libpic32.a(general-exception.o)
                0x9d00dbac                _general_exception_context

.text.http_construct
                0x9d00dc88       0xd8
 .text.http_construct
                0x9d00dc88       0xd8 build/Board4/production/_ext/676718598/http.o
                0x9d00dc88                http_construct

.text.Uart_tx_queue_Recv
                0x9d00dd60       0xd4
 .text.Uart_tx_queue_Recv
                0x9d00dd60       0xd4 build/Board4/production/_ext/676718598/wifi_queue.o
                0x9d00dd60                Uart_tx_queue_Recv

.text.libm      0x9d00de34       0xd4
 .text.libm     0x9d00de34       0xd4 /Applications/microchip/xc32/v2.15/bin/bin/../../lib/gcc/pic32mx/4.8.3/../../../../pic32mx/lib/libm.a(fpmodf.o)
                0x9d00de34                fpmodf
                0x9d00de34                modff

.text._mon_putc
                0x9d00df08       0xd4
 .text._mon_putc
                0x9d00df08       0xd4 /Applications/microchip/xc32/v2.15/bin/bin/../../lib/gcc/pic32mx/4.8.3/../../../../pic32mx/lib/libpic32.a(_mon_putc.o)
                0x9d00df08                _mon_putc

.text.setPixy2Universal
                0x9d00dfdc       0xd0
 .text.setPixy2Universal
                0x9d00dfdc       0xd0 build/Board4/production/_ext/676718598/pixy2Func.o
                0x9d00dfdc                setPixy2Universal

.text.SendValsToUART
                0x9d00e0ac       0xd0
 .text.SendValsToUART
                0x9d00e0ac       0xd0 build/Board4/production/_ext/676718598/pixy2Func.o
                0x9d00e0ac                SendValsToUART

.text.Step_1_handler
                0x9d00e17c       0xcc
 .text.Step_1_handler
                0x9d00e17c       0xcc build/Board4/production/_ext/676718598/wifi_state.o
                0x9d00e17c                Step_1_handler

.text.setXs     0x9d00e248       0xcc
 .text.setXs    0x9d00e248       0xcc build/Board4/production/_ext/676718598/pixy2Func.o
                0x9d00e248                setXs

.text.setYs     0x9d00e314       0xcc
 .text.setYs    0x9d00e314       0xcc build/Board4/production/_ext/676718598/pixy2Func.o
                0x9d00e314                setYs

.text.setSigMap
                0x9d00e3e0       0xcc
 .text.setSigMap
                0x9d00e3e0       0xcc build/Board4/production/_ext/676718598/pixy2Func.o
                0x9d00e3e0                setSigMap

.text.setAngles
                0x9d00e4ac       0xcc
 .text.setAngles
                0x9d00e4ac       0xcc build/Board4/production/_ext/676718598/pixy2Func.o
                0x9d00e4ac                setAngles

.text.setWidth  0x9d00e578       0xcc
 .text.setWidth
                0x9d00e578       0xcc build/Board4/production/_ext/676718598/pixy2Func.o
                0x9d00e578                setWidth

.text.cJSON_Delete
                0x9d00e644       0xc0
 .text.cJSON_Delete
                0x9d00e644       0xc0 build/Board4/production/_ext/676718598/cJSON.o
                0x9d00e644                cJSON_Delete

.text.queueData
                0x9d00e704       0xc0
 .text.queueData
                0x9d00e704       0xc0 build/Board4/production/_ext/676718598/pixy2Func.o
                0x9d00e704                queueData

.text.get_color_index
                0x9d00e7c4       0xc0
 .text.get_color_index
                0x9d00e7c4       0xc0 build/Board4/production/_ext/676718598/pixy2Func.o
                0x9d00e7c4                get_color_index

.text.xQueueGenericReset
                0x9d00e884       0xc0
 .text.xQueueGenericReset
                0x9d00e884       0xc0 build/Board4/production/_ext/1539584926/queue.o
                0x9d00e884                xQueueGenericReset

.text.TurnLeftSpecificDegree
                0x9d00e944       0xbc
 .text.TurnLeftSpecificDegree
                0x9d00e944       0xbc build/Board4/production/_ext/676718598/motor.o
                0x9d00e944                TurnLeftSpecificDegree

.text.TurnRightSpecificDegree
                0x9d00ea00       0xbc
 .text.TurnRightSpecificDegree
                0x9d00ea00       0xbc build/Board4/production/_ext/676718598/motor.o
                0x9d00ea00                TurnRightSpecificDegree

.text.xTaskRemoveFromEventList
                0x9d00eabc       0xbc
 .text.xTaskRemoveFromEventList
                0x9d00eabc       0xbc build/Board4/production/_ext/1539584926/tasks.o
                0x9d00eabc                xTaskRemoveFromEventList

.text.SYS_PORTS_Initialize
                0x9d00eb78       0xb0
 .text.SYS_PORTS_Initialize
                0x9d00eb78       0xb0 build/Board4/production/_ext/1842392706/sys_ports_static.o
                0x9d00eb78                SYS_PORTS_Initialize

.text.Step_2_handler
                0x9d00ec28       0xb0
 .text.Step_2_handler
                0x9d00ec28       0xb0 build/Board4/production/_ext/676718598/wifi_state.o
                0x9d00ec28                Step_2_handler

.text.fptodp    0x9d00ecd8       0xac
 .text.fptodp   0x9d00ecd8       0xac /Applications/microchip/xc32/v2.15/bin/bin/../../lib/gcc/pic32mx/4.8.3/../../../../pic32mx/lib/libm.a(fptodp.o)
                0x9d00ecd8                __extendsfdf2
                0x9d00ecd8                fptodp

.text.Stat_CallBack
                0x9d00ed84       0xa8
 .text.Stat_CallBack
                0x9d00ed84       0xa8 build/Board4/production/_ext/676718598/wifi_timer.o
                0x9d00ed84                Stat_CallBack

.text           0x9d00ee2c       0xa8
 .text          0x9d00ee2c       0xa8 /Applications/microchip/xc32/v2.15/bin/bin/../../lib/gcc/pic32mx/4.8.3/../../../../pic32mx/lib/libpic32.a(memset.o)
                0x9d00ee2c                memset

.text.range     0x9d00eed4       0xa8
 .text.range    0x9d00eed4       0xa8 /Applications/microchip/xc32/v2.15/bin/bin/../../lib/gcc/pic32mx/4.8.3/../../../../pic32mx/lib/libc.a(doscan_gG.eo)

.text.atoi      0x9d00ef7c       0xa8
 .text.atoi     0x9d00ef7c       0xa8 /Applications/microchip/xc32/v2.15/bin/bin/../../lib/gcc/pic32mx/4.8.3/../../../../pic32mx/lib/libc.a(atoi.o)
                0x9d00ef7c                atoi

.text.libm      0x9d00f024       0xa8
 .text.libm     0x9d00f024       0xa8 /Applications/microchip/xc32/v2.15/bin/bin/../../lib/gcc/pic32mx/4.8.3/../../../../pic32mx/lib/libm.a(dpfrexp.o)
                0x9d00f024                frexp
                0x9d00f024                dpfrexp
                0x9d00f024                frexpl

.text.buffer_skip_whitespace
                0x9d00f0cc       0xa4
 .text.buffer_skip_whitespace
                0x9d00f0cc       0xa4 build/Board4/production/_ext/676718598/cJSON.o

.text.mt_Send_Running
                0x9d00f170       0xa4
 .text.mt_Send_Running
                0x9d00f170       0xa4 build/Board4/production/_ext/676718598/wifi_queue.o
                0x9d00f170                mt_Send_Running

.text.xTaskCheckForTimeOut
                0x9d00f214       0xa4
 .text.xTaskCheckForTimeOut
                0x9d00f214       0xa4 build/Board4/production/_ext/1539584926/tasks.o
                0x9d00f214                xTaskCheckForTimeOut

.text.mt_Send_Finish
                0x9d00f2b8       0xa0
 .text.mt_Send_Finish
                0x9d00f2b8       0xa0 build/Board4/production/_ext/676718598/wifi_queue.o
                0x9d00f2b8                mt_Send_Finish

.text.prvIdleTask
                0x9d00f358       0xa0
 .text.prvIdleTask
                0x9d00f358       0xa0 build/Board4/production/_ext/1539584926/tasks.o

.text.fflush    0x9d00f3f8       0xa0
 .text.fflush   0x9d00f3f8       0xa0 /Applications/microchip/xc32/v2.15/bin/bin/../../lib/gcc/pic32mx/4.8.3/../../../../pic32mx/lib/libc.a(fflush.o)
                0x9d00f3f8                fflush

.text.cJSON_CreateNumber
                0x9d00f498       0x9c
 .text.cJSON_CreateNumber
                0x9d00f498       0x9c build/Board4/production/_ext/676718598/cJSON.o
                0x9d00f498                cJSON_CreateNumber

.text.recieveHelpFunc
                0x9d00f534       0x9c
 .text.recieveHelpFunc
                0x9d00f534       0x9c build/Board4/production/_ext/676718598/http.o
                0x9d00f534                recieveHelpFunc

.text.mt_Send_GET
                0x9d00f5d0       0x9c
 .text.mt_Send_GET
                0x9d00f5d0       0x9c build/Board4/production/_ext/676718598/wifi_queue.o
                0x9d00f5d0                mt_Send_GET

.text.fpcmp     0x9d00f66c       0x9c
 .text.fpcmp    0x9d00f66c       0x9c /Applications/microchip/xc32/v2.15/bin/bin/../../lib/gcc/pic32mx/4.8.3/../../../../pic32mx/lib/libm.a(fpcmp.o)
                0x9d00f66c                __ltsf2
                0x9d00f66c                __eqsf2
                0x9d00f66c                __lesf2
                0x9d00f66c                __gtsf2
                0x9d00f66c                __nesf2
                0x9d00f66c                fpcmp
                0x9d00f66c                __gesf2

.text.write     0x9d00f708       0x9c
 .text.write    0x9d00f708       0x9c /Applications/microchip/xc32/v2.15/bin/bin/../../lib/gcc/pic32mx/4.8.3/../../../../pic32mx/lib/libpic32.a(write.o)
                0x9d00f708                write

.text.WIFI_QUEUE_Recv
                0x9d00f7a4       0x94
 .text.WIFI_QUEUE_Recv
                0x9d00f7a4       0x94 build/Board4/production/_ext/676718598/wifi_queue.o
                0x9d00f7a4                WIFI_QUEUE_Recv

.text.xQueueGenericCreate
                0x9d00f838       0x94
 .text.xQueueGenericCreate
                0x9d00f838       0x94 build/Board4/production/_ext/1539584926/queue.o
                0x9d00f838                xQueueGenericCreate

.text.xTimerGenericCommand
                0x9d00f8cc       0x94
 .text.xTimerGenericCommand
                0x9d00f8cc       0x94 build/Board4/production/_ext/1539584926/timers.o
                0x9d00f8cc                xTimerGenericCommand

.text.WIFI_APP_Tasks
                0x9d00f960       0x8c
 .text.WIFI_APP_Tasks
                0x9d00f960       0x8c build/Board4/production/_ext/1360937237/wifi_app.o
                0x9d00f960                WIFI_APP_Tasks

.text.parse_hex4
                0x9d00f9ec       0x8c
 .text.parse_hex4
                0x9d00f9ec       0x8c build/Board4/production/_ext/676718598/cJSON.o

.text.Mt_LEDTimer_Init
                0x9d00fa78       0x8c
 .text.Mt_LEDTimer_Init
                0x9d00fa78       0x8c build/Board4/production/_ext/676718598/motor_software_timer.o
                0x9d00fa78                Mt_LEDTimer_Init

.text.Mt_AdjustTimer_Init
                0x9d00fb04       0x8c
 .text.Mt_AdjustTimer_Init
                0x9d00fb04       0x8c build/Board4/production/_ext/676718598/motor_software_timer.o
                0x9d00fb04                Mt_AdjustTimer_Init

.text.vQueueWaitForMessageRestricted
                0x9d00fb90       0x8c
 .text.vQueueWaitForMessageRestricted
                0x9d00fb90       0x8c build/Board4/production/_ext/1539584926/queue.o
                0x9d00fb90                vQueueWaitForMessageRestricted

.text.vTaskStartScheduler
                0x9d00fc1c       0x8c
 .text.vTaskStartScheduler
                0x9d00fc1c       0x8c build/Board4/production/_ext/1539584926/tasks.o
                0x9d00fc1c                vTaskStartScheduler

.text.dptoul    0x9d00fca8       0x8c
 .text.dptoul   0x9d00fca8       0x8c /Applications/microchip/xc32/v2.15/bin/bin/../../lib/gcc/pic32mx/4.8.3/../../../../pic32mx/lib/libm.a(dptoul.o)
                0x9d00fca8                __fixunsdfsi
                0x9d00fca8                dptoul

.text.__orderdf2
                0x9d00fd34       0x8c
 .text.__orderdf2
                0x9d00fd34       0x8c /Applications/microchip/xc32/v2.15/bin/bin/../../lib/gcc/pic32mx/4.8.3/../../../../pic32mx/lib/libe.a(_orderdf2.o)
                0x9d00fd34                __orderdf2

.text.xTimerCreate
                0x9d00fdc0       0x88
 .text.xTimerCreate
                0x9d00fdc0       0x88 build/Board4/production/_ext/1539584926/timers.o
                0x9d00fdc0                xTimerCreate

.text.Mt_ReqTimer_Start
                0x9d00fe48       0x84
 .text.Mt_ReqTimer_Start
                0x9d00fe48       0x84 build/Board4/production/_ext/676718598/motor_software_timer.o
                0x9d00fe48                Mt_ReqTimer_Start

.text           0x9d00fecc       0x84
 .text          0x9d00fecc       0x84 /Applications/microchip/xc32/v2.15/bin/bin/../../lib/gcc/pic32mx/4.8.3/../../../../pic32mx/lib/libpic32.a(pic32_data_init.o)
                0x9d00fecc                __pic32_data_init

.text.Pixy_look_up_init
                0x9d00ff50       0x80
 .text.Pixy_look_up_init
                0x9d00ff50       0x80 build/Board4/production/_ext/676718598/pixy2Func.o
                0x9d00ff50                Pixy_look_up_init

.text.fptoli    0x9d00ffd0       0x80
 .text.fptoli   0x9d00ffd0       0x80 /Applications/microchip/xc32/v2.15/bin/bin/../../lib/gcc/pic32mx/4.8.3/../../../../pic32mx/lib/libm.a(fptoli.o)
                0x9d00ffd0                __fixsfsi
                0x9d00ffd0                fptoli
                0x9d00ffd0                fptosi

.text.__fixunsdfdi
                0x9d010050       0x80
 .text.__fixunsdfdi
                0x9d010050       0x80 /Applications/microchip/xc32/v2.15/bin/bin/../../lib/gcc/pic32mx/4.8.3/../../../../pic32mx/lib/libe.a(_fixunsdfdi.o)
                0x9d010050                __fixunsdfdi

.text.DRV_TMR1_Initialize
                0x9d0100d0       0x7c
 .text.DRV_TMR1_Initialize
                0x9d0100d0       0x7c build/Board4/production/_ext/1612284866/drv_tmr_static.o
                0x9d0100d0                DRV_TMR1_Initialize

.text.litodp    0x9d01014c       0x78
 .text.litodp   0x9d01014c       0x78 /Applications/microchip/xc32/v2.15/bin/bin/../../lib/gcc/pic32mx/4.8.3/../../../../pic32mx/lib/libm.a(litodp.o)
                0x9d01014c                litodp
                0x9d01014c                __floatsidf

.text.DRV_TMR2_Initialize
                0x9d0101c4       0x74
 .text.DRV_TMR2_Initialize
                0x9d0101c4       0x74 build/Board4/production/_ext/1612284866/drv_tmr_static.o
                0x9d0101c4                DRV_TMR2_Initialize

.text.DRV_TMR3_Initialize
                0x9d010238       0x74
 .text.DRV_TMR3_Initialize
                0x9d010238       0x74 build/Board4/production/_ext/1612284866/drv_tmr_static.o
                0x9d010238                DRV_TMR3_Initialize

.text.cJSON_strdup
                0x9d0102ac       0x74
 .text.cJSON_strdup
                0x9d0102ac       0x74 build/Board4/production/_ext/676718598/cJSON.o

.text.cJSON_CreateString
                0x9d010320       0x74
 .text.cJSON_CreateString
                0x9d010320       0x74 build/Board4/production/_ext/676718598/cJSON.o
                0x9d010320                cJSON_CreateString

.text.MtStateMachine
                0x9d010394       0x74
 .text.MtStateMachine
                0x9d010394       0x74 build/Board4/production/_ext/676718598/motor_state.o
                0x9d010394                MtStateMachine

.text.xQueuePeekFromISR
                0x9d010408       0x74
 .text.xQueuePeekFromISR
                0x9d010408       0x74 build/Board4/production/_ext/1539584926/queue.o
                0x9d010408                xQueuePeekFromISR

.text.prvInsertTimerInActiveList
                0x9d01047c       0x74
 .text.prvInsertTimerInActiveList
                0x9d01047c       0x74 build/Board4/production/_ext/1539584926/timers.o

.text.prvCheckForValidListAndQueue
                0x9d0104f0       0x74
 .text.prvCheckForValidListAndQueue
                0x9d0104f0       0x74 build/Board4/production/_ext/1539584926/timers.o

.text.ungetc    0x9d010564       0x74
 .text.ungetc   0x9d010564       0x74 /Applications/microchip/xc32/v2.15/bin/bin/../../lib/gcc/pic32mx/4.8.3/../../../../pic32mx/lib/libc.a(ungetc.o)
                0x9d010564                ungetc

.text.Tx_isr_fsm
                0x9d0105d8       0x70
 .text.Tx_isr_fsm
                0x9d0105d8       0x70 build/Board4/production/_ext/676718598/wifi_state.o
                0x9d0105d8                Tx_isr_fsm

.text.Stat_Timer_Init
                0x9d010648       0x70
 .text.Stat_Timer_Init
                0x9d010648       0x70 build/Board4/production/_ext/676718598/wifi_timer.o
                0x9d010648                Stat_Timer_Init

.text.vPortFree
                0x9d0106b8       0x70
 .text.vPortFree
                0x9d0106b8       0x70 build/Board4/production/_ext/905643201/heap_2.o
                0x9d0106b8                vPortFree

.text.strncmp   0x9d010728       0x70
 .text.strncmp  0x9d010728       0x70 /Applications/microchip/xc32/v2.15/bin/bin/../../lib/gcc/pic32mx/4.8.3/../../../../pic32mx/lib/libc.a(strncmp.o)
                0x9d010728                strncmp

.text.BusyStateHelper
                0x9d010798       0x6c
 .text.BusyStateHelper
                0x9d010798       0x6c build/Board4/production/_ext/676718598/motor_state.o
                0x9d010798                BusyStateHelper

.text.vApplicationSetupTickTimerInterrupt
                0x9d010804       0x6c
 .text.vApplicationSetupTickTimerInterrupt
                0x9d010804       0x6c build/Board4/production/_ext/331515796/port.o
                0x9d010804                vApplicationSetupTickTimerInterrupt

.text.DRV_USART_Initialize
                0x9d010870       0x68
 .text.DRV_USART_Initialize
                0x9d010870       0x68 build/Board4/production/_ext/1303525714/drv_usart_mapping.o
                0x9d010870                DRV_USART_Initialize

.text._sprintf_cdgGnopuxX
                0x9d0108d8       0x68
 .text._sprintf_cdgGnopuxX
                0x9d0108d8       0x68 /Applications/microchip/xc32/v2.15/bin/bin/../../lib/gcc/pic32mx/4.8.3/../../../../pic32mx/lib/libc.a(sprintf_cdgGnopuxX.eo)
                0x9d0108d8                _sprintf_cdnopuxX
                0x9d0108d8                _sprintf_cdgGnopuxX

.text.MOTROR_INIT
                0x9d010940       0x64
 .text.MOTROR_INIT
                0x9d010940       0x64 build/Board4/production/_ext/676718598/motor.o
                0x9d010940                MOTROR_INIT

.text.popMtQueue
                0x9d0109a4       0x64
 .text.popMtQueue
                0x9d0109a4       0x64 build/Board4/production/_ext/676718598/motor_queue.o
                0x9d0109a4                popMtQueue

.text.Pixy_Timer_Init
                0x9d010a08       0x64
 .text.Pixy_Timer_Init
                0x9d010a08       0x64 build/Board4/production/_ext/676718598/pixy_app.o
                0x9d010a08                Pixy_Timer_Init

.text.PixyThreadReceive
                0x9d010a6c       0x64
 .text.PixyThreadReceive
                0x9d010a6c       0x64 build/Board4/production/_ext/676718598/pixy_queue.o
                0x9d010a6c                PixyThreadReceive

.text           0x9d010ad0       0x64
 .text          0x9d010ad0       0x64 /Applications/microchip/xc32/v2.15/bin/bin/../../lib/gcc/pic32mx/4.8.3/libgcc.a(_floatundidf.o)
                0x9d010ad0                __floatundidf

.text.dbgOutputLoc
                0x9d010b34       0x60
 .text.dbgOutputLoc
                0x9d010b34       0x60 build/Board4/production/_ext/676718598/debug.o
                0x9d010b34                dbgOutputLoc

.text.dbgOutputVal
                0x9d010b94       0x60
 .text.dbgOutputVal
                0x9d010b94       0x60 build/Board4/production/_ext/676718598/debug.o
                0x9d010b94                dbgOutputVal

.text.pushMtQueue
                0x9d010bf4       0x60
 .text.pushMtQueue
                0x9d010bf4       0x60 build/Board4/production/_ext/676718598/motor_queue.o
                0x9d010bf4                pushMtQueue

.text.Pixy_UART2_ISR_Receive
                0x9d010c54       0x60
 .text.Pixy_UART2_ISR_Receive
                0x9d010c54       0x60 build/Board4/production/_ext/676718598/pixy_queue.o
                0x9d010c54                Pixy_UART2_ISR_Receive

.text.vListInsert
                0x9d010cb4       0x60
 .text.vListInsert
                0x9d010cb4       0x60 build/Board4/production/_ext/1539584926/list.o
                0x9d010cb4                vListInsert

.text.vTaskExitCritical
                0x9d010d14       0x60
 .text.vTaskExitCritical
                0x9d010d14       0x60 build/Board4/production/_ext/1539584926/tasks.o
                0x9d010d14                vTaskExitCritical

.text.wspace    0x9d010d74       0x60
 .text.wspace   0x9d010d74       0x60 /Applications/microchip/xc32/v2.15/bin/bin/../../lib/gcc/pic32mx/4.8.3/../../../../pic32mx/lib/libc.a(doscan_gG.eo)

.text.sitofp    0x9d010dd4       0x60
 .text.sitofp   0x9d010dd4       0x60 /Applications/microchip/xc32/v2.15/bin/bin/../../lib/gcc/pic32mx/4.8.3/../../../../pic32mx/lib/libm.a(sitofp.o)
                0x9d010dd4                __floatsisf
                0x9d010dd4                sitofp
                0x9d010dd4                litofp

.text.sendFromUARTISR
                0x9d010e34       0x5c
 .text.sendFromUARTISR
                0x9d010e34       0x5c build/Board4/production/_ext/676718598/pixy_queue.o
                0x9d010e34                sendFromUARTISR

.text.xPortStartScheduler
                0x9d010e90       0x5c
 .text.xPortStartScheduler
                0x9d010e90       0x5c build/Board4/production/_ext/331515796/port.o
                0x9d010e90                xPortStartScheduler

.text.xTimerCreateTimerTask
                0x9d010eec       0x5c
 .text.xTimerCreateTimerTask
                0x9d010eec       0x5c build/Board4/production/_ext/1539584926/timers.o
                0x9d010eec                xTimerCreateTimerTask

.text.SYS_DEVCON_SystemUnlock
                0x9d010f48       0x58
 .text.SYS_DEVCON_SystemUnlock
                0x9d010f48       0x58 build/Board4/production/_ext/652723559/sys_devcon.o
                0x9d010f48                SYS_DEVCON_SystemUnlock

.text.add_item_to_array
                0x9d010fa0       0x58
 .text.add_item_to_array
                0x9d010fa0       0x58 build/Board4/production/_ext/676718598/cJSON.o

.text.Mt_SWTimer_Start
                0x9d010ff8       0x58
 .text.Mt_SWTimer_Start
                0x9d010ff8       0x58 build/Board4/production/_ext/676718598/motor_software_timer.o
                0x9d010ff8                Mt_SWTimer_Start

.text.send_2_WIFI_QUEUE
                0x9d011050       0x58
 .text.send_2_WIFI_QUEUE
                0x9d011050       0x58 build/Board4/production/_ext/676718598/wifi_queue.o
                0x9d011050                send_2_WIFI_QUEUE

.text.send_2_WIFI_QUEUE_from_isr
                0x9d0110a8       0x58
 .text.send_2_WIFI_QUEUE_from_isr
                0x9d0110a8       0x58 build/Board4/production/_ext/676718598/wifi_queue.o
                0x9d0110a8                send_2_WIFI_QUEUE_from_isr

.text.send_2_Tx_queue
                0x9d011100       0x58
 .text.send_2_Tx_queue
                0x9d011100       0x58 build/Board4/production/_ext/676718598/wifi_queue.o
                0x9d011100                send_2_Tx_queue

.text.xQueueCreateMutex
                0x9d011158       0x58
 .text.xQueueCreateMutex
                0x9d011158       0x58 build/Board4/production/_ext/1539584926/queue.o
                0x9d011158                xQueueCreateMutex

.text.init_WIFI_queue
                0x9d0111b0       0x54
 .text.init_WIFI_queue
                0x9d0111b0       0x54 build/Board4/production/_ext/676718598/wifi_queue.o
                0x9d0111b0                init_WIFI_queue

.text.PixyQueueInit
                0x9d011204       0x54
 .text.PixyQueueInit
                0x9d011204       0x54 build/Board4/production/_ext/676718598/pixy_queue.o
                0x9d011204                PixyQueueInit

.text.UARTReceiveFromQueue
                0x9d011258       0x54
 .text.UARTReceiveFromQueue
                0x9d011258       0x54 build/Board4/production/_ext/676718598/sensor_queue.o
                0x9d011258                UARTReceiveFromQueue

.text.SYS_INT_SourceDisable
                0x9d0112ac       0x54
 .text.SYS_INT_SourceDisable
                0x9d0112ac       0x54 build/Board4/production/_ext/249303043/sys_int_pic32.o
                0x9d0112ac                SYS_INT_SourceDisable

.text.pxPortInitialiseStack
                0x9d011300       0x54
 .text.pxPortInitialiseStack
                0x9d011300       0x54 build/Board4/production/_ext/331515796/port.o
                0x9d011300                pxPortInitialiseStack

.text.vPortIncrementTick
                0x9d011354       0x54
 .text.vPortIncrementTick
                0x9d011354       0x54 build/Board4/production/_ext/331515796/port.o
                0x9d011354                vPortIncrementTick

.text.main_entry
                0x9d0113a8       0x54
 .text.main_entry
                0x9d0113a8       0x54 /var/folders/d5/v4194pgj4rldzq4h08l7349w0000gn/T//cc0qJCyj.o
                0x9d0113dc                __crt0_exit

.text._sscanf_gG
                0x9d0113fc       0x54
 .text._sscanf_gG
                0x9d0113fc       0x54 /Applications/microchip/xc32/v2.15/bin/bin/../../lib/gcc/pic32mx/4.8.3/../../../../pic32mx/lib/libc.a(sscanf_gG.eo)
                0x9d0113fc                _sscanf_gG

.rodata         0x9d011450       0x50
 .rodata        0x9d011450       0x50 build/Board4/production/_ext/1445490757/system_tasks.o

.text.MOTOR_APP_Tasks
                0x9d0114a0       0x50
 .text.MOTOR_APP_Tasks
                0x9d0114a0       0x50 build/Board4/production/_ext/1360937237/motor_app.o
                0x9d0114a0                MOTOR_APP_Tasks

.text.Mt_ReqTimer_Init
                0x9d0114f0       0x50
 .text.Mt_ReqTimer_Init
                0x9d0114f0       0x50 build/Board4/production/_ext/676718598/motor_software_timer.o
                0x9d0114f0                Mt_ReqTimer_Init

.text.sendFromTimer
                0x9d011540       0x50
 .text.sendFromTimer
                0x9d011540       0x50 build/Board4/production/_ext/676718598/pixy_queue.o
                0x9d011540                sendFromTimer

.text.sendToISR
                0x9d011590       0x50
 .text.sendToISR
                0x9d011590       0x50 build/Board4/production/_ext/676718598/pixy_queue.o
                0x9d011590                sendToISR

.text.prvCopyDataFromQueue
                0x9d0115e0       0x50
 .text.prvCopyDataFromQueue
                0x9d0115e0       0x50 build/Board4/production/_ext/1539584926/queue.o

.text.update_offset
                0x9d011630       0x4c
 .text.update_offset
                0x9d011630       0x4c build/Board4/production/_ext/676718598/cJSON.o

.rodata         0x9d01167c       0x4c
 .rodata        0x9d01167c       0x4c build/Board4/production/_ext/676718598/cJSON.o

.text.uxListRemove
                0x9d0116c8       0x4c
 .text.uxListRemove
                0x9d0116c8       0x4c build/Board4/production/_ext/1539584926/list.o
                0x9d0116c8                uxListRemove

.text           0x9d011714       0x4c
 .text          0x9d011714       0x4c /Applications/microchip/xc32/v2.15/bin/bin/../../lib/gcc/pic32mx/4.8.3/libgcc.a(floatunsisf.o)
                0x9d011714                __floatunsisf

.text.SYS_DEVCON_SystemLock
                0x9d011760       0x48
 .text.SYS_DEVCON_SystemLock
                0x9d011760       0x48 build/Board4/production/_ext/652723559/sys_devcon.o
                0x9d011760                SYS_DEVCON_SystemLock

.text.SET_LEFT_PWM
                0x9d0117a8       0x48
 .text.SET_LEFT_PWM
                0x9d0117a8       0x48 build/Board4/production/_ext/676718598/motor.o
                0x9d0117a8                SET_LEFT_PWM

.text.SET_RIGHT_PWM
                0x9d0117f0       0x48
 .text.SET_RIGHT_PWM
                0x9d0117f0       0x48 build/Board4/production/_ext/676718598/motor.o
                0x9d0117f0                SET_RIGHT_PWM

.text.GoStraightLine
                0x9d011838       0x48
 .text.GoStraightLine
                0x9d011838       0x48 build/Board4/production/_ext/676718598/motor.o
                0x9d011838                GoStraightLine

.text.GoBackStraightLine
                0x9d011880       0x48
 .text.GoBackStraightLine
                0x9d011880       0x48 build/Board4/production/_ext/676718598/motor.o
                0x9d011880                GoBackStraightLine

.text.Mt_TimerCallback
                0x9d0118c8       0x48
 .text.Mt_TimerCallback
                0x9d0118c8       0x48 build/Board4/production/_ext/676718598/motor_software_timer.o
                0x9d0118c8                Mt_TimerCallback

.text.Mt_SWTimer_Init
                0x9d011910       0x48
 .text.Mt_SWTimer_Init
                0x9d011910       0x48 build/Board4/production/_ext/676718598/motor_software_timer.o
                0x9d011910                Mt_SWTimer_Init

.text.PixyCallback
                0x9d011958       0x48
 .text.PixyCallback
                0x9d011958       0x48 build/Board4/production/_ext/676718598/pixy_app.o
                0x9d011958                PixyCallback

.text.vTaskPlaceOnEventListRestricted
                0x9d0119a0       0x48
 .text.vTaskPlaceOnEventListRestricted
                0x9d0119a0       0x48 build/Board4/production/_ext/1539584926/tasks.o
                0x9d0119a0                vTaskPlaceOnEventListRestricted

.text.vTaskEnterCritical
                0x9d0119e8       0x48
 .text.vTaskEnterCritical
                0x9d0119e8       0x48 build/Board4/production/_ext/1539584926/tasks.o
                0x9d0119e8                vTaskEnterCritical

.text._bootstrap_exception_handler
                0x9d011a30       0x48
 .text._bootstrap_exception_handler
                0x9d011a30       0x48 /Applications/microchip/xc32/v2.15/bin/bin/../../lib/gcc/pic32mx/4.8.3/../../../../pic32mx/lib/libpic32.a(default-bootstrap-exception-handler.o)
                0x9d011a30                _bootstrap_exception_handler

.vector_default
                0x9d011a78       0x48
 .vector_default
                0x9d011a78       0x48 /Applications/microchip/xc32/v2.15/bin/bin/../../lib/gcc/pic32mx/4.8.3/../../../../pic32mx/lib/libpic32.a(defaultinterrupt.o)
                0x9d011a78                _DefaultInterrupt

.rodata         0x9d011ac0       0x48
 .rodata        0x9d011ac0       0x48 /Applications/microchip/xc32/v2.15/bin/bin/../../lib/gcc/pic32mx/4.8.3/../../../../pic32mx/lib/libm.a(__strtod.o)

.text.SYS_CLK_Initialize
                0x9d011b08       0x44
 .text.SYS_CLK_Initialize
                0x9d011b08       0x44 build/Board4/production/_ext/635635118/sys_clk_pic32mx.o
                0x9d011b08                SYS_CLK_Initialize

.text.MOTOR_APP_Initialize
                0x9d011b4c       0x44
 .text.MOTOR_APP_Initialize
                0x9d011b4c       0x44 build/Board4/production/_ext/1360937237/motor_app.o
                0x9d011b4c                MOTOR_APP_Initialize

.text.cJSON_New_Item
                0x9d011b90       0x44
 .text.cJSON_New_Item
                0x9d011b90       0x44 build/Board4/production/_ext/676718598/cJSON.o

.text           0x9d011bd4       0x44
 .text          0x9d011bd4       0x44 /Applications/microchip/xc32/v2.15/bin/bin/../../lib/gcc/pic32mx/4.8.3/../../../../pic32mx/lib/pic32_software_reset.o
                0x9d011bd4                __pic32_software_reset

.text.strcat    0x9d011c18       0x44
 .text.strcat   0x9d011c18       0x44 /Applications/microchip/xc32/v2.15/bin/bin/../../lib/gcc/pic32mx/4.8.3/../../../../pic32mx/lib/libc.a(strcat.o)
                0x9d011c18                strcat

.text           0x9d011c5c       0x44
 .text          0x9d011c5c       0x44 /Applications/microchip/xc32/v2.15/bin/bin/../../lib/gcc/pic32mx/4.8.3/libgcc.a(floatunsidf.o)
                0x9d011c5c                __floatunsidf

.text._general_exception_handler
                0x9d011ca0       0x40
 .text._general_exception_handler
                0x9d011ca0       0x40 build/Board4/production/_ext/1445490757/system_exceptions.o
                0x9d011ca0                _general_exception_handler

.text.Mt_SWTimer_SetPeriod
                0x9d011ce0       0x40
 .text.Mt_SWTimer_SetPeriod
                0x9d011ce0       0x40 build/Board4/production/_ext/676718598/motor_software_timer.o
                0x9d011ce0                Mt_SWTimer_SetPeriod

.text.PIXY_APP_Tasks
                0x9d011d20       0x40
 .text.PIXY_APP_Tasks
                0x9d011d20       0x40 build/Board4/production/_ext/676718598/pixy_app.o
                0x9d011d20                PIXY_APP_Tasks

.text.SENSOR_APP_Tasks
                0x9d011d60       0x40
 .text.SENSOR_APP_Tasks
                0x9d011d60       0x40 build/Board4/production/_ext/676718598/sensor_app.o
                0x9d011d60                SENSOR_APP_Tasks

.text           0x9d011da0       0x80
 .text          0x9d011da0       0x40 /Applications/microchip/xc32/v2.15/bin/bin/../../lib/gcc/pic32mx/4.8.3/libgcc.a(_lshrdi3.o)
                0x9d011da0                __lshrdi3
 .text          0x9d011de0       0x40 /Applications/microchip/xc32/v2.15/bin/bin/../../lib/gcc/pic32mx/4.8.3/libgcc.a(_ashldi3.o)
                0x9d011de0                __ashldi3

.text.DRV_OC0_Initialize
                0x9d011e20       0x3c
 .text.DRV_OC0_Initialize
                0x9d011e20       0x3c build/Board4/production/_ext/1210681131/drv_oc_static.o
                0x9d011e20                DRV_OC0_Initialize

.text.DRV_OC1_Initialize
                0x9d011e5c       0x3c
 .text.DRV_OC1_Initialize
                0x9d011e5c       0x3c build/Board4/production/_ext/1210681131/drv_oc_static.o
                0x9d011e5c                DRV_OC1_Initialize

.text.DRV_TMR1_Start
                0x9d011e98       0x3c
 .text.DRV_TMR1_Start
                0x9d011e98       0x3c build/Board4/production/_ext/1612284866/drv_tmr_static.o
                0x9d011e98                DRV_TMR1_Start

.text.DRV_TMR2_Start
                0x9d011ed4       0x3c
 .text.DRV_TMR2_Start
                0x9d011ed4       0x3c build/Board4/production/_ext/1612284866/drv_tmr_static.o
                0x9d011ed4                DRV_TMR2_Start

.text.DRV_TMR3_Start
                0x9d011f10       0x3c
 .text.DRV_TMR3_Start
                0x9d011f10       0x3c build/Board4/production/_ext/1612284866/drv_tmr_static.o
                0x9d011f10                DRV_TMR3_Start

.text.reStartTimer
                0x9d011f4c       0x3c
 .text.reStartTimer
                0x9d011f4c       0x3c build/Board4/production/_ext/676718598/pixy_app.o
                0x9d011f4c                reStartTimer

.text.sendFromISRtoQueue
                0x9d011f88       0x3c
 .text.sendFromISRtoQueue
                0x9d011f88       0x3c build/Board4/production/_ext/676718598/sensor_queue.o
                0x9d011f88                sendFromISRtoQueue

.text.OSAL_MUTEX_Create
                0x9d011fc4       0x3c
 .text.OSAL_MUTEX_Create
                0x9d011fc4       0x3c build/Board4/production/_ext/1043444669/osal_freertos.o
                0x9d011fc4                OSAL_MUTEX_Create

.text.uxPortSetInterruptMaskFromISR
                0x9d012000       0x3c
 .text.uxPortSetInterruptMaskFromISR
                0x9d012000       0x3c build/Board4/production/_ext/331515796/port.o
                0x9d012000                uxPortSetInterruptMaskFromISR

.text.prvResetNextTaskUnblockTime
                0x9d01203c       0x38
 .text.prvResetNextTaskUnblockTime
                0x9d01203c       0x38 build/Board4/production/_ext/1539584926/tasks.o

.text.vTaskPlaceOnEventList
                0x9d012074       0x38
 .text.vTaskPlaceOnEventList
                0x9d012074       0x38 build/Board4/production/_ext/1539584926/tasks.o
                0x9d012074                vTaskPlaceOnEventList

.text.motorQueue_init
                0x9d0120ac       0x34
 .text.motorQueue_init
                0x9d0120ac       0x34 build/Board4/production/_ext/676718598/motor_queue.o
                0x9d0120ac                motorQueue_init

.text.Mt_ReqTimer_Stop
                0x9d0120e0       0x34
 .text.Mt_ReqTimer_Stop
                0x9d0120e0       0x34 build/Board4/production/_ext/676718598/motor_software_timer.o
                0x9d0120e0                Mt_ReqTimer_Stop

.text.UARTQueue_init
                0x9d012114       0x34
 .text.UARTQueue_init
                0x9d012114       0x34 build/Board4/production/_ext/676718598/sensor_queue.o
                0x9d012114                UARTQueue_init

.text.vListInsertEnd
                0x9d012148       0x34
 .text.vListInsertEnd
                0x9d012148       0x34 build/Board4/production/_ext/1539584926/list.o
                0x9d012148                vListInsertEnd

.text.prvIsQueueEmpty
                0x9d01217c       0x34
 .text.prvIsQueueEmpty
                0x9d01217c       0x34 build/Board4/production/_ext/1539584926/queue.o

.text.fetchBlocks
                0x9d0121b0       0x30
 .text.fetchBlocks
                0x9d0121b0       0x30 build/Board4/production/_ext/676718598/pixy2Func.o
                0x9d0121b0                fetchBlocks

.text.pvTimerGetTimerID
                0x9d0121e0       0x30
 .text.pvTimerGetTimerID
                0x9d0121e0       0x30 build/Board4/production/_ext/1539584926/timers.o
                0x9d0121e0                pvTimerGetTimerID

.text.cJSON_CreateObject
                0x9d012210       0x2c
 .text.cJSON_CreateObject
                0x9d012210       0x2c build/Board4/production/_ext/676718598/cJSON.o
                0x9d012210                cJSON_CreateObject

.text.everythingStop
                0x9d01223c       0x2c
 .text.everythingStop
                0x9d01223c       0x2c build/Board4/production/_ext/676718598/debug.o
                0x9d01223c                everythingStop

.text.MotorStop
                0x9d012268       0x2c
 .text.MotorStop
                0x9d012268       0x2c build/Board4/production/_ext/676718598/motor.o
                0x9d012268                MotorStop

.text.PIXY_APP_Initialize
                0x9d012294       0x2c
 .text.PIXY_APP_Initialize
                0x9d012294       0x2c build/Board4/production/_ext/676718598/pixy_app.o
                0x9d012294                PIXY_APP_Initialize

.text.TurnLeft_90_Degree
                0x9d0122c0       0x28
 .text.TurnLeft_90_Degree
                0x9d0122c0       0x28 build/Board4/production/_ext/676718598/motor.o
                0x9d0122c0                TurnLeft_90_Degree

.text.TurnRight_90_Degree
                0x9d0122e8       0x28
 .text.TurnRight_90_Degree
                0x9d0122e8       0x28 build/Board4/production/_ext/676718598/motor.o
                0x9d0122e8                TurnRight_90_Degree

.rodata         0x9d012310       0x28
 .rodata        0x9d012310       0x28 build/Board4/production/_ext/676718598/motor_software_timer.o

.text.tx_queue_empty_from_isr
                0x9d012338       0x28
 .text.tx_queue_empty_from_isr
                0x9d012338       0x28 build/Board4/production/_ext/676718598/wifi_queue.o
                0x9d012338                tx_queue_empty_from_isr

.text.SENSOR_APP_Initialize
                0x9d012360       0x28
 .text.SENSOR_APP_Initialize
                0x9d012360       0x28 build/Board4/production/_ext/676718598/sensor_app.o
                0x9d012360                SENSOR_APP_Initialize

.text.strtod    0x9d012388       0x28
 .text.strtod   0x9d012388       0x28 /Applications/microchip/xc32/v2.15/bin/bin/../../lib/gcc/pic32mx/4.8.3/../../../../pic32mx/lib/libc.a(strtod.o)
                0x9d012388                strtod

.text.isinfl    0x9d0123b0       0x28
 .text.isinfl   0x9d0123b0       0x28 /Applications/microchip/xc32/v2.15/bin/bin/../../lib/gcc/pic32mx/4.8.3/../../../../pic32mx/lib/libpic32.a(isinf.o)
                0x9d0123b0                isinfl

.text.vApplicationStackOverflowHook
                0x9d0123d8       0x24
 .text.vApplicationStackOverflowHook
                0x9d0123d8       0x24 build/Board4/production/_ext/1445490757/rtos_hooks.o
                0x9d0123d8                vApplicationStackOverflowHook

.text.vApplicationMallocFailedHook
                0x9d0123fc       0x24
 .text.vApplicationMallocFailedHook
                0x9d0123fc       0x24 build/Board4/production/_ext/1445490757/rtos_hooks.o
                0x9d0123fc                vApplicationMallocFailedHook

.text.WIFI_APP_Initialize
                0x9d012420       0x24
 .text.WIFI_APP_Initialize
                0x9d012420       0x24 build/Board4/production/_ext/1360937237/wifi_app.o
                0x9d012420                WIFI_APP_Initialize

.text.cJSON_PrintUnformatted
                0x9d012444       0x24
 .text.cJSON_PrintUnformatted
                0x9d012444       0x24 build/Board4/production/_ext/676718598/cJSON.o
                0x9d012444                cJSON_PrintUnformatted

.text.cJSON_AddItemToObject
                0x9d012468       0x24
 .text.cJSON_AddItemToObject
                0x9d012468       0x24 build/Board4/production/_ext/676718598/cJSON.o
                0x9d012468                cJSON_AddItemToObject

.text.Mt_LEDTimerCallback
                0x9d01248c       0x24
 .text.Mt_LEDTimerCallback
                0x9d01248c       0x24 build/Board4/production/_ext/676718598/motor_software_timer.o
                0x9d01248c                Mt_LEDTimerCallback

.text.Mt_AdjustTimerCallback
                0x9d0124b0       0x24
 .text.Mt_AdjustTimerCallback
                0x9d0124b0       0x24 build/Board4/production/_ext/676718598/motor_software_timer.o
                0x9d0124b0                Mt_AdjustTimerCallback

.text.Mt_ReqTimerCallback
                0x9d0124d4       0x24
 .text.Mt_ReqTimerCallback
                0x9d0124d4       0x24 build/Board4/production/_ext/676718598/motor_software_timer.o
                0x9d0124d4                Mt_ReqTimerCallback

.text.prvTaskExitError
                0x9d0124f8       0x24
 .text.prvTaskExitError
                0x9d0124f8       0x24 build/Board4/production/_ext/331515796/port.o

.text.vListInitialise
                0x9d01251c       0x24
 .text.vListInitialise
                0x9d01251c       0x24 build/Board4/production/_ext/1539584926/list.o
                0x9d01251c                vListInitialise

.text.tolower   0x9d012540       0x24
 .text.tolower  0x9d012540       0x24 /Applications/microchip/xc32/v2.15/bin/bin/../../lib/gcc/pic32mx/4.8.3/../../../../pic32mx/lib/libc.a(ctypef.o)
                0x9d012540                tolower

.text.main      0x9d012564       0x20
 .text.main     0x9d012564       0x20 build/Board4/production/_ext/1360937237/main.o
                0x9d012564                main

.text.cJSON_Parse
                0x9d012584       0x20
 .text.cJSON_Parse
                0x9d012584       0x20 build/Board4/production/_ext/676718598/cJSON.o
                0x9d012584                cJSON_Parse

.text.sendFinishFeedBack
                0x9d0125a4       0x20
 .text.sendFinishFeedBack
                0x9d0125a4       0x20 build/Board4/production/_ext/676718598/motor_queue.o
                0x9d0125a4                sendFinishFeedBack

.text.sendAdjustFeedBack
                0x9d0125c4       0x20
 .text.sendAdjustFeedBack
                0x9d0125c4       0x20 build/Board4/production/_ext/676718598/motor_queue.o
                0x9d0125c4                sendAdjustFeedBack

.text.SYS_INT_Disable
                0x9d0125e4       0x20
 .text.SYS_INT_Disable
                0x9d0125e4       0x20 build/Board4/production/_ext/249303043/sys_int_pic32.o
                0x9d0125e4                SYS_INT_Disable

.text.xTaskGetSchedulerState
                0x9d012604       0x20
 .text.xTaskGetSchedulerState
                0x9d012604       0x20 build/Board4/production/_ext/1539584926/tasks.o
                0x9d012604                xTaskGetSchedulerState

.text.IntHandlerDrvTmrInstance1
                0x9d012624       0x1c
 .text.IntHandlerDrvTmrInstance1
                0x9d012624       0x1c build/Board4/production/_ext/1445490757/system_interrupt.o
                0x9d012624                IntHandlerDrvTmrInstance1

.text.IntHandlerDrvTmrInstance2
                0x9d012640       0x1c
 .text.IntHandlerDrvTmrInstance2
                0x9d012640       0x1c build/Board4/production/_ext/1445490757/system_interrupt.o
                0x9d012640                IntHandlerDrvTmrInstance2

.text.IntHandlerDrvTmrInstance3
                0x9d01265c       0x1c
 .text.IntHandlerDrvTmrInstance3
                0x9d01265c       0x1c build/Board4/production/_ext/1445490757/system_interrupt.o
                0x9d01265c                IntHandlerDrvTmrInstance3

.text.cJSON_GetObjectItem
                0x9d012678       0x1c
 .text.cJSON_GetObjectItem
                0x9d012678       0x1c build/Board4/production/_ext/676718598/cJSON.o
                0x9d012678                cJSON_GetObjectItem

.text.vPortClearInterruptMaskFromISR
                0x9d012694       0x1c
 .text.vPortClearInterruptMaskFromISR
                0x9d012694       0x1c build/Board4/production/_ext/331515796/port.o
                0x9d012694                vPortClearInterruptMaskFromISR

.text.strtof    0x9d0126b0       0x1c
 .text.strtof   0x9d0126b0       0x1c /Applications/microchip/xc32/v2.15/bin/bin/../../lib/gcc/pic32mx/4.8.3/../../../../pic32mx/lib/libc.a(strtof.o)
                0x9d0126b0                strtof

.text.negdf2    0x9d0126cc       0x1c
 .text.negdf2   0x9d0126cc       0x1c /Applications/microchip/xc32/v2.15/bin/bin/../../lib/gcc/pic32mx/4.8.3/../../../../pic32mx/lib/libm.a(negdf2.o)
                0x9d0126cc                __negdf2

.text.SYS_DEVCON_JTAGDisable
                0x9d0126e8       0x18
 .text.SYS_DEVCON_JTAGDisable
                0x9d0126e8       0x18 build/Board4/production/_ext/652723559/sys_devcon.o
                0x9d0126e8                SYS_DEVCON_JTAGDisable

.text._PIXY_APP_Tasks
                0x9d012700       0x18
 .text._PIXY_APP_Tasks
                0x9d012700       0x18 build/Board4/production/_ext/1445490757/system_tasks.o

.text._SENSOR_APP_Tasks
                0x9d012718       0x18
 .text._SENSOR_APP_Tasks
                0x9d012718       0x18 build/Board4/production/_ext/1445490757/system_tasks.o

.text._WIFI_APP_Tasks
                0x9d012730       0x18
 .text._WIFI_APP_Tasks
                0x9d012730       0x18 build/Board4/production/_ext/1445490757/system_tasks.o

.text._MOTOR_APP_Tasks
                0x9d012748       0x18
 .text._MOTOR_APP_Tasks
                0x9d012748       0x18 build/Board4/production/_ext/1445490757/system_tasks.o

.text.LED_Test  0x9d012760       0x18
 .text.LED_Test
                0x9d012760       0x18 build/Board4/production/_ext/676718598/debug.o
                0x9d012760                LED_Test

.text           0x9d012778       0x18
 .text          0x9d012778       0x18 /Applications/microchip/xc32/v2.15/bin/bin/../../lib/gcc/pic32mx/4.8.3/../../../../pic32mx/lib/libpic32.a(default-nmi-handler.o)
                0x9d012778                _nmi_handler

.rodata         0x9d012790       0x18
 .rodata        0x9d012790       0x18 /Applications/microchip/xc32/v2.15/bin/bin/../../lib/gcc/pic32mx/4.8.3/../../../../pic32mx/lib/libm.a(__strtof.o)

.text.DRV_OC0_Start
                0x9d0127a8       0x14
 .text.DRV_OC0_Start
                0x9d0127a8       0x14 build/Board4/production/_ext/1210681131/drv_oc_static.o
                0x9d0127a8                DRV_OC0_Start

.text.DRV_OC0_PulseWidthSet
                0x9d0127bc       0x14
 .text.DRV_OC0_PulseWidthSet
                0x9d0127bc       0x14 build/Board4/production/_ext/1210681131/drv_oc_static.o
                0x9d0127bc                DRV_OC0_PulseWidthSet

.text.DRV_OC1_Start
                0x9d0127d0       0x14
 .text.DRV_OC1_Start
                0x9d0127d0       0x14 build/Board4/production/_ext/1210681131/drv_oc_static.o
                0x9d0127d0                DRV_OC1_Start

.text.DRV_OC1_PulseWidthSet
                0x9d0127e4       0x14
 .text.DRV_OC1_PulseWidthSet
                0x9d0127e4       0x14 build/Board4/production/_ext/1210681131/drv_oc_static.o
                0x9d0127e4                DRV_OC1_PulseWidthSet

.text.DRV_TMR1_PeriodValueGet
                0x9d0127f8       0x14
 .text.DRV_TMR1_PeriodValueGet
                0x9d0127f8       0x14 build/Board4/production/_ext/1612284866/drv_tmr_static.o
                0x9d0127f8                DRV_TMR1_PeriodValueGet

.text.DRV_TMR2_CounterValueGet
                0x9d01280c       0x14
 .text.DRV_TMR2_CounterValueGet
                0x9d01280c       0x14 build/Board4/production/_ext/1612284866/drv_tmr_static.o
                0x9d01280c                DRV_TMR2_CounterValueGet

.text.DRV_TMR3_CounterValueGet
                0x9d012820       0x14
 .text.DRV_TMR3_CounterValueGet
                0x9d012820       0x14 build/Board4/production/_ext/1612284866/drv_tmr_static.o
                0x9d012820                DRV_TMR3_CounterValueGet

.text.SYS_DEVCON_Initialize
                0x9d012834       0x14
 .text.SYS_DEVCON_Initialize
                0x9d012834       0x14 build/Board4/production/_ext/652723559/sys_devcon.o
                0x9d012834                SYS_DEVCON_Initialize

.text.SYS_INT_Initialize
                0x9d012848       0x14
 .text.SYS_INT_Initialize
                0x9d012848       0x14 build/Board4/production/_ext/249303043/sys_int_pic32.o
                0x9d012848                SYS_INT_Initialize

.text.vTaskSuspendAll
                0x9d01285c       0x14
 .text.vTaskSuspendAll
                0x9d01285c       0x14 build/Board4/production/_ext/1539584926/tasks.o
                0x9d01285c                vTaskSuspendAll

.text.vTaskInternalSetTimeOutState
                0x9d012870       0x14
 .text.vTaskInternalSetTimeOutState
                0x9d012870       0x14 build/Board4/production/_ext/1539584926/tasks.o
                0x9d012870                vTaskInternalSetTimeOutState

.text.negsf2    0x9d012884       0x14
 .text.negsf2   0x9d012884       0x14 /Applications/microchip/xc32/v2.15/bin/bin/../../lib/gcc/pic32mx/4.8.3/../../../../pic32mx/lib/libm.a(negsf2.o)
                0x9d012884                __negsf2

.text.DRV_TMR2_CounterClear
                0x9d012898       0x10
 .text.DRV_TMR2_CounterClear
                0x9d012898       0x10 build/Board4/production/_ext/1612284866/drv_tmr_static.o
                0x9d012898                DRV_TMR2_CounterClear

.text.DRV_TMR3_CounterClear
                0x9d0128a8       0x10
 .text.DRV_TMR3_CounterClear
                0x9d0128a8       0x10 build/Board4/production/_ext/1612284866/drv_tmr_static.o
                0x9d0128a8                DRV_TMR3_CounterClear

.rodata         0x9d0128b8       0x10
 .rodata        0x9d0128b8       0x10 build/Board4/production/_ext/676718598/wifi_timer.o

.text.vTaskMissedYield
                0x9d0128c8       0x10
 .text.vTaskMissedYield
                0x9d0128c8       0x10 build/Board4/production/_ext/1539584926/tasks.o
                0x9d0128c8                vTaskMissedYield

.text.SYS_CLK_SystemFrequencyGet
                0x9d0128d8        0xc
 .text.SYS_CLK_SystemFrequencyGet
                0x9d0128d8        0xc build/Board4/production/_ext/635635118/sys_clk_pic32mx.o
                0x9d0128d8                SYS_CLK_SystemFrequencyGet

.text.SYS_CLK_PeripheralFrequencyGet
                0x9d0128e4        0xc
 .text.SYS_CLK_PeripheralFrequencyGet
                0x9d0128e4        0xc build/Board4/production/_ext/635635118/sys_clk_pic32mx.o
                0x9d0128e4                SYS_CLK_PeripheralFrequencyGet

.rodata         0x9d0128f0        0xc
 .rodata        0x9d0128f0        0xc build/Board4/production/_ext/676718598/pixy_app.o

.text.xTaskGetTickCount
                0x9d0128fc        0xc
 .text.xTaskGetTickCount
                0x9d0128fc        0xc build/Board4/production/_ext/1539584926/tasks.o
                0x9d0128fc                xTaskGetTickCount

.text._SYS_Tasks
                0x9d012908        0x8
 .text._SYS_Tasks
                0x9d012908        0x8 build/Board4/production/_ext/1445490757/system_tasks.o

.text.vListInitialiseItem
                0x9d012910        0x8
 .text.vListInitialiseItem
                0x9d012910        0x8 build/Board4/production/_ext/1539584926/list.o
                0x9d012910                vListInitialiseItem

.rodata         0x9d012918       0x10
 .rodata        0x9d012918        0x8 build/Board4/production/_ext/1539584926/tasks.o
 .rodata        0x9d012920        0x8 build/Board4/production/_ext/1539584926/timers.o

.text._on_reset
                0x9d012928        0x8
 .text._on_reset
                0x9d012928        0x8 /Applications/microchip/xc32/v2.15/bin/bin/../../lib/gcc/pic32mx/4.8.3/../../../../pic32mx/lib/libpic32.a(default-on-reset.o)
                0x9d012928                _on_reset

.text._on_bootstrap
                0x9d012930        0x8
 .text._on_bootstrap
                0x9d012930        0x8 /Applications/microchip/xc32/v2.15/bin/bin/../../lib/gcc/pic32mx/4.8.3/../../../../pic32mx/lib/libpic32.a(default-on-bootstrap.o)
                0x9d012930                _on_bootstrap

.rodata         0x9d012938       0x10
 .rodata        0x9d012938        0x8 /Applications/microchip/xc32/v2.15/bin/bin/../../lib/gcc/pic32mx/4.8.3/libgcc.a(_floatundidf.o)
 .rodata        0x9d012940        0x8 /Applications/microchip/xc32/v2.15/bin/bin/../../lib/gcc/pic32mx/4.8.3/libgcc.a(floatunsidf.o)

.rodata         0x9d00cdf4        0x4
 .rodata        0x9d00cdf4        0x4 build/Board4/production/_ext/331515796/port.o
                0x9d00cdf4                xISRStackTop

.rodata         0x9d012948        0x4
 .rodata        0x9d012948        0x4 /Applications/microchip/xc32/v2.15/bin/bin/../../lib/gcc/pic32mx/4.8.3/../../../../pic32mx/lib/libm.a(w_powf.o)
