
Optional file libmchp_peripheral.a not found

Optional file libmchp_peripheral_32MX795F512L.a not found
Archive member included because of file (symbol)

/Applications/microchip/xc32/v2.15/bin/bin/../../lib/gcc/pic32mx/4.8.3/../../../../pic32mx/lib/libpic32.a(memcpy.o)
                              build/Board2/production/_ext/334398652/cJSON.o (memcpy)
/Applications/microchip/xc32/v2.15/bin/bin/../../lib/gcc/pic32mx/4.8.3/../../../../pic32mx/lib/libpic32.a(memset.o)
                              build/Board2/production/_ext/334398652/cJSON.o (memset)
/Applications/microchip/xc32/v2.15/bin/bin/../../lib/gcc/pic32mx/4.8.3/../../../../pic32mx/lib/libpic32.a(strcmp.o)
                              build/Board2/production/_ext/334398652/cJSON.o (strcmp)
/Applications/microchip/xc32/v2.15/bin/bin/../../lib/gcc/pic32mx/4.8.3/../../../../pic32mx/lib/libpic32.a(strcpy.o)
                              build/Board2/production/_ext/334398652/wifi_state.o (strcpy)
/Applications/microchip/xc32/v2.15/bin/bin/../../lib/gcc/pic32mx/4.8.3/../../../../pic32mx/lib/libpic32.a(strlen.o)
                              build/Board2/production/_ext/334398652/cJSON.o (strlen)
/Applications/microchip/xc32/v2.15/bin/bin/../../lib/gcc/pic32mx/4.8.3/../../../../pic32mx/lib/libpic32.a(default-bootstrap-exception-handler.o)
                              /var/folders/d5/v4194pgj4rldzq4h08l7349w0000gn/T//ccciZ2NH.o (_bootstrap_exception_handler)
/Applications/microchip/xc32/v2.15/bin/bin/../../lib/gcc/pic32mx/4.8.3/../../../../pic32mx/lib/libpic32.a(default-on-reset.o)
                              /var/folders/d5/v4194pgj4rldzq4h08l7349w0000gn/T//ccciZ2NH.o (_on_reset)
/Applications/microchip/xc32/v2.15/bin/bin/../../lib/gcc/pic32mx/4.8.3/../../../../pic32mx/lib/libpic32.a(default-on-bootstrap.o)
                              /var/folders/d5/v4194pgj4rldzq4h08l7349w0000gn/T//ccciZ2NH.o (_on_bootstrap)
/Applications/microchip/xc32/v2.15/bin/bin/../../lib/gcc/pic32mx/4.8.3/../../../../pic32mx/lib/libpic32.a(default-nmi-handler.o)
                              /var/folders/d5/v4194pgj4rldzq4h08l7349w0000gn/T//ccciZ2NH.o (_nmi_handler)
/Applications/microchip/xc32/v2.15/bin/bin/../../lib/gcc/pic32mx/4.8.3/../../../../pic32mx/lib/libpic32.a(pic32_data_init.o)
                              /var/folders/d5/v4194pgj4rldzq4h08l7349w0000gn/T//ccciZ2NH.o (__pic32_data_init)
/Applications/microchip/xc32/v2.15/bin/bin/../../lib/gcc/pic32mx/4.8.3/../../../../pic32mx/lib/libpic32.a(general-exception.o)
                              /var/folders/d5/v4194pgj4rldzq4h08l7349w0000gn/T//ccciZ2NH.o (_general_exception_context)
/Applications/microchip/xc32/v2.15/bin/bin/../../lib/gcc/pic32mx/4.8.3/../../../../pic32mx/lib/libpic32.a(vector0.o)
                              /var/folders/d5/v4194pgj4rldzq4h08l7349w0000gn/T//ccoXvRWj.o (__vector_dispatch_0)
/Applications/microchip/xc32/v2.15/bin/bin/../../lib/gcc/pic32mx/4.8.3/../../../../pic32mx/lib/libpic32.a(vector2.o)
                              /var/folders/d5/v4194pgj4rldzq4h08l7349w0000gn/T//ccoXvRWj.o (__vector_dispatch_2)
/Applications/microchip/xc32/v2.15/bin/bin/../../lib/gcc/pic32mx/4.8.3/../../../../pic32mx/lib/libpic32.a(vector3.o)
                              /var/folders/d5/v4194pgj4rldzq4h08l7349w0000gn/T//ccoXvRWj.o (__vector_dispatch_3)
/Applications/microchip/xc32/v2.15/bin/bin/../../lib/gcc/pic32mx/4.8.3/../../../../pic32mx/lib/libpic32.a(vector5.o)
                              /var/folders/d5/v4194pgj4rldzq4h08l7349w0000gn/T//ccoXvRWj.o (__vector_dispatch_5)
/Applications/microchip/xc32/v2.15/bin/bin/../../lib/gcc/pic32mx/4.8.3/../../../../pic32mx/lib/libpic32.a(vector6.o)
                              /var/folders/d5/v4194pgj4rldzq4h08l7349w0000gn/T//ccoXvRWj.o (__vector_dispatch_6)
/Applications/microchip/xc32/v2.15/bin/bin/../../lib/gcc/pic32mx/4.8.3/../../../../pic32mx/lib/libpic32.a(vector7.o)
                              /var/folders/d5/v4194pgj4rldzq4h08l7349w0000gn/T//ccoXvRWj.o (__vector_dispatch_7)
/Applications/microchip/xc32/v2.15/bin/bin/../../lib/gcc/pic32mx/4.8.3/../../../../pic32mx/lib/libpic32.a(vector9.o)
                              /var/folders/d5/v4194pgj4rldzq4h08l7349w0000gn/T//ccoXvRWj.o (__vector_dispatch_9)
/Applications/microchip/xc32/v2.15/bin/bin/../../lib/gcc/pic32mx/4.8.3/../../../../pic32mx/lib/libpic32.a(vector10.o)
                              /var/folders/d5/v4194pgj4rldzq4h08l7349w0000gn/T//ccoXvRWj.o (__vector_dispatch_10)
/Applications/microchip/xc32/v2.15/bin/bin/../../lib/gcc/pic32mx/4.8.3/../../../../pic32mx/lib/libpic32.a(vector11.o)
                              /var/folders/d5/v4194pgj4rldzq4h08l7349w0000gn/T//ccoXvRWj.o (__vector_dispatch_11)
/Applications/microchip/xc32/v2.15/bin/bin/../../lib/gcc/pic32mx/4.8.3/../../../../pic32mx/lib/libpic32.a(vector13.o)
                              /var/folders/d5/v4194pgj4rldzq4h08l7349w0000gn/T//ccoXvRWj.o (__vector_dispatch_13)
/Applications/microchip/xc32/v2.15/bin/bin/../../lib/gcc/pic32mx/4.8.3/../../../../pic32mx/lib/libpic32.a(vector14.o)
                              /var/folders/d5/v4194pgj4rldzq4h08l7349w0000gn/T//ccoXvRWj.o (__vector_dispatch_14)
/Applications/microchip/xc32/v2.15/bin/bin/../../lib/gcc/pic32mx/4.8.3/../../../../pic32mx/lib/libpic32.a(vector15.o)
                              /var/folders/d5/v4194pgj4rldzq4h08l7349w0000gn/T//ccoXvRWj.o (__vector_dispatch_15)
/Applications/microchip/xc32/v2.15/bin/bin/../../lib/gcc/pic32mx/4.8.3/../../../../pic32mx/lib/libpic32.a(vector16.o)
                              /var/folders/d5/v4194pgj4rldzq4h08l7349w0000gn/T//ccoXvRWj.o (__vector_dispatch_16)
/Applications/microchip/xc32/v2.15/bin/bin/../../lib/gcc/pic32mx/4.8.3/../../../../pic32mx/lib/libpic32.a(vector17.o)
                              /var/folders/d5/v4194pgj4rldzq4h08l7349w0000gn/T//ccoXvRWj.o (__vector_dispatch_17)
/Applications/microchip/xc32/v2.15/bin/bin/../../lib/gcc/pic32mx/4.8.3/../../../../pic32mx/lib/libpic32.a(vector18.o)
                              /var/folders/d5/v4194pgj4rldzq4h08l7349w0000gn/T//ccoXvRWj.o (__vector_dispatch_18)
/Applications/microchip/xc32/v2.15/bin/bin/../../lib/gcc/pic32mx/4.8.3/../../../../pic32mx/lib/libpic32.a(vector19.o)
                              /var/folders/d5/v4194pgj4rldzq4h08l7349w0000gn/T//ccoXvRWj.o (__vector_dispatch_19)
/Applications/microchip/xc32/v2.15/bin/bin/../../lib/gcc/pic32mx/4.8.3/../../../../pic32mx/lib/libpic32.a(vector21.o)
                              /var/folders/d5/v4194pgj4rldzq4h08l7349w0000gn/T//ccoXvRWj.o (__vector_dispatch_21)
/Applications/microchip/xc32/v2.15/bin/bin/../../lib/gcc/pic32mx/4.8.3/../../../../pic32mx/lib/libpic32.a(vector22.o)
                              /var/folders/d5/v4194pgj4rldzq4h08l7349w0000gn/T//ccoXvRWj.o (__vector_dispatch_22)
/Applications/microchip/xc32/v2.15/bin/bin/../../lib/gcc/pic32mx/4.8.3/../../../../pic32mx/lib/libpic32.a(vector23.o)
                              /var/folders/d5/v4194pgj4rldzq4h08l7349w0000gn/T//ccoXvRWj.o (__vector_dispatch_23)
/Applications/microchip/xc32/v2.15/bin/bin/../../lib/gcc/pic32mx/4.8.3/../../../../pic32mx/lib/libpic32.a(vector25.o)
                              /var/folders/d5/v4194pgj4rldzq4h08l7349w0000gn/T//ccoXvRWj.o (__vector_dispatch_25)
/Applications/microchip/xc32/v2.15/bin/bin/../../lib/gcc/pic32mx/4.8.3/../../../../pic32mx/lib/libpic32.a(vector26.o)
                              /var/folders/d5/v4194pgj4rldzq4h08l7349w0000gn/T//ccoXvRWj.o (__vector_dispatch_26)
/Applications/microchip/xc32/v2.15/bin/bin/../../lib/gcc/pic32mx/4.8.3/../../../../pic32mx/lib/libpic32.a(vector27.o)
                              /var/folders/d5/v4194pgj4rldzq4h08l7349w0000gn/T//ccoXvRWj.o (__vector_dispatch_27)
/Applications/microchip/xc32/v2.15/bin/bin/../../lib/gcc/pic32mx/4.8.3/../../../../pic32mx/lib/libpic32.a(vector28.o)
                              /var/folders/d5/v4194pgj4rldzq4h08l7349w0000gn/T//ccoXvRWj.o (__vector_dispatch_28)
/Applications/microchip/xc32/v2.15/bin/bin/../../lib/gcc/pic32mx/4.8.3/../../../../pic32mx/lib/libpic32.a(vector29.o)
                              /var/folders/d5/v4194pgj4rldzq4h08l7349w0000gn/T//ccoXvRWj.o (__vector_dispatch_29)
/Applications/microchip/xc32/v2.15/bin/bin/../../lib/gcc/pic32mx/4.8.3/../../../../pic32mx/lib/libpic32.a(vector30.o)
                              /var/folders/d5/v4194pgj4rldzq4h08l7349w0000gn/T//ccoXvRWj.o (__vector_dispatch_30)
/Applications/microchip/xc32/v2.15/bin/bin/../../lib/gcc/pic32mx/4.8.3/../../../../pic32mx/lib/libpic32.a(vector31.o)
                              /var/folders/d5/v4194pgj4rldzq4h08l7349w0000gn/T//ccoXvRWj.o (__vector_dispatch_31)
/Applications/microchip/xc32/v2.15/bin/bin/../../lib/gcc/pic32mx/4.8.3/../../../../pic32mx/lib/libpic32.a(vector32.o)
                              /var/folders/d5/v4194pgj4rldzq4h08l7349w0000gn/T//ccoXvRWj.o (__vector_dispatch_32)
/Applications/microchip/xc32/v2.15/bin/bin/../../lib/gcc/pic32mx/4.8.3/../../../../pic32mx/lib/libpic32.a(vector33.o)
                              /var/folders/d5/v4194pgj4rldzq4h08l7349w0000gn/T//ccoXvRWj.o (__vector_dispatch_33)
/Applications/microchip/xc32/v2.15/bin/bin/../../lib/gcc/pic32mx/4.8.3/../../../../pic32mx/lib/libpic32.a(vector34.o)
                              /var/folders/d5/v4194pgj4rldzq4h08l7349w0000gn/T//ccoXvRWj.o (__vector_dispatch_34)
/Applications/microchip/xc32/v2.15/bin/bin/../../lib/gcc/pic32mx/4.8.3/../../../../pic32mx/lib/libpic32.a(vector35.o)
                              /var/folders/d5/v4194pgj4rldzq4h08l7349w0000gn/T//ccoXvRWj.o (__vector_dispatch_35)
/Applications/microchip/xc32/v2.15/bin/bin/../../lib/gcc/pic32mx/4.8.3/../../../../pic32mx/lib/libpic32.a(vector36.o)
                              /var/folders/d5/v4194pgj4rldzq4h08l7349w0000gn/T//ccoXvRWj.o (__vector_dispatch_36)
/Applications/microchip/xc32/v2.15/bin/bin/../../lib/gcc/pic32mx/4.8.3/../../../../pic32mx/lib/libpic32.a(vector37.o)
                              /var/folders/d5/v4194pgj4rldzq4h08l7349w0000gn/T//ccoXvRWj.o (__vector_dispatch_37)
/Applications/microchip/xc32/v2.15/bin/bin/../../lib/gcc/pic32mx/4.8.3/../../../../pic32mx/lib/libpic32.a(vector38.o)
                              /var/folders/d5/v4194pgj4rldzq4h08l7349w0000gn/T//ccoXvRWj.o (__vector_dispatch_38)
/Applications/microchip/xc32/v2.15/bin/bin/../../lib/gcc/pic32mx/4.8.3/../../../../pic32mx/lib/libpic32.a(vector39.o)
                              /var/folders/d5/v4194pgj4rldzq4h08l7349w0000gn/T//ccoXvRWj.o (__vector_dispatch_39)
/Applications/microchip/xc32/v2.15/bin/bin/../../lib/gcc/pic32mx/4.8.3/../../../../pic32mx/lib/libpic32.a(vector40.o)
                              /var/folders/d5/v4194pgj4rldzq4h08l7349w0000gn/T//ccoXvRWj.o (__vector_dispatch_40)
/Applications/microchip/xc32/v2.15/bin/bin/../../lib/gcc/pic32mx/4.8.3/../../../../pic32mx/lib/libpic32.a(vector41.o)
                              /var/folders/d5/v4194pgj4rldzq4h08l7349w0000gn/T//ccoXvRWj.o (__vector_dispatch_41)
/Applications/microchip/xc32/v2.15/bin/bin/../../lib/gcc/pic32mx/4.8.3/../../../../pic32mx/lib/libpic32.a(vector42.o)
                              /var/folders/d5/v4194pgj4rldzq4h08l7349w0000gn/T//ccoXvRWj.o (__vector_dispatch_42)
/Applications/microchip/xc32/v2.15/bin/bin/../../lib/gcc/pic32mx/4.8.3/../../../../pic32mx/lib/libpic32.a(vector43.o)
                              /var/folders/d5/v4194pgj4rldzq4h08l7349w0000gn/T//ccoXvRWj.o (__vector_dispatch_43)
/Applications/microchip/xc32/v2.15/bin/bin/../../lib/gcc/pic32mx/4.8.3/../../../../pic32mx/lib/libpic32.a(vector44.o)
                              /var/folders/d5/v4194pgj4rldzq4h08l7349w0000gn/T//ccoXvRWj.o (__vector_dispatch_44)
/Applications/microchip/xc32/v2.15/bin/bin/../../lib/gcc/pic32mx/4.8.3/../../../../pic32mx/lib/libpic32.a(vector45.o)
                              /var/folders/d5/v4194pgj4rldzq4h08l7349w0000gn/T//ccoXvRWj.o (__vector_dispatch_45)
/Applications/microchip/xc32/v2.15/bin/bin/../../lib/gcc/pic32mx/4.8.3/../../../../pic32mx/lib/libpic32.a(vector46.o)
                              /var/folders/d5/v4194pgj4rldzq4h08l7349w0000gn/T//ccoXvRWj.o (__vector_dispatch_46)
/Applications/microchip/xc32/v2.15/bin/bin/../../lib/gcc/pic32mx/4.8.3/../../../../pic32mx/lib/libpic32.a(vector47.o)
                              /var/folders/d5/v4194pgj4rldzq4h08l7349w0000gn/T//ccoXvRWj.o (__vector_dispatch_47)
/Applications/microchip/xc32/v2.15/bin/bin/../../lib/gcc/pic32mx/4.8.3/../../../../pic32mx/lib/libpic32.a(vector48.o)
                              /var/folders/d5/v4194pgj4rldzq4h08l7349w0000gn/T//ccoXvRWj.o (__vector_dispatch_48)
/Applications/microchip/xc32/v2.15/bin/bin/../../lib/gcc/pic32mx/4.8.3/../../../../pic32mx/lib/libpic32.a(vector49.o)
                              /var/folders/d5/v4194pgj4rldzq4h08l7349w0000gn/T//ccoXvRWj.o (__vector_dispatch_49)
/Applications/microchip/xc32/v2.15/bin/bin/../../lib/gcc/pic32mx/4.8.3/../../../../pic32mx/lib/libpic32.a(vector50.o)
                              /var/folders/d5/v4194pgj4rldzq4h08l7349w0000gn/T//ccoXvRWj.o (__vector_dispatch_50)
/Applications/microchip/xc32/v2.15/bin/bin/../../lib/gcc/pic32mx/4.8.3/../../../../pic32mx/lib/libpic32.a(vector51.o)
                              /var/folders/d5/v4194pgj4rldzq4h08l7349w0000gn/T//ccoXvRWj.o (__vector_dispatch_51)
/Applications/microchip/xc32/v2.15/bin/bin/../../lib/gcc/pic32mx/4.8.3/../../../../pic32mx/lib/libpic32.a(defaultinterrupt.o)
                              /Applications/microchip/xc32/v2.15/bin/bin/../../lib/gcc/pic32mx/4.8.3/../../../../pic32mx/lib/libpic32.a(vector0.o) (_DefaultInterrupt)
/Applications/microchip/xc32/v2.15/bin/bin/../../lib/gcc/pic32mx/4.8.3/../../../../pic32mx/lib/libc.a(ctypef.o)
                              build/Board2/production/_ext/334398652/cJSON.o (tolower)
/Applications/microchip/xc32/v2.15/bin/bin/../../lib/gcc/pic32mx/4.8.3/../../../../pic32mx/lib/libc.a(malloc.o)
                              build/Board2/production/_ext/334398652/cJSON.o (malloc)
/Applications/microchip/xc32/v2.15/bin/bin/../../lib/gcc/pic32mx/4.8.3/../../../../pic32mx/lib/libc.a(strcat.o)
                              build/Board2/production/_ext/334398652/http.o (strcat)
/Applications/microchip/xc32/v2.15/bin/bin/../../lib/gcc/pic32mx/4.8.3/../../../../pic32mx/lib/libc.a(strncmp.o)
                              build/Board2/production/_ext/334398652/cJSON.o (strncmp)
/Applications/microchip/xc32/v2.15/bin/bin/../../lib/gcc/pic32mx/4.8.3/../../../../pic32mx/lib/libc.a(strtod.o)
                              build/Board2/production/_ext/334398652/cJSON.o (strtod)
/Applications/microchip/xc32/v2.15/bin/bin/../../lib/gcc/pic32mx/4.8.3/../../../../pic32mx/lib/libc.a(sprintf_cdgGnopuxX.eo)
                              build/Board2/production/_ext/334398652/cJSON.o (_sprintf_cdgGnopuxX)
/Applications/microchip/xc32/v2.15/bin/bin/../../lib/gcc/pic32mx/4.8.3/../../../../pic32mx/lib/libc.a(sprintf_cdnopuxX.eo)
                              build/Board2/production/_ext/334398652/cJSON.o (_sprintf_cdnopuxX)
/Applications/microchip/xc32/v2.15/bin/bin/../../lib/gcc/pic32mx/4.8.3/../../../../pic32mx/lib/libc.a(sscanf_gG.eo)
                              build/Board2/production/_ext/334398652/cJSON.o (_sscanf_gG)
/Applications/microchip/xc32/v2.15/bin/bin/../../lib/gcc/pic32mx/4.8.3/../../../../pic32mx/lib/libc.a(ctype.o)
                              /Applications/microchip/xc32/v2.15/bin/bin/../../lib/gcc/pic32mx/4.8.3/../../../../pic32mx/lib/libc.a(ctypef.o) (_ctype)
/Applications/microchip/xc32/v2.15/bin/bin/../../lib/gcc/pic32mx/4.8.3/../../../../pic32mx/lib/libc.a(doprnt_cdgGnopuxX.eo)
                              /Applications/microchip/xc32/v2.15/bin/bin/../../lib/gcc/pic32mx/4.8.3/../../../../pic32mx/lib/libc.a(sprintf_cdgGnopuxX.eo) (_vfprintf_cdgGnopuxX)
/Applications/microchip/xc32/v2.15/bin/bin/../../lib/gcc/pic32mx/4.8.3/../../../../pic32mx/lib/libc.a(doprnt_cdnopuxX.eo)
                              /Applications/microchip/xc32/v2.15/bin/bin/../../lib/gcc/pic32mx/4.8.3/../../../../pic32mx/lib/libc.a(sprintf_cdnopuxX.eo) (_vfprintf_cdnopuxX)
/Applications/microchip/xc32/v2.15/bin/bin/../../lib/gcc/pic32mx/4.8.3/../../../../pic32mx/lib/libc.a(doscan_gG.eo)
                              /Applications/microchip/xc32/v2.15/bin/bin/../../lib/gcc/pic32mx/4.8.3/../../../../pic32mx/lib/libc.a(sscanf_gG.eo) (_vfscanf_gG)
/Applications/microchip/xc32/v2.15/bin/bin/../../lib/gcc/pic32mx/4.8.3/../../../../pic32mx/lib/libc.a(fgetc.o)
                              /Applications/microchip/xc32/v2.15/bin/bin/../../lib/gcc/pic32mx/4.8.3/../../../../pic32mx/lib/libc.a(doscan_gG.eo) (fgetc)
/Applications/microchip/xc32/v2.15/bin/bin/../../lib/gcc/pic32mx/4.8.3/../../../../pic32mx/lib/libc.a(_fputc_simple.o)
                              /Applications/microchip/xc32/v2.15/bin/bin/../../lib/gcc/pic32mx/4.8.3/../../../../pic32mx/lib/libc.a(doprnt_cdgGnopuxX.eo) (fputc)
/Applications/microchip/xc32/v2.15/bin/bin/../../lib/gcc/pic32mx/4.8.3/../../../../pic32mx/lib/libc.a(atoi.o)
                              /Applications/microchip/xc32/v2.15/bin/bin/../../lib/gcc/pic32mx/4.8.3/../../../../pic32mx/lib/libc.a(doscan_gG.eo) (atoi)
/Applications/microchip/xc32/v2.15/bin/bin/../../lib/gcc/pic32mx/4.8.3/../../../../pic32mx/lib/libc.a(ldpowers.o)
                              /Applications/microchip/xc32/v2.15/bin/bin/../../lib/gcc/pic32mx/4.8.3/../../../../pic32mx/lib/libc.a(doprnt_cdgGnopuxX.eo) (_npowers_)
/Applications/microchip/xc32/v2.15/bin/bin/../../lib/gcc/pic32mx/4.8.3/../../../../pic32mx/lib/libc.a(strtof.o)
                              /Applications/microchip/xc32/v2.15/bin/bin/../../lib/gcc/pic32mx/4.8.3/../../../../pic32mx/lib/libc.a(doscan_gG.eo) (strtof)
/Applications/microchip/xc32/v2.15/bin/bin/../../lib/gcc/pic32mx/4.8.3/../../../../pic32mx/lib/libc.a(ungetc.o)
                              /Applications/microchip/xc32/v2.15/bin/bin/../../lib/gcc/pic32mx/4.8.3/../../../../pic32mx/lib/libc.a(doscan_gG.eo) (ungetc)
/Applications/microchip/xc32/v2.15/bin/bin/../../lib/gcc/pic32mx/4.8.3/../../../../pic32mx/lib/libc.a(_iob.o)
                              /Applications/microchip/xc32/v2.15/bin/bin/../../lib/gcc/pic32mx/4.8.3/../../../../pic32mx/lib/libc.a(_fputc_simple.o) (_outdone)
/Applications/microchip/xc32/v2.15/bin/bin/../../lib/gcc/pic32mx/4.8.3/../../../../pic32mx/lib/libc.a(filbuf.o)
                              /Applications/microchip/xc32/v2.15/bin/bin/../../lib/gcc/pic32mx/4.8.3/../../../../pic32mx/lib/libc.a(fgetc.o) (_filbuf)
/Applications/microchip/xc32/v2.15/bin/bin/../../lib/gcc/pic32mx/4.8.3/../../../../pic32mx/lib/libc.a(_flsbuf_simple.o)
                              /Applications/microchip/xc32/v2.15/bin/bin/../../lib/gcc/pic32mx/4.8.3/../../../../pic32mx/lib/libc.a(_fputc_simple.o) (_flsbuf)
/Applications/microchip/xc32/v2.15/bin/bin/../../lib/gcc/pic32mx/4.8.3/../../../../pic32mx/lib/libc.a(fflush.o)
                              /Applications/microchip/xc32/v2.15/bin/bin/../../lib/gcc/pic32mx/4.8.3/../../../../pic32mx/lib/libc.a(filbuf.o) (fflush)
/Applications/microchip/xc32/v2.15/bin/bin/../../lib/gcc/pic32mx/4.8.3/../../../../pic32mx/lib/libm.a(dpfrexp.o)
                              /Applications/microchip/xc32/v2.15/bin/bin/../../lib/gcc/pic32mx/4.8.3/../../../../pic32mx/lib/libc.a(doprnt_cdgGnopuxX.eo) (frexpl)
/Applications/microchip/xc32/v2.15/bin/bin/../../lib/gcc/pic32mx/4.8.3/../../../../pic32mx/lib/libm.a(dp32div.o)
                              /Applications/microchip/xc32/v2.15/bin/bin/../../lib/gcc/pic32mx/4.8.3/../../../../pic32mx/lib/libc.a(doprnt_cdgGnopuxX.eo) (dpdiv)
/Applications/microchip/xc32/v2.15/bin/bin/../../lib/gcc/pic32mx/4.8.3/../../../../pic32mx/lib/libm.a(dp32mul.o)
                              /Applications/microchip/xc32/v2.15/bin/bin/../../lib/gcc/pic32mx/4.8.3/../../../../pic32mx/lib/libc.a(doprnt_cdgGnopuxX.eo) (dpmul)
/Applications/microchip/xc32/v2.15/bin/bin/../../lib/gcc/pic32mx/4.8.3/../../../../pic32mx/lib/libm.a(dp32subadd.o)
                              /Applications/microchip/xc32/v2.15/bin/bin/../../lib/gcc/pic32mx/4.8.3/../../../../pic32mx/lib/libc.a(doprnt_cdgGnopuxX.eo) (dpsub)
/Applications/microchip/xc32/v2.15/bin/bin/../../lib/gcc/pic32mx/4.8.3/../../../../pic32mx/lib/libm.a(dpcmp.o)
                              /Applications/microchip/xc32/v2.15/bin/bin/../../lib/gcc/pic32mx/4.8.3/../../../../pic32mx/lib/libc.a(doprnt_cdgGnopuxX.eo) (dpcmp)
/Applications/microchip/xc32/v2.15/bin/bin/../../lib/gcc/pic32mx/4.8.3/../../../../pic32mx/lib/libm.a(dptofp.o)
                              /Applications/microchip/xc32/v2.15/bin/bin/../../lib/gcc/pic32mx/4.8.3/../../../../pic32mx/lib/libc.a(strtod.o) (dptofp)
/Applications/microchip/xc32/v2.15/bin/bin/../../lib/gcc/pic32mx/4.8.3/../../../../pic32mx/lib/libm.a(dptoul.o)
                              /Applications/microchip/xc32/v2.15/bin/bin/../../lib/gcc/pic32mx/4.8.3/../../../../pic32mx/lib/libc.a(doprnt_cdgGnopuxX.eo) (dptoul)
/Applications/microchip/xc32/v2.15/bin/bin/../../lib/gcc/pic32mx/4.8.3/../../../../pic32mx/lib/libm.a(fp32mul.o)
                              build/Board2/production/_ext/334398652/cJSON.o (fpmul)
/Applications/microchip/xc32/v2.15/bin/bin/../../lib/gcc/pic32mx/4.8.3/../../../../pic32mx/lib/libm.a(fp32subadd.o)
                              build/Board2/production/_ext/334398652/http.o (fpadd)
/Applications/microchip/xc32/v2.15/bin/bin/../../lib/gcc/pic32mx/4.8.3/../../../../pic32mx/lib/libm.a(fpcmp.o)
                              build/Board2/production/_ext/334398652/cJSON.o (fpcmp)
/Applications/microchip/xc32/v2.15/bin/bin/../../lib/gcc/pic32mx/4.8.3/../../../../pic32mx/lib/libm.a(fptodp.o)
                              /Applications/microchip/xc32/v2.15/bin/bin/../../lib/gcc/pic32mx/4.8.3/../../../../pic32mx/lib/libc.a(doprnt_cdgGnopuxX.eo) (fptodp)
/Applications/microchip/xc32/v2.15/bin/bin/../../lib/gcc/pic32mx/4.8.3/../../../../pic32mx/lib/libm.a(fptoli.o)
                              build/Board2/production/_ext/334398652/cJSON.o (fptosi)
/Applications/microchip/xc32/v2.15/bin/bin/../../lib/gcc/pic32mx/4.8.3/../../../../pic32mx/lib/libm.a(sitofp.o)
                              build/Board2/production/_ext/334398652/cJSON.o (sitofp)
/Applications/microchip/xc32/v2.15/bin/bin/../../lib/gcc/pic32mx/4.8.3/../../../../pic32mx/lib/libm.a(w_powf.o)
                              build/Board2/production/_ext/334398652/http.o (powf)
/Applications/microchip/xc32/v2.15/bin/bin/../../lib/gcc/pic32mx/4.8.3/../../../../pic32mx/lib/libm.a(__strtod.o)
                              /Applications/microchip/xc32/v2.15/bin/bin/../../lib/gcc/pic32mx/4.8.3/../../../../pic32mx/lib/libc.a(strtod.o) (__strtod)
/Applications/microchip/xc32/v2.15/bin/bin/../../lib/gcc/pic32mx/4.8.3/../../../../pic32mx/lib/libm.a(__strtof.o)
                              /Applications/microchip/xc32/v2.15/bin/bin/../../lib/gcc/pic32mx/4.8.3/../../../../pic32mx/lib/libc.a(strtof.o) (__strtof)
/Applications/microchip/xc32/v2.15/bin/bin/../../lib/gcc/pic32mx/4.8.3/../../../../pic32mx/lib/libm.a(fp32div.o)
                              /Applications/microchip/xc32/v2.15/bin/bin/../../lib/gcc/pic32mx/4.8.3/../../../../pic32mx/lib/libm.a(__strtof.o) (__divsf3)
/Applications/microchip/xc32/v2.15/bin/bin/../../lib/gcc/pic32mx/4.8.3/../../../../pic32mx/lib/libm.a(fpmodf.o)
                              /Applications/microchip/xc32/v2.15/bin/bin/../../lib/gcc/pic32mx/4.8.3/../../../../pic32mx/lib/libm.a(w_powf.o) (modff)
/Applications/microchip/xc32/v2.15/bin/bin/../../lib/gcc/pic32mx/4.8.3/../../../../pic32mx/lib/libm.a(fppow32.o)
                              /Applications/microchip/xc32/v2.15/bin/bin/../../lib/gcc/pic32mx/4.8.3/../../../../pic32mx/lib/libm.a(w_powf.o) (__mchp_powf)
/Applications/microchip/xc32/v2.15/bin/bin/../../lib/gcc/pic32mx/4.8.3/../../../../pic32mx/lib/libm.a(litodp.o)
                              /Applications/microchip/xc32/v2.15/bin/bin/../../lib/gcc/pic32mx/4.8.3/../../../../pic32mx/lib/libm.a(__strtod.o) (__floatsidf)
/Applications/microchip/xc32/v2.15/bin/bin/../../lib/gcc/pic32mx/4.8.3/../../../../pic32mx/lib/libm.a(negdf2.o)
                              /Applications/microchip/xc32/v2.15/bin/bin/../../lib/gcc/pic32mx/4.8.3/../../../../pic32mx/lib/libm.a(__strtod.o) (__negdf2)
/Applications/microchip/xc32/v2.15/bin/bin/../../lib/gcc/pic32mx/4.8.3/../../../../pic32mx/lib/libm.a(negsf2.o)
                              /Applications/microchip/xc32/v2.15/bin/bin/../../lib/gcc/pic32mx/4.8.3/../../../../pic32mx/lib/libm.a(__strtof.o) (__negsf2)
/Applications/microchip/xc32/v2.15/bin/bin/../../lib/gcc/pic32mx/4.8.3/../../../../pic32mx/lib/libm.a(s_lib_ver.o)
                              /Applications/microchip/xc32/v2.15/bin/bin/../../lib/gcc/pic32mx/4.8.3/../../../../pic32mx/lib/libm.a(w_powf.o) (math_errhandling)
/Applications/microchip/xc32/v2.15/bin/bin/../../lib/gcc/pic32mx/4.8.3/../../../../pic32mx/lib/libm.a(fpexlog.o)
                              /Applications/microchip/xc32/v2.15/bin/bin/../../lib/gcc/pic32mx/4.8.3/../../../../pic32mx/lib/libm.a(fppow32.o) (fpexlog)
/Applications/microchip/xc32/v2.15/bin/bin/../../lib/gcc/pic32mx/4.8.3/../../../../pic32mx/lib/libm.a(fpexp32.o)
                              /Applications/microchip/xc32/v2.15/bin/bin/../../lib/gcc/pic32mx/4.8.3/../../../../pic32mx/lib/libm.a(fppow32.o) (fpexexp)
/Applications/microchip/xc32/v2.15/bin/bin/../../lib/gcc/pic32mx/4.8.3/../../../../pic32mx/lib/libe.a(_fixunsdfdi.o)
                              /Applications/microchip/xc32/v2.15/bin/bin/../../lib/gcc/pic32mx/4.8.3/../../../../pic32mx/lib/libc.a(doprnt_cdgGnopuxX.eo) (__fixunsdfdi)
/Applications/microchip/xc32/v2.15/bin/bin/../../lib/gcc/pic32mx/4.8.3/../../../../pic32mx/lib/libe.a(_orderdf2.o)
                              /Applications/microchip/xc32/v2.15/bin/bin/../../lib/gcc/pic32mx/4.8.3/../../../../pic32mx/lib/libe.a(_fixunsdfdi.o) (__orderdf2)
/Applications/microchip/xc32/v2.15/bin/bin/../../lib/gcc/pic32mx/4.8.3/../../../../pic32mx/lib/libe.a(_ldexp.o)
                              /Applications/microchip/xc32/v2.15/bin/bin/../../lib/gcc/pic32mx/4.8.3/../../../../pic32mx/lib/libm.a(__strtod.o) (__ldexp)
/Applications/microchip/xc32/v2.15/bin/bin/../../lib/gcc/pic32mx/4.8.3/../../../../pic32mx/lib/libe.a(_ldexpf.o)
                              /Applications/microchip/xc32/v2.15/bin/bin/../../lib/gcc/pic32mx/4.8.3/../../../../pic32mx/lib/libm.a(__strtof.o) (__ldexpf)
/Applications/microchip/xc32/v2.15/bin/bin/../../lib/gcc/pic32mx/4.8.3/../../../../pic32mx/lib/libe.a(_fixdfdi.o)
                              /Applications/microchip/xc32/v2.15/bin/bin/../../lib/gcc/pic32mx/4.8.3/../../../../pic32mx/lib/libe.a(_fixunsdfdi.o) (__fixdfdi)
/Applications/microchip/xc32/v2.15/bin/bin/../../lib/gcc/pic32mx/4.8.3/libgcc.a(_lshrdi3.o)
                              /Applications/microchip/xc32/v2.15/bin/bin/../../lib/gcc/pic32mx/4.8.3/../../../../pic32mx/lib/libe.a(_ldexp.o) (__lshrdi3)
/Applications/microchip/xc32/v2.15/bin/bin/../../lib/gcc/pic32mx/4.8.3/libgcc.a(_ashldi3.o)
                              /Applications/microchip/xc32/v2.15/bin/bin/../../lib/gcc/pic32mx/4.8.3/../../../../pic32mx/lib/libe.a(_ldexp.o) (__ashldi3)
/Applications/microchip/xc32/v2.15/bin/bin/../../lib/gcc/pic32mx/4.8.3/libgcc.a(_floatundidf.o)
                              /Applications/microchip/xc32/v2.15/bin/bin/../../lib/gcc/pic32mx/4.8.3/../../../../pic32mx/lib/libc.a(doprnt_cdgGnopuxX.eo) (__floatundidf)
/Applications/microchip/xc32/v2.15/bin/bin/../../lib/gcc/pic32mx/4.8.3/libgcc.a(_udivdi3.o)
                              /Applications/microchip/xc32/v2.15/bin/bin/../../lib/gcc/pic32mx/4.8.3/../../../../pic32mx/lib/libc.a(doprnt_cdgGnopuxX.eo) (__udivdi3)
/Applications/microchip/xc32/v2.15/bin/bin/../../lib/gcc/pic32mx/4.8.3/libgcc.a(_umoddi3.o)
                              /Applications/microchip/xc32/v2.15/bin/bin/../../lib/gcc/pic32mx/4.8.3/../../../../pic32mx/lib/libc.a(doprnt_cdgGnopuxX.eo) (__umoddi3)
/Applications/microchip/xc32/v2.15/bin/bin/../../lib/gcc/pic32mx/4.8.3/libgcc.a(floatunsidf.o)
                              /Applications/microchip/xc32/v2.15/bin/bin/../../lib/gcc/pic32mx/4.8.3/../../../../pic32mx/lib/libc.a(doprnt_cdgGnopuxX.eo) (__floatunsidf)
/Applications/microchip/xc32/v2.15/bin/bin/../../lib/gcc/pic32mx/4.8.3/../../../../pic32mx/lib/libpic32.a(sbrk.o)
                              /Applications/microchip/xc32/v2.15/bin/bin/../../lib/gcc/pic32mx/4.8.3/../../../../pic32mx/lib/libc.a(malloc.o) (sbrk)
/Applications/microchip/xc32/v2.15/bin/bin/../../lib/gcc/pic32mx/4.8.3/../../../../pic32mx/lib/libpic32.a(read.o)
                              /Applications/microchip/xc32/v2.15/bin/bin/../../lib/gcc/pic32mx/4.8.3/../../../../pic32mx/lib/libc.a(filbuf.o) (read)
/Applications/microchip/xc32/v2.15/bin/bin/../../lib/gcc/pic32mx/4.8.3/../../../../pic32mx/lib/libpic32.a(write.o)
                              /Applications/microchip/xc32/v2.15/bin/bin/../../lib/gcc/pic32mx/4.8.3/../../../../pic32mx/lib/libc.a(_fputc_simple.o) (write)
/Applications/microchip/xc32/v2.15/bin/bin/../../lib/gcc/pic32mx/4.8.3/../../../../pic32mx/lib/libpic32.a(xc32_uart.o)
                              /Applications/microchip/xc32/v2.15/bin/bin/../../lib/gcc/pic32mx/4.8.3/../../../../pic32mx/lib/libpic32.a(read.o) (__XC_UART)
/Applications/microchip/xc32/v2.15/bin/bin/../../lib/gcc/pic32mx/4.8.3/../../../../pic32mx/lib/libpic32.a(errno.o)
                              /Applications/microchip/xc32/v2.15/bin/bin/../../lib/gcc/pic32mx/4.8.3/../../../../pic32mx/lib/libm.a(w_powf.o) (errno)
/Applications/microchip/xc32/v2.15/bin/bin/../../lib/gcc/pic32mx/4.8.3/../../../../pic32mx/lib/libpic32.a(isinf.o)
                              /Applications/microchip/xc32/v2.15/bin/bin/../../lib/gcc/pic32mx/4.8.3/../../../../pic32mx/lib/libm.a(w_powf.o) (isinfl)
/Applications/microchip/xc32/v2.15/bin/bin/../../lib/gcc/pic32mx/4.8.3/../../../../pic32mx/lib/libpic32.a(_mon_putc.o)
                              /Applications/microchip/xc32/v2.15/bin/bin/../../lib/gcc/pic32mx/4.8.3/../../../../pic32mx/lib/libpic32.a(write.o) (_mon_putc)
/Applications/microchip/xc32/v2.15/bin/bin/../../lib/gcc/pic32mx/4.8.3/../../../../pic32mx/lib/libe.a(_unorddf2.o)
                              /Applications/microchip/xc32/v2.15/bin/bin/../../lib/gcc/pic32mx/4.8.3/../../../../pic32mx/lib/libpic32.a(isinf.o) (__unorddf2)

Allocating common symbols
Common symbol       size              file

Uart_tx_queue       0x4               build/Board2/production/_ext/1351229741/drv_oc_mapping.o
gDrvUSART0Obj       0x8               build/Board2/production/_ext/794052624/drv_usart_static.o
sysObj              0x10              build/Board2/production/_ext/1445490755/system_init.o
gameQueueHandle     0x4               build/Board2/production/_ext/1351229741/drv_oc_mapping.o
statistic_handle    0x4               build/Board2/production/_ext/334398652/wifi_timer.o
Game_ReqHandle      0x4               build/Board2/production/_ext/334398652/game_timer.o
UART_Thread_queue   0x4               build/Board2/production/_ext/1351229741/drv_oc_mapping.o
sysDevconObj        0x8               build/Board2/production/_ext/733479835/sys_devcon.o
Game_LEDHandle      0x4               build/Board2/production/_ext/334398652/game_timer.o

Microchip PIC32 Memory-Usage Report

kseg0 Program-Memory Usage
section                    address  length [bytes]      (dec)  Description
-------                 ----------  -------------------------  -----------
.text._vfprintf_cdgGnop 0x9d000000         0x1c44        7236   
.text._vfscanf_gG       0x9d001c44          0xb98        2968   
.text.parse_value       0x9d0027dc          0x740        1856   
.text.print_value       0x9d002f1c          0x67c        1660   
.text.parse_string      0x9d003598          0x530        1328   
.text.dp32mul           0x9d003ac8          0x4b8        1208   
.text                   0x9d003f80          0x8bc        2236  App's exec code 
.text                   0x9d00483c          0x454        1108  App's exec code 
.text.dp32subadd        0x9d004c90          0x430        1072   
.text.libm              0x9d0050c0          0x408        1032   
.text.__strtod          0x9d0054c8          0x3d0         976   
.text.GameStateMachine  0x9d005898          0x358         856   
.text.__strtof          0x9d005bf0          0x358         856   
.text.dp32mul           0x9d005f48          0x32c         812   
.text.xTaskCreate       0x9d006274          0x2c8         712   
.dinit                  0x9d00653c          0x2c0         704   
.text.libm              0x9d0067fc          0x2b4         692   
.text.print_string_ptr  0x9d006ab0          0x2a8         680   
.text.fpsubadd          0x9d006d58          0x278         632   
.text.prvTimerTask      0x9d006fd0          0x270         624   
.text.scale             0x9d007240          0x23c         572   
.text.fp32div           0x9d00747c          0x230         560   
.text.jsonDecode        0x9d0076ac          0x22c         556   
.text.xQueueGenericSend 0x9d0078d8          0x20c         524   
.text                   0x9d007ae4          0x204         516  App's exec code 
.text.UART_Proxy        0x9d007ce8          0x1cc         460   
.text.fround            0x9d007eb4          0x1cc         460   
.text.xQueueReceive     0x9d008080          0x1c0         448   
.text.cJSON_ParseWithOp 0x9d008240          0x1bc         444   
.text.fp32mul           0x9d0083fc          0x1bc         444   
.DrvTmrInstance1_vector 0x9d0085b8          0x1b4         436   
.DrvTmrInstance2_vector 0x9d00876c          0x1b4         436   
.DrvTmrInstance3_vector 0x9d008920          0x1b4         436   
.DrvUsartInstance0_vect 0x9d008ad4          0x1b4         436   
.text.__ldexp           0x9d008c88          0x1a8         424   
.text                   0x9d008e30          0x1a0         416  App's exec code 
.text.xTaskIncrementTic 0x9d008fd0          0x198         408   
.rodata                 0x9d009168          0x190         400  Read-only const 
.text.DRV_USART0_Initia 0x9d0092f8          0x18c         396   
.text._filbuf           0x9d009484          0x188         392   
.text.GETnumHelpFunc    0x9d00960c          0x17c         380   
.text.print             0x9d009788          0x168         360   
.text                   0x9d0098f0          0x2d0         720  App's exec code 
.rodata                 0x9d009bc0          0x160         352  Read-only const 
.text.pvPortMalloc      0x9d009d20          0x15c         348   
.text.read              0x9d009e7c          0x158         344   
.text.ensure            0x9d009fd4          0x154         340   
.text.xTaskResumeAll    0x9d00a128          0x148         328   
.text.powf              0x9d00a270          0x148         328   
.text.Game_PUT_construc 0x9d00a3b8          0x144         324   
.text.stat_http_constru 0x9d00a4fc          0x144         324   
.text.fputc             0x9d00a640          0x144         324   
.text.http_parse        0x9d00a784          0x140         320   
.text.get_object_item   0x9d00a8c4          0x130         304   
.text.GETrecieveHelpFun 0x9d00a9f4          0x130         304   
.text._flsbuf           0x9d00ab24          0x12c         300   
.text.dpcmp             0x9d00ac50          0x12c         300   
.text.IntHandlerDrvUsar 0x9d00ad7c          0x128         296   
.rodata                 0x9d00aea4          0x128         296  Read-only const 
.text                   0x9d00afcc          0x120         288  App's exec code 
.text.isHttp            0x9d00b0ec          0x11c         284   
.text.GET_construct_Hel 0x9d00b208          0x118         280   
.text.GETcontentHelpFun 0x9d00b320          0x110         272   
.text.prvSampleTimeNow  0x9d00b430          0x104         260   
.rodata                 0x9d00b534          0x104         260  Read-only const 
.text.fgetc             0x9d00b638          0x104         260   
.text.__ldexpf          0x9d00b73c          0x104         260   
.text.prvUnlockQueue    0x9d00b840          0x100         256   
.text.dptofp            0x9d00b940          0x100         256   
.text.xTaskPriorityDisi 0x9d00ba40           0xf8         248   
.rodata                 0x9d00bb38           0xf8         248  Read-only const 
.text.prvCopyDataToQueu 0x9d00bc30           0xf4         244   
.text.xQueueGenericSend 0x9d00bd24           0xf0         240   
.text.__fixdfdi         0x9d00be14           0xe8         232   
.text.add_item_to_objec 0x9d00befc           0xe4         228   
.text.prvAddCurrentTask 0x9d00bfe0           0xe4         228   
.text.SYS_DEVCON_Perfor 0x9d00c0c4           0xe0         224   
.text.xQueueReceiveFrom 0x9d00c1a4           0xe0         224   
.text.vTaskSwitchContex 0x9d00c284           0xe0         224   
.text.general_exception 0x9d00c364           0xdc         220   
.text.Uart_tx_queue_Rec 0x9d00c440           0xd4         212   
.text.libm              0x9d00c514           0xd4         212   
.text._mon_putc         0x9d00c5e8           0xd4         212   
.text.SYS_Initialize    0x9d00c6bc           0xd0         208   
.text.Step_1_handler    0x9d00c78c           0xcc         204   
.text.cJSON_Delete      0x9d00c858           0xc0         192   
.text.xQueueGenericRese 0x9d00c918           0xc0         192   
.text.xTaskRemoveFromEv 0x9d00c9d8           0xbc         188   
.text.SYS_PORTS_Initial 0x9d00ca94           0xb0         176   
.text.Step_2_handler    0x9d00cb44           0xb0         176   
.text.fptodp            0x9d00cbf4           0xac         172   
.text                   0x9d00cca0           0xa8         168  App's exec code 
.text.range             0x9d00cd48           0xa8         168   
.text.atoi              0x9d00cdf0           0xa8         168   
.text.libm              0x9d00ce98           0xa8         168   
.text.buffer_skip_white 0x9d00cf40           0xa4         164   
.text.xTaskCheckForTime 0x9d00cfe4           0xa4         164   
.text.prvIdleTask       0x9d00d088           0xa0         160   
.text.fflush            0x9d00d128           0xa0         160   
.text.cJSON_CreateNumbe 0x9d00d1c8           0x9c         156   
.text.recieveHelpFunc   0x9d00d264           0x9c         156   
.text.fpcmp             0x9d00d300           0x9c         156   
.text.write             0x9d00d39c           0x9c         156   
.text.SYS_Tasks         0x9d00d438           0x94         148   
.text.WIFI_QUEUE_Recv   0x9d00d4cc           0x94         148   
.text.popGameQueue      0x9d00d560           0x94         148   
.text.xQueueGenericCrea 0x9d00d5f4           0x94         148   
.text.xTimerGenericComm 0x9d00d688           0x94         148   
.text.parse_hex4        0x9d00d71c           0x8c         140   
.text.Game_LEDTimer_Ini 0x9d00d7a8           0x8c         140   
.text.vQueueWaitForMess 0x9d00d834           0x8c         140   
.text.vTaskStartSchedul 0x9d00d8c0           0x8c         140   
.text.dptoul            0x9d00d94c           0x8c         140   
.text.__orderdf2        0x9d00d9d8           0x8c         140   
.text.xTimerCreate      0x9d00da64           0x88         136   
.text.Game_ReqTimer_Sta 0x9d00daec           0x84         132   
.text                   0x9d00db70           0x84         132  App's exec code 
.text.fptoli            0x9d00dbf4           0x80         128   
.text.__fixunsdfdi      0x9d00dc74           0x80         128   
.text.DRV_TMR1_Initiali 0x9d00dcf4           0x7c         124   
.text.GAME_APP_Tasks    0x9d00dd70           0x78         120   
.text.litodp            0x9d00dde8           0x78         120   
.text.DRV_TMR2_Initiali 0x9d00de60           0x74         116   
.text.DRV_TMR3_Initiali 0x9d00ded4           0x74         116   
.text.cJSON_strdup      0x9d00df48           0x74         116   
.text.cJSON_CreateStrin 0x9d00dfbc           0x74         116   
.text.xQueuePeekFromISR 0x9d00e030           0x74         116   
.text.prvInsertTimerInA 0x9d00e0a4           0x74         116   
.text.prvCheckForValidL 0x9d00e118           0x74         116   
.text.ungetc            0x9d00e18c           0x74         116   
.text.Tx_isr_fsm        0x9d00e200           0x70         112   
.text.Stat_Timer_Init   0x9d00e270           0x70         112   
.text.vPortFree         0x9d00e2e0           0x70         112   
.text.strncmp           0x9d00e350           0x70         112   
.text.vApplicationSetup 0x9d00e3c0           0x6c         108   
.text.WIFI_APP_Tasks    0x9d00e42c           0x68         104   
.text.pushGameQueue     0x9d00e494           0x68         104   
.text._sprintf_cdgGnopu 0x9d00e4fc           0x68         104   
.text                   0x9d00e564           0x64         100  App's exec code 
.text.dbgOutputLoc      0x9d00e5c8           0x60          96   
.text.dbgOutputVal      0x9d00e628           0x60          96   
.text.vListInsert       0x9d00e688           0x60          96   
.text.vTaskExitCritical 0x9d00e6e8           0x60          96   
.text.wspace            0x9d00e748           0x60          96   
.text.sitofp            0x9d00e7a8           0x60          96   
.text.xPortStartSchedul 0x9d00e808           0x5c          92   
.text.xTimerCreateTimer 0x9d00e864           0x5c          92   
.text.SYS_DEVCON_System 0x9d00e8c0           0x58          88   
.text.add_item_to_array 0x9d00e918           0x58          88   
.text.send_2_WIFI_QUEUE 0x9d00e970           0x58          88   
.text.send_2_WIFI_QUEUE 0x9d00e9c8           0x58          88   
.text.send_2_Tx_queue   0x9d00ea20           0x58          88   
.text.xQueueCreateMutex 0x9d00ea78           0x58          88   
.text.init_WIFI_queue   0x9d00ead0           0x54          84   
.text.pxPortInitialiseS 0x9d00eb24           0x54          84   
.text.vPortIncrementTic 0x9d00eb78           0x54          84   
.text.main_entry        0x9d00ebcc           0x54          84   
.text._sscanf_gG        0x9d00ec20           0x54          84   
.text.http_construct    0x9d00ec74           0x50          80   
.text.Game_ReqTimer_Ini 0x9d00ecc4           0x50          80   
.text.prvCopyDataFromQu 0x9d00ed14           0x50          80   
.text.update_offset     0x9d00ed64           0x4c          76   
.rodata                 0x9d00edb0           0x4c          76  Read-only const 
.text.uxListRemove      0x9d00edfc           0x4c          76   
.text.SYS_DEVCON_System 0x9d00ee48           0x48          72   
.text.vTaskPlaceOnEvent 0x9d00ee90           0x48          72   
.text.vTaskEnterCritica 0x9d00eed8           0x48          72   
.text._bootstrap_except 0x9d00ef20           0x48          72   
.vector_default         0x9d00ef68           0x48          72   
.rodata                 0x9d00efb0           0x48          72  Read-only const 
.text.SYS_CLK_Initializ 0x9d00eff8           0x44          68   
.text.cJSON_New_Item    0x9d00f03c           0x44          68   
.text                   0x9d00f080           0x44          68  App's exec code 
.text.strcat            0x9d00f0c4           0x44          68   
.text                   0x9d00f108           0x44          68  App's exec code 
.text._general_exceptio 0x9d00f14c           0x40          64   
.text.Stat_CallBack     0x9d00f18c           0x40          64   
.text                   0x9d00f1cc           0x80         128  App's exec code 
.text.DRV_OC0_Initializ 0x9d00f24c           0x3c          60   
.text.DRV_OC1_Initializ 0x9d00f288           0x3c          60   
.text.OSAL_MUTEX_Create 0x9d00f2c4           0x3c          60   
.text.uxPortSetInterrup 0x9d00f300           0x3c          60   
.text.game_Send_Data    0x9d00f33c           0x38          56   
.text.game_send_GET     0x9d00f374           0x38          56   
.text.prvResetNextTaskU 0x9d00f3ac           0x38          56   
.text.vTaskPlaceOnEvent 0x9d00f3e4           0x38          56   
.text.gameQueue_init    0x9d00f41c           0x34          52   
.text.vListInsertEnd    0x9d00f450           0x34          52   
.text.prvIsQueueEmpty   0x9d00f484           0x34          52   
.text.DRV_USART_Initial 0x9d00f4b8           0x30          48   
.rodata                 0x9d00f4e8           0x2c          44  Read-only const 
.text.GAME_APP_Initiali 0x9d00f514           0x2c          44   
.text.cJSON_CreateObjec 0x9d00f540           0x2c          44   
.text.everythingStop    0x9d00f56c           0x2c          44   
.text.tx_queue_empty_fr 0x9d00f598           0x28          40   
.text.strtod            0x9d00f5c0           0x28          40   
.text.isinfl            0x9d00f5e8           0x28          40   
.text.vApplicationStack 0x9d00f610           0x24          36   
.text.vApplicationMallo 0x9d00f634           0x24          36   
.text.WIFI_APP_Initiali 0x9d00f658           0x24          36   
.text.cJSON_PrintUnform 0x9d00f67c           0x24          36   
.text.cJSON_AddItemToOb 0x9d00f6a0           0x24          36   
.text.Game_LEDTimerCall 0x9d00f6c4           0x24          36   
.text.Game_ReqTimerCall 0x9d00f6e8           0x24          36   
.text.prvTaskExitError  0x9d00f70c           0x24          36   
.text.vListInitialise   0x9d00f730           0x24          36   
.text.tolower           0x9d00f754           0x24          36   
.text.main              0x9d00f778           0x20          32   
.text.cJSON_Parse       0x9d00f798           0x20          32   
.text.SYS_INT_Disable   0x9d00f7b8           0x20          32   
.text.xTaskGetScheduler 0x9d00f7d8           0x20          32   
.text.IntHandlerDrvTmrI 0x9d00f7f8           0x1c          28   
.text.IntHandlerDrvTmrI 0x9d00f814           0x1c          28   
.text.IntHandlerDrvTmrI 0x9d00f830           0x1c          28   
.text.cJSON_GetObjectIt 0x9d00f84c           0x1c          28   
.rodata                 0x9d00f868           0x1c          28  Read-only const 
.text.vPortClearInterru 0x9d00f884           0x1c          28   
.text.strtof            0x9d00f8a0           0x1c          28   
.text.negdf2            0x9d00f8bc           0x1c          28   
.text.SYS_DEVCON_JTAGDi 0x9d00f8d8           0x18          24   
.text._WIFI_APP_Tasks   0x9d00f8f0           0x18          24   
.text._GAME_APP_Tasks   0x9d00f908           0x18          24   
.text.LED_Test          0x9d00f920           0x18          24   
.text                   0x9d00f938           0x18          24  App's exec code 
.rodata                 0x9d00f950           0x18          24  Read-only const 
.text.SYS_DEVCON_Initia 0x9d00f968           0x14          20   
.text.SYS_INT_Initializ 0x9d00f97c           0x14          20   
.text.vTaskSuspendAll   0x9d00f990           0x14          20   
.text.vTaskInternalSetT 0x9d00f9a4           0x14          20   
.text.negsf2            0x9d00f9b8           0x14          20   
.rodata                 0x9d00f9cc           0x10          16  Read-only const 
.text.vTaskMissedYield  0x9d00f9dc           0x10          16   
.text.SYS_CLK_SystemFre 0x9d00f9ec            0xc          12   
.text.SYS_CLK_Periphera 0x9d00f9f8            0xc          12   
.text.xTaskGetTickCount 0x9d00fa04            0xc          12   
.text._SYS_Tasks        0x9d00fa10            0x8           8   
.text.vListInitialiseIt 0x9d00fa18            0x8           8   
.rodata                 0x9d00fa20           0x10          16  Read-only const 
.text._on_reset         0x9d00fa30            0x8           8   
.text._on_bootstrap     0x9d00fa38            0x8           8   
.rodata                 0x9d00fa40           0x10          16  Read-only const 
.rodata                 0x9d00fa50            0x8           8  Read-only const 
      Total kseg0_program_mem used  :      0xfa58       64088  12.2% of 0x80000

kseg0 Boot-Memory Usage
section                    address  length [bytes]      (dec)  Description
-------                 ----------  -------------------------  -----------
         Total kseg0_boot_mem used  :           0           0  <1% of 0x970

Exception-Memory Usage 
section                    address  length [bytes]      (dec)  Description
-------                 ----------  -------------------------  -----------
.app_excpt              0x9fc01180           0x10          16  General-Exception 
.vector_0               0x9fc01200            0x8           8  Interrupt Vector 0 
.vector_1               0x9fc01220            0x8           8  Interrupt Vector 1 
.vector_2               0x9fc01240            0x8           8  Interrupt Vector 2 
.vector_3               0x9fc01260            0x8           8  Interrupt Vector 3 
.vector_4               0x9fc01280            0x8           8  Interrupt Vector 4 
.vector_5               0x9fc012a0            0x8           8  Interrupt Vector 5 
.vector_6               0x9fc012c0            0x8           8  Interrupt Vector 6 
.vector_7               0x9fc012e0            0x8           8  Interrupt Vector 7 
.vector_8               0x9fc01300           0x10          16  Interrupt Vector 8 
.vector_9               0x9fc01320            0x8           8  Interrupt Vector 9 
.vector_10              0x9fc01340            0x8           8  Interrupt Vector 10 
.vector_11              0x9fc01360            0x8           8  Interrupt Vector 11 
.vector_12              0x9fc01380           0x10          16  Interrupt Vector 12 
.vector_13              0x9fc013a0            0x8           8  Interrupt Vector 13 
.vector_14              0x9fc013c0            0x8           8  Interrupt Vector 14 
.vector_15              0x9fc013e0            0x8           8  Interrupt Vector 15 
.vector_16              0x9fc01400            0x8           8  Interrupt Vector 16 
.vector_17              0x9fc01420            0x8           8  Interrupt Vector 17 
.vector_18              0x9fc01440            0x8           8  Interrupt Vector 18 
.vector_19              0x9fc01460            0x8           8  Interrupt Vector 19 
.vector_20              0x9fc01480           0x10          16  Interrupt Vector 20 
.vector_21              0x9fc014a0            0x8           8  Interrupt Vector 21 
.vector_22              0x9fc014c0            0x8           8  Interrupt Vector 22 
.vector_23              0x9fc014e0            0x8           8  Interrupt Vector 23 
.vector_24              0x9fc01500           0x10          16  Interrupt Vector 24 
.vector_25              0x9fc01520            0x8           8  Interrupt Vector 25 
.vector_26              0x9fc01540            0x8           8  Interrupt Vector 26 
.vector_27              0x9fc01560            0x8           8  Interrupt Vector 27 
.vector_28              0x9fc01580            0x8           8  Interrupt Vector 28 
.vector_29              0x9fc015a0            0x8           8  Interrupt Vector 29 
.vector_30              0x9fc015c0            0x8           8  Interrupt Vector 30 
.vector_31              0x9fc015e0            0x8           8  Interrupt Vector 31 
.vector_32              0x9fc01600            0x8           8  Interrupt Vector 32 
.vector_33              0x9fc01620            0x8           8  Interrupt Vector 33 
.vector_34              0x9fc01640            0x8           8  Interrupt Vector 34 
.vector_35              0x9fc01660            0x8           8  Interrupt Vector 35 
.vector_36              0x9fc01680            0x8           8  Interrupt Vector 36 
.vector_37              0x9fc016a0            0x8           8  Interrupt Vector 37 
.vector_38              0x9fc016c0            0x8           8  Interrupt Vector 38 
.vector_39              0x9fc016e0            0x8           8  Interrupt Vector 39 
.vector_40              0x9fc01700            0x8           8  Interrupt Vector 40 
.vector_41              0x9fc01720            0x8           8  Interrupt Vector 41 
.vector_42              0x9fc01740            0x8           8  Interrupt Vector 42 
.vector_43              0x9fc01760            0x8           8  Interrupt Vector 43 
.vector_44              0x9fc01780            0x8           8  Interrupt Vector 44 
.vector_45              0x9fc017a0            0x8           8  Interrupt Vector 45 
.vector_46              0x9fc017c0            0x8           8  Interrupt Vector 46 
.vector_47              0x9fc017e0            0x8           8  Interrupt Vector 47 
.vector_48              0x9fc01800            0x8           8  Interrupt Vector 48 
.vector_49              0x9fc01820            0x8           8  Interrupt Vector 49 
.vector_50              0x9fc01840            0x8           8  Interrupt Vector 50 
.vector_51              0x9fc01860            0x8           8  Interrupt Vector 51 
          Total exception_mem used  :       0x1d0         464  11.3% of 0x1000

kseg1 Boot-Memory Usage
section                    address  length [bytes]      (dec)  Description
-------                 ----------  -------------------------  -----------
.reset                  0xbfc00000          0x1a8         424  Reset handler 
.bev_excpt              0xbfc00380           0x10          16  BEV-Exception 
         Total kseg1_boot_mem used  :       0x1b8         440  37.7% of 0x490
        --------------------------------------------------------------------------
         Total Program Memory used  :      0xfde0       64992  12.2% of 0x81e00
        --------------------------------------------------------------------------


kseg1 Data-Memory Usage
section                    address  length [bytes]      (dec)  Description
-------                 ----------  -------------------------  -----------
.sdata                  0xa0000000            0xc          12  Small init data 
.sbss                   0xa000000c           0xd8         216  Small uninit data 
.bss                    0xa00000e4           0x10          16  Uninitialized data 
.bss                    0xa00000f4        0x14000       81920  Uninitialized data 
.bss                    0xa00140f4            0x4           4  Uninitialized data 
.bss                    0xa00140f8          0x948        2376  Uninitialized data 
.bss                    0xa0014a40          0x194         404  Uninitialized data 
.data                   0xa0014bd4          0x130         304  Initialized data 
.bss                    0xa0014d04           0x6c         108  Uninitialized data 
.data                   0xa0014d70           0x28          40  Initialized data 
.data.math_errhandling_ 0xa0014d98            0x4           4   
.bss.errno              0xa0014d9c            0x4           4   
         Total kseg1_data_mem used  :     0x14da0       85408  65.2% of 0x20000
        --------------------------------------------------------------------------
            Total Data Memory used  :     0x14da0       85408  65.2% of 0x20000
        --------------------------------------------------------------------------


Dynamic Data-Memory Reservation
section                    address  length [bytes]      (dec)  Description
-------                 ----------  -------------------------  -----------
heap                    0xa0014da8              0           0  Reserved for heap 
stack                   0xa0014dc0         0xb238       45624  Reserved for stack 

        --------------------------------------------------------------------------

Discarded input sections

 .text          0x00000000        0x0 /Applications/microchip/xc32/v2.15/bin/bin/../../lib/gcc/pic32mx/4.8.3/../../../../pic32mx/lib/debug-exception-return.o
 .data          0x00000000        0x0 /Applications/microchip/xc32/v2.15/bin/bin/../../lib/gcc/pic32mx/4.8.3/../../../../pic32mx/lib/debug-exception-return.o
 .bss           0x00000000        0x0 /Applications/microchip/xc32/v2.15/bin/bin/../../lib/gcc/pic32mx/4.8.3/../../../../pic32mx/lib/debug-exception-return.o
 .text          0x00000000        0x0 build/Board2/production/_ext/1351229741/drv_oc_mapping.o
 .data          0x00000000        0x0 build/Board2/production/_ext/1351229741/drv_oc_mapping.o
 .bss           0x00000000        0x0 build/Board2/production/_ext/1351229741/drv_oc_mapping.o
 .reginfo       0x00000000       0x18 build/Board2/production/_ext/1351229741/drv_oc_mapping.o
 .text.DRV_OC_Initialize
                0x00000000       0x5c build/Board2/production/_ext/1351229741/drv_oc_mapping.o
 .text.DRV_OC_Start
                0x00000000       0x5c build/Board2/production/_ext/1351229741/drv_oc_mapping.o
 .text.DRV_OC_Stop
                0x00000000       0x44 build/Board2/production/_ext/1351229741/drv_oc_mapping.o
 .text.DRV_OC_CompareValuesSingleSet
                0x00000000        0x8 build/Board2/production/_ext/1351229741/drv_oc_mapping.o
 .text.DRV_OC_CompareValuesDualSet
                0x00000000        0x8 build/Board2/production/_ext/1351229741/drv_oc_mapping.o
 .text.DRV_OC_PulseWidthSet
                0x00000000       0x44 build/Board2/production/_ext/1351229741/drv_oc_mapping.o
 .text.DRV_OC_FaultHasOccurred
                0x00000000       0x48 build/Board2/production/_ext/1351229741/drv_oc_mapping.o
 .text          0x00000000        0x0 build/Board2/production/_ext/1351229741/drv_oc_static.o
 .data          0x00000000        0x0 build/Board2/production/_ext/1351229741/drv_oc_static.o
 .bss           0x00000000        0x0 build/Board2/production/_ext/1351229741/drv_oc_static.o
 .reginfo       0x00000000       0x18 build/Board2/production/_ext/1351229741/drv_oc_static.o
 .text.DRV_OC0_Enable
                0x00000000       0x14 build/Board2/production/_ext/1351229741/drv_oc_static.o
 .text.DRV_OC0_Disable
                0x00000000       0x14 build/Board2/production/_ext/1351229741/drv_oc_static.o
 .text.DRV_OC0_Start
                0x00000000       0x14 build/Board2/production/_ext/1351229741/drv_oc_static.o
 .text.DRV_OC0_Stop
                0x00000000       0x14 build/Board2/production/_ext/1351229741/drv_oc_static.o
 .text.DRV_OC0_PulseWidthSet
                0x00000000       0x14 build/Board2/production/_ext/1351229741/drv_oc_static.o
 .text.DRV_OC0_FaultHasOccurred
                0x00000000       0x10 build/Board2/production/_ext/1351229741/drv_oc_static.o
 .text.DRV_OC1_Enable
                0x00000000       0x14 build/Board2/production/_ext/1351229741/drv_oc_static.o
 .text.DRV_OC1_Disable
                0x00000000       0x14 build/Board2/production/_ext/1351229741/drv_oc_static.o
 .text.DRV_OC1_Start
                0x00000000       0x14 build/Board2/production/_ext/1351229741/drv_oc_static.o
 .text.DRV_OC1_Stop
                0x00000000       0x14 build/Board2/production/_ext/1351229741/drv_oc_static.o
 .text.DRV_OC1_PulseWidthSet
                0x00000000       0x14 build/Board2/production/_ext/1351229741/drv_oc_static.o
 .text.DRV_OC1_FaultHasOccurred
                0x00000000       0x10 build/Board2/production/_ext/1351229741/drv_oc_static.o
 .text          0x00000000        0x0 build/Board2/production/_ext/1550245252/drv_tmr_static.o
 .data          0x00000000        0x0 build/Board2/production/_ext/1550245252/drv_tmr_static.o
 .bss           0x00000000        0x0 build/Board2/production/_ext/1550245252/drv_tmr_static.o
 .reginfo       0x00000000       0x18 build/Board2/production/_ext/1550245252/drv_tmr_static.o
 .text._DRV_TMR_ClockSourceSet
                0x00000000       0xa8 build/Board2/production/_ext/1550245252/drv_tmr_static.o
 .text.DRV_TMR1_Start
                0x00000000       0x3c build/Board2/production/_ext/1550245252/drv_tmr_static.o
 .text.DRV_TMR1_Stop
                0x00000000       0x40 build/Board2/production/_ext/1550245252/drv_tmr_static.o
 .text.DRV_TMR1_ClientStatus
                0x00000000       0x14 build/Board2/production/_ext/1550245252/drv_tmr_static.o
 .text.DRV_TMR1_CounterValueSet
                0x00000000       0x14 build/Board2/production/_ext/1550245252/drv_tmr_static.o
 .text.DRV_TMR1_CounterValueGet
                0x00000000       0x14 build/Board2/production/_ext/1550245252/drv_tmr_static.o
 .text.DRV_TMR1_CounterClear
                0x00000000       0x10 build/Board2/production/_ext/1550245252/drv_tmr_static.o
 .text.DRV_TMR1_DividerRangeGet
                0x00000000       0x2c build/Board2/production/_ext/1550245252/drv_tmr_static.o
 .text.DRV_TMR1_CounterFrequencyGet
                0x00000000       0x4c build/Board2/production/_ext/1550245252/drv_tmr_static.o
 .text.DRV_TMR1_PrescalerGet
                0x00000000       0xa4 build/Board2/production/_ext/1550245252/drv_tmr_static.o
 .text.DRV_TMR1_PeriodValueSet
                0x00000000       0x14 build/Board2/production/_ext/1550245252/drv_tmr_static.o
 .text.DRV_TMR1_PeriodValueGet
                0x00000000       0x14 build/Board2/production/_ext/1550245252/drv_tmr_static.o
 .text.DRV_TMR1_StopInIdleDisable
                0x00000000       0x14 build/Board2/production/_ext/1550245252/drv_tmr_static.o
 .text.DRV_TMR1_StopInIdleEnable
                0x00000000       0x14 build/Board2/production/_ext/1550245252/drv_tmr_static.o
 .text.DRV_TMR1_ClockSet
                0x00000000       0xb8 build/Board2/production/_ext/1550245252/drv_tmr_static.o
 .text.DRV_TMR2_Start
                0x00000000       0x3c build/Board2/production/_ext/1550245252/drv_tmr_static.o
 .text.DRV_TMR2_Stop
                0x00000000       0x40 build/Board2/production/_ext/1550245252/drv_tmr_static.o
 .text.DRV_TMR2_ClientStatus
                0x00000000       0x14 build/Board2/production/_ext/1550245252/drv_tmr_static.o
 .text.DRV_TMR2_CounterValueSet
                0x00000000       0x14 build/Board2/production/_ext/1550245252/drv_tmr_static.o
 .text.DRV_TMR2_CounterValueGet
                0x00000000       0x14 build/Board2/production/_ext/1550245252/drv_tmr_static.o
 .text.DRV_TMR2_CounterClear
                0x00000000       0x10 build/Board2/production/_ext/1550245252/drv_tmr_static.o
 .text.DRV_TMR2_DividerRangeGet
                0x00000000       0x2c build/Board2/production/_ext/1550245252/drv_tmr_static.o
 .text.DRV_TMR2_CounterFrequencyGet
                0x00000000        0x8 build/Board2/production/_ext/1550245252/drv_tmr_static.o
 .text.DRV_TMR2_PrescalerGet
                0x00000000       0xa4 build/Board2/production/_ext/1550245252/drv_tmr_static.o
 .text.DRV_TMR2_PeriodValueSet
                0x00000000       0x14 build/Board2/production/_ext/1550245252/drv_tmr_static.o
 .text.DRV_TMR2_PeriodValueGet
                0x00000000       0x14 build/Board2/production/_ext/1550245252/drv_tmr_static.o
 .text.DRV_TMR2_StopInIdleDisable
                0x00000000       0x14 build/Board2/production/_ext/1550245252/drv_tmr_static.o
 .text.DRV_TMR2_StopInIdleEnable
                0x00000000       0x14 build/Board2/production/_ext/1550245252/drv_tmr_static.o
 .text.DRV_TMR2_ClockSet
                0x00000000       0xb8 build/Board2/production/_ext/1550245252/drv_tmr_static.o
 .text.DRV_TMR3_Start
                0x00000000       0x3c build/Board2/production/_ext/1550245252/drv_tmr_static.o
 .text.DRV_TMR3_Stop
                0x00000000       0x40 build/Board2/production/_ext/1550245252/drv_tmr_static.o
 .text.DRV_TMR3_ClientStatus
                0x00000000       0x14 build/Board2/production/_ext/1550245252/drv_tmr_static.o
 .text.DRV_TMR3_CounterValueSet
                0x00000000       0x14 build/Board2/production/_ext/1550245252/drv_tmr_static.o
 .text.DRV_TMR3_CounterValueGet
                0x00000000       0x14 build/Board2/production/_ext/1550245252/drv_tmr_static.o
 .text.DRV_TMR3_CounterClear
                0x00000000       0x10 build/Board2/production/_ext/1550245252/drv_tmr_static.o
 .text.DRV_TMR3_DividerRangeGet
                0x00000000       0x2c build/Board2/production/_ext/1550245252/drv_tmr_static.o
 .text.DRV_TMR3_CounterFrequencyGet
                0x00000000        0x8 build/Board2/production/_ext/1550245252/drv_tmr_static.o
 .text.DRV_TMR3_PrescalerGet
                0x00000000       0xa4 build/Board2/production/_ext/1550245252/drv_tmr_static.o
 .text.DRV_TMR3_PeriodValueSet
                0x00000000       0x14 build/Board2/production/_ext/1550245252/drv_tmr_static.o
 .text.DRV_TMR3_PeriodValueGet
                0x00000000       0x14 build/Board2/production/_ext/1550245252/drv_tmr_static.o
 .text.DRV_TMR3_StopInIdleDisable
                0x00000000       0x14 build/Board2/production/_ext/1550245252/drv_tmr_static.o
 .text.DRV_TMR3_StopInIdleEnable
                0x00000000       0x14 build/Board2/production/_ext/1550245252/drv_tmr_static.o
 .text.DRV_TMR3_ClockSet
                0x00000000       0xb8 build/Board2/production/_ext/1550245252/drv_tmr_static.o
 .text          0x00000000        0x0 build/Board2/production/_ext/1550245252/drv_tmr_mapping.o
 .data          0x00000000        0x0 build/Board2/production/_ext/1550245252/drv_tmr_mapping.o
 .bss           0x00000000        0x0 build/Board2/production/_ext/1550245252/drv_tmr_mapping.o
 .reginfo       0x00000000       0x18 build/Board2/production/_ext/1550245252/drv_tmr_mapping.o
 .text.DRV_TMR_Initialize
                0x00000000       0x60 build/Board2/production/_ext/1550245252/drv_tmr_mapping.o
 .text.DRV_TMR_Deinitialize
                0x00000000       0x58 build/Board2/production/_ext/1550245252/drv_tmr_mapping.o
 .text.DRV_TMR_Status
                0x00000000        0x8 build/Board2/production/_ext/1550245252/drv_tmr_mapping.o
 .text.DRV_TMR_Tasks
                0x00000000        0x8 build/Board2/production/_ext/1550245252/drv_tmr_mapping.o
 .text.DRV_TMR_Open
                0x00000000       0x30 build/Board2/production/_ext/1550245252/drv_tmr_mapping.o
 .text.DRV_TMR_Close
                0x00000000       0x58 build/Board2/production/_ext/1550245252/drv_tmr_mapping.o
 .text.DRV_TMR_ClientStatus
                0x00000000       0x64 build/Board2/production/_ext/1550245252/drv_tmr_mapping.o
 .text.DRV_TMR_CounterValueSet
                0x00000000       0x58 build/Board2/production/_ext/1550245252/drv_tmr_mapping.o
 .text.DRV_TMR_CounterValueGet
                0x00000000       0x64 build/Board2/production/_ext/1550245252/drv_tmr_mapping.o
 .text.DRV_TMR_CounterClear
                0x00000000       0x58 build/Board2/production/_ext/1550245252/drv_tmr_mapping.o
 .text.DRV_TMR_AlarmRegister
                0x00000000        0x8 build/Board2/production/_ext/1550245252/drv_tmr_mapping.o
 .text.DRV_TMR_AlarmDisable
                0x00000000        0x8 build/Board2/production/_ext/1550245252/drv_tmr_mapping.o
 .text.DRV_TMR_AlarmEnable
                0x00000000        0x8 build/Board2/production/_ext/1550245252/drv_tmr_mapping.o
 .text.DRV_TMR_AlarmPeriodSet
                0x00000000        0x8 build/Board2/production/_ext/1550245252/drv_tmr_mapping.o
 .text.DRV_TMR_AlarmPeriodGet
                0x00000000        0x8 build/Board2/production/_ext/1550245252/drv_tmr_mapping.o
 .text.DRV_TMR_AlarmDeregister
                0x00000000        0x8 build/Board2/production/_ext/1550245252/drv_tmr_mapping.o
 .text.DRV_TMR_Start
                0x00000000       0x64 build/Board2/production/_ext/1550245252/drv_tmr_mapping.o
 .text.DRV_TMR_Stop
                0x00000000       0x58 build/Board2/production/_ext/1550245252/drv_tmr_mapping.o
 .text.DRV_TMR_AlarmHasElapsed
                0x00000000        0x8 build/Board2/production/_ext/1550245252/drv_tmr_mapping.o
 .text.DRV_TMR_OperationModeGet
                0x00000000        0xc build/Board2/production/_ext/1550245252/drv_tmr_mapping.o
 .text.DRV_TMR_ClockSet
                0x00000000       0x6c build/Board2/production/_ext/1550245252/drv_tmr_mapping.o
 .text.DRV_TMR_PrescalerGet
                0x00000000       0x64 build/Board2/production/_ext/1550245252/drv_tmr_mapping.o
 .text.DRV_TMR_GateModeSet
                0x00000000        0x8 build/Board2/production/_ext/1550245252/drv_tmr_mapping.o
 .text.DRV_TMR_GateModeClear
                0x00000000        0x8 build/Board2/production/_ext/1550245252/drv_tmr_mapping.o
 .text.DRV_TMR_CounterFrequencyGet
                0x00000000       0x64 build/Board2/production/_ext/1550245252/drv_tmr_mapping.o
 .text.DRV_TMR_DividerRangeGet
                0x00000000       0x64 build/Board2/production/_ext/1550245252/drv_tmr_mapping.o
 .text          0x00000000        0x0 build/Board2/production/_ext/794052624/drv_usart_mapping.o
 .data          0x00000000        0x0 build/Board2/production/_ext/794052624/drv_usart_mapping.o
 .bss           0x00000000        0x0 build/Board2/production/_ext/794052624/drv_usart_mapping.o
 .reginfo       0x00000000       0x18 build/Board2/production/_ext/794052624/drv_usart_mapping.o
 .text.DRV_USART_Deinitialize
                0x00000000       0x28 build/Board2/production/_ext/794052624/drv_usart_mapping.o
 .text.DRV_USART_Status
                0x00000000       0x30 build/Board2/production/_ext/794052624/drv_usart_mapping.o
 .text.DRV_USART_TasksTransmit
                0x00000000       0x28 build/Board2/production/_ext/794052624/drv_usart_mapping.o
 .text.DRV_USART_TasksReceive
                0x00000000       0x28 build/Board2/production/_ext/794052624/drv_usart_mapping.o
 .text.DRV_USART_TasksError
                0x00000000       0x28 build/Board2/production/_ext/794052624/drv_usart_mapping.o
 .text.DRV_USART_Open
                0x00000000       0x30 build/Board2/production/_ext/794052624/drv_usart_mapping.o
 .text.DRV_USART_Close
                0x00000000       0x2c build/Board2/production/_ext/794052624/drv_usart_mapping.o
 .text.DRV_USART_ClientStatus
                0x00000000       0x34 build/Board2/production/_ext/794052624/drv_usart_mapping.o
 .text.DRV_USART_TransferStatus
                0x00000000       0x34 build/Board2/production/_ext/794052624/drv_usart_mapping.o
 .text.DRV_USART_ErrorGet
                0x00000000       0x34 build/Board2/production/_ext/794052624/drv_usart_mapping.o
 .text.DRV_USART_ReadByte
                0x00000000       0x34 build/Board2/production/_ext/794052624/drv_usart_mapping.o
 .text.DRV_USART_WriteByte
                0x00000000       0x2c build/Board2/production/_ext/794052624/drv_usart_mapping.o
 .text.DRV_USART_ReceiverBufferSizeGet
                0x00000000       0x34 build/Board2/production/_ext/794052624/drv_usart_mapping.o
 .text.DRV_USART_TransmitBufferSizeGet
                0x00000000       0x34 build/Board2/production/_ext/794052624/drv_usart_mapping.o
 .text.DRV_USART_ReceiverBufferIsEmpty
                0x00000000       0x34 build/Board2/production/_ext/794052624/drv_usart_mapping.o
 .text.DRV_USART_TransmitBufferIsFull
                0x00000000       0x34 build/Board2/production/_ext/794052624/drv_usart_mapping.o
 .text.DRV_USART_BaudSet
                0x00000000       0x34 build/Board2/production/_ext/794052624/drv_usart_mapping.o
 .text.DRV_USART_LineControlSet
                0x00000000       0x34 build/Board2/production/_ext/794052624/drv_usart_mapping.o
 .text          0x00000000        0x0 build/Board2/production/_ext/794052624/drv_usart_static.o
 .data          0x00000000        0x0 build/Board2/production/_ext/794052624/drv_usart_static.o
 .bss           0x00000000        0x0 build/Board2/production/_ext/794052624/drv_usart_static.o
 .reginfo       0x00000000       0x18 build/Board2/production/_ext/794052624/drv_usart_static.o
 .text.DRV_USART0_Deinitialize
                0x00000000       0x4c build/Board2/production/_ext/794052624/drv_usart_static.o
 .text.DRV_USART0_Status
                0x00000000        0x8 build/Board2/production/_ext/794052624/drv_usart_static.o
 .text.DRV_USART0_TasksTransmit
                0x00000000       0x48 build/Board2/production/_ext/794052624/drv_usart_static.o
 .text.DRV_USART0_TasksReceive
                0x00000000       0x2c build/Board2/production/_ext/794052624/drv_usart_static.o
 .text.DRV_USART0_TasksError
                0x00000000       0x2c build/Board2/production/_ext/794052624/drv_usart_static.o
 .text.DRV_USART0_Open
                0x00000000        0x8 build/Board2/production/_ext/794052624/drv_usart_static.o
 .text.DRV_USART0_Close
                0x00000000        0x8 build/Board2/production/_ext/794052624/drv_usart_static.o
 .text.DRV_USART0_ClientStatus
                0x00000000        0x8 build/Board2/production/_ext/794052624/drv_usart_static.o
 .text.DRV_USART0_TransferStatus
                0x00000000       0x48 build/Board2/production/_ext/794052624/drv_usart_static.o
 .text.DRV_USART0_ErrorGet
                0x00000000       0x10 build/Board2/production/_ext/794052624/drv_usart_static.o
 .text._DRV_USART0_ErrorConditionClear
                0x00000000       0x88 build/Board2/production/_ext/794052624/drv_usart_static.o
 .text.DRV_USART0_BaudSet
                0x00000000       0xf0 build/Board2/production/_ext/794052624/drv_usart_static.o
 .text.DRV_USART0_LineControlSet
                0x00000000       0x74 build/Board2/production/_ext/794052624/drv_usart_static.o
 .text          0x00000000        0x0 build/Board2/production/_ext/794052624/drv_usart_static_byte_model.o
 .data          0x00000000        0x0 build/Board2/production/_ext/794052624/drv_usart_static_byte_model.o
 .bss           0x00000000        0x0 build/Board2/production/_ext/794052624/drv_usart_static_byte_model.o
 .reginfo       0x00000000       0x18 build/Board2/production/_ext/794052624/drv_usart_static_byte_model.o
 .text.DRV_USART0_ReadByte
                0x00000000       0x50 build/Board2/production/_ext/794052624/drv_usart_static_byte_model.o
 .text.DRV_USART0_WriteByte
                0x00000000       0x50 build/Board2/production/_ext/794052624/drv_usart_static_byte_model.o
 .text.DRV_USART0_ReceiverBufferSizeGet
                0x00000000        0x8 build/Board2/production/_ext/794052624/drv_usart_static_byte_model.o
 .text.DRV_USART0_TransmitBufferSizeGet
                0x00000000        0x8 build/Board2/production/_ext/794052624/drv_usart_static_byte_model.o
 .text.DRV_USART0_ReceiverBufferIsEmpty
                0x00000000       0x18 build/Board2/production/_ext/794052624/drv_usart_static_byte_model.o
 .text.DRV_USART0_TransmitBufferIsFull
                0x00000000       0x14 build/Board2/production/_ext/794052624/drv_usart_static_byte_model.o
 .text          0x00000000        0x0 build/Board2/production/_ext/697674732/sys_clk_pic32mx.o
 .data          0x00000000        0x0 build/Board2/production/_ext/697674732/sys_clk_pic32mx.o
 .bss           0x00000000        0x0 build/Board2/production/_ext/697674732/sys_clk_pic32mx.o
 .reginfo       0x00000000       0x18 build/Board2/production/_ext/697674732/sys_clk_pic32mx.o
 .text.SYS_CLK_ReferenceFrequencyGet
                0x00000000        0x8 build/Board2/production/_ext/697674732/sys_clk_pic32mx.o
 .text.SYS_CLK_SecondaryOscillatorEnable
                0x00000000       0x48 build/Board2/production/_ext/697674732/sys_clk_pic32mx.o
 .text.SYS_CLK_SecondaryOscillatorDisable
                0x00000000       0x48 build/Board2/production/_ext/697674732/sys_clk_pic32mx.o
 .text.SYS_CLK_SecondaryOscillatorIsEnabled
                0x00000000       0x10 build/Board2/production/_ext/697674732/sys_clk_pic32mx.o
 .text          0x00000000        0x0 build/Board2/production/_ext/733479835/sys_devcon.o
 .data          0x00000000        0x0 build/Board2/production/_ext/733479835/sys_devcon.o
 .bss           0x00000000        0x0 build/Board2/production/_ext/733479835/sys_devcon.o
 .reginfo       0x00000000       0x18 build/Board2/production/_ext/733479835/sys_devcon.o
 .text.SYS_DEVCON_Reinitialize
                0x00000000       0x10 build/Board2/production/_ext/733479835/sys_devcon.o
 .text.SYS_DEVCON_Deinitialize
                0x00000000        0x8 build/Board2/production/_ext/733479835/sys_devcon.o
 .text.SYS_DEVCON_Status
                0x00000000        0x8 build/Board2/production/_ext/733479835/sys_devcon.o
 .text.SYS_DEVCON_Tasks
                0x00000000        0x8 build/Board2/production/_ext/733479835/sys_devcon.o
 .text.SYS_DEVCON_JTAGEnable
                0x00000000       0x18 build/Board2/production/_ext/733479835/sys_devcon.o
 .text.SYS_DEVCON_TraceEnable
                0x00000000       0x1c build/Board2/production/_ext/733479835/sys_devcon.o
 .text.SYS_DEVCON_TraceDisable
                0x00000000       0x18 build/Board2/production/_ext/733479835/sys_devcon.o
 .text.SYS_DEVCON_PowerModeEnter
                0x00000000       0x44 build/Board2/production/_ext/733479835/sys_devcon.o
 .text          0x00000000        0x0 build/Board2/production/_ext/733479835/sys_devcon_pic32mx.o
 .data          0x00000000        0x0 build/Board2/production/_ext/733479835/sys_devcon_pic32mx.o
 .bss           0x00000000        0x0 build/Board2/production/_ext/733479835/sys_devcon_pic32mx.o
 .reginfo       0x00000000       0x18 build/Board2/production/_ext/733479835/sys_devcon_pic32mx.o
 .text          0x00000000        0x0 build/Board2/production/_ext/1943101500/sys_ports_static.o
 .data          0x00000000        0x0 build/Board2/production/_ext/1943101500/sys_ports_static.o
 .bss           0x00000000        0x0 build/Board2/production/_ext/1943101500/sys_ports_static.o
 .reginfo       0x00000000       0x18 build/Board2/production/_ext/1943101500/sys_ports_static.o
 .text.SYS_PORTS_Read
                0x00000000       0x28 build/Board2/production/_ext/1943101500/sys_ports_static.o
 .text.SYS_PORTS_Write
                0x00000000       0x28 build/Board2/production/_ext/1943101500/sys_ports_static.o
 .text.SYS_PORTS_LatchedGet
                0x00000000        0x8 build/Board2/production/_ext/1943101500/sys_ports_static.o
 .text.SYS_PORTS_Set
                0x00000000       0x2c build/Board2/production/_ext/1943101500/sys_ports_static.o
 .text.SYS_PORTS_Clear
                0x00000000       0x28 build/Board2/production/_ext/1943101500/sys_ports_static.o
 .text.SYS_PORTS_DirectionSelect
                0x00000000       0x54 build/Board2/production/_ext/1943101500/sys_ports_static.o
 .text.SYS_PORTS_DirectionGet
                0x00000000       0x28 build/Board2/production/_ext/1943101500/sys_ports_static.o
 .text.SYS_PORTS_Toggle
                0x00000000       0x28 build/Board2/production/_ext/1943101500/sys_ports_static.o
 .text.SYS_PORTS_OpenDrainEnable
                0x00000000       0x28 build/Board2/production/_ext/1943101500/sys_ports_static.o
 .text.SYS_PORTS_OpenDrainDisable
                0x00000000       0x28 build/Board2/production/_ext/1943101500/sys_ports_static.o
 .text.SYS_PORTS_InterruptStatusGet
                0x00000000        0x8 build/Board2/production/_ext/1943101500/sys_ports_static.o
 .text.SYS_PORTS_ChangeNotificationGlobalEnable
                0x00000000       0x14 build/Board2/production/_ext/1943101500/sys_ports_static.o
 .text.SYS_PORTS_ChangeNotificationGlobalDisable
                0x00000000       0x14 build/Board2/production/_ext/1943101500/sys_ports_static.o
 .text.SYS_PORTS_GlobalChangeNotificationDisable
                0x00000000       0x14 build/Board2/production/_ext/1943101500/sys_ports_static.o
 .text.SYS_PORTS_ChangeNotificationEnable
                0x00000000       0x50 build/Board2/production/_ext/1943101500/sys_ports_static.o
 .text.SYS_PORTS_ChangeNotificationDisable
                0x00000000       0x18 build/Board2/production/_ext/1943101500/sys_ports_static.o
 .text.SYS_PORTS_ChangeNotificationInIdleModeEnable
                0x00000000       0x14 build/Board2/production/_ext/1943101500/sys_ports_static.o
 .text.SYS_PORTS_ChangeNotificationInIdleModeDisable
                0x00000000       0x14 build/Board2/production/_ext/1943101500/sys_ports_static.o
 .text.SYS_PORTS_ChangeNotificationPullUpEnable
                0x00000000       0x18 build/Board2/production/_ext/1943101500/sys_ports_static.o
 .text.SYS_PORTS_ChangeNotificationPullUpDisable
                0x00000000       0x18 build/Board2/production/_ext/1943101500/sys_ports_static.o
 .text.SYS_PORTS_PinModeSelect
                0x00000000       0x2c build/Board2/production/_ext/1943101500/sys_ports_static.o
 .text.SYS_PORTS_PinWrite
                0x00000000       0x60 build/Board2/production/_ext/1943101500/sys_ports_static.o
 .text.SYS_PORTS_PinLatchedGet
                0x00000000        0x8 build/Board2/production/_ext/1943101500/sys_ports_static.o
 .text.SYS_PORTS_PinRead
                0x00000000       0x2c build/Board2/production/_ext/1943101500/sys_ports_static.o
 .text.SYS_PORTS_PinToggle
                0x00000000       0x30 build/Board2/production/_ext/1943101500/sys_ports_static.o
 .text.SYS_PORTS_PinSet
                0x00000000       0x30 build/Board2/production/_ext/1943101500/sys_ports_static.o
 .text.SYS_PORTS_PinClear
                0x00000000       0x30 build/Board2/production/_ext/1943101500/sys_ports_static.o
 .text.SYS_PORTS_PinDirectionSelect
                0x00000000       0x60 build/Board2/production/_ext/1943101500/sys_ports_static.o
 .text.SYS_PORTS_PinOpenDrainEnable
                0x00000000       0x30 build/Board2/production/_ext/1943101500/sys_ports_static.o
 .text.SYS_PORTS_PinOpenDrainDisable
                0x00000000       0x30 build/Board2/production/_ext/1943101500/sys_ports_static.o
 .text.SYS_PORTS_PinPullUpEnable
                0x00000000        0x8 build/Board2/production/_ext/1943101500/sys_ports_static.o
 .text.SYS_PORTS_PinPullUpDisable
                0x00000000        0x8 build/Board2/production/_ext/1943101500/sys_ports_static.o
 .text.SYS_PORTS_PinPullDownEnable
                0x00000000        0x8 build/Board2/production/_ext/1943101500/sys_ports_static.o
 .text.SYS_PORTS_PinPullDownDisable
                0x00000000        0x8 build/Board2/production/_ext/1943101500/sys_ports_static.o
 .text.SYS_PORTS_InterruptEnable
                0x00000000        0x8 build/Board2/production/_ext/1943101500/sys_ports_static.o
 .text.SYS_PORTS_RemapInput
                0x00000000        0x8 build/Board2/production/_ext/1943101500/sys_ports_static.o
 .text.SYS_PORTS_RemapOutput
                0x00000000        0x8 build/Board2/production/_ext/1943101500/sys_ports_static.o
 .text          0x00000000        0x0 build/Board2/production/_ext/1445490755/system_init.o
 .data          0x00000000        0x0 build/Board2/production/_ext/1445490755/system_init.o
 .bss           0x00000000        0x0 build/Board2/production/_ext/1445490755/system_init.o
 .reginfo       0x00000000       0x18 build/Board2/production/_ext/1445490755/system_init.o
 .text          0x00000000        0x0 build/Board2/production/_ext/1445490755/system_interrupt.o
 .data          0x00000000        0x0 build/Board2/production/_ext/1445490755/system_interrupt.o
 .bss           0x00000000        0x0 build/Board2/production/_ext/1445490755/system_interrupt.o
 .reginfo       0x00000000       0x18 build/Board2/production/_ext/1445490755/system_interrupt.o
 .text          0x00000000        0x0 build/Board2/production/_ext/1445490755/system_exceptions.o
 .data          0x00000000        0x0 build/Board2/production/_ext/1445490755/system_exceptions.o
 .bss           0x00000000        0x0 build/Board2/production/_ext/1445490755/system_exceptions.o
 .reginfo       0x00000000       0x18 build/Board2/production/_ext/1445490755/system_exceptions.o
 .text          0x00000000        0x0 build/Board2/production/_ext/1445490755/system_tasks.o
 .data          0x00000000        0x0 build/Board2/production/_ext/1445490755/system_tasks.o
 .bss           0x00000000        0x0 build/Board2/production/_ext/1445490755/system_tasks.o
 .reginfo       0x00000000       0x18 build/Board2/production/_ext/1445490755/system_tasks.o
 .text          0x00000000        0x0 build/Board2/production/_ext/1445490755/system_interrupt_a.o
 .data          0x00000000        0x0 build/Board2/production/_ext/1445490755/system_interrupt_a.o
 .bss           0x00000000        0x0 build/Board2/production/_ext/1445490755/system_interrupt_a.o
 .reginfo       0x00000000       0x18 build/Board2/production/_ext/1445490755/system_interrupt_a.o
 .text          0x00000000        0x0 build/Board2/production/_ext/1445490755/rtos_hooks.o
 .data          0x00000000        0x0 build/Board2/production/_ext/1445490755/rtos_hooks.o
 .bss           0x00000000        0x0 build/Board2/production/_ext/1445490755/rtos_hooks.o
 .reginfo       0x00000000       0x18 build/Board2/production/_ext/1445490755/rtos_hooks.o
 .text          0x00000000        0x0 build/Board2/production/_ext/1360937237/game_app.o
 .data          0x00000000        0x0 build/Board2/production/_ext/1360937237/game_app.o
 .bss           0x00000000        0x0 build/Board2/production/_ext/1360937237/game_app.o
 .reginfo       0x00000000       0x18 build/Board2/production/_ext/1360937237/game_app.o
 .text          0x00000000        0x0 build/Board2/production/_ext/1360937237/wifi_app.o
 .data          0x00000000        0x0 build/Board2/production/_ext/1360937237/wifi_app.o
 .bss           0x00000000        0x0 build/Board2/production/_ext/1360937237/wifi_app.o
 .reginfo       0x00000000       0x18 build/Board2/production/_ext/1360937237/wifi_app.o
 .text          0x00000000        0x0 build/Board2/production/_ext/1360937237/main.o
 .data          0x00000000        0x0 build/Board2/production/_ext/1360937237/main.o
 .bss           0x00000000        0x0 build/Board2/production/_ext/1360937237/main.o
 .reginfo       0x00000000       0x18 build/Board2/production/_ext/1360937237/main.o
 .text          0x00000000        0x0 build/Board2/production/_ext/334398652/cJSON.o
 .bss           0x00000000       0x10 build/Board2/production/_ext/334398652/cJSON.o
 .reginfo       0x00000000       0x18 build/Board2/production/_ext/334398652/cJSON.o
 .text.get_array_item
                0x00000000       0x40 build/Board2/production/_ext/334398652/cJSON.o
 .text.create_reference
                0x00000000       0xd4 build/Board2/production/_ext/334398652/cJSON.o
 .text.cJSON_GetErrorPtr
                0x00000000       0x10 build/Board2/production/_ext/334398652/cJSON.o
 .text.cJSON_Version
                0x00000000       0x44 build/Board2/production/_ext/334398652/cJSON.o
 .text.cJSON_InitHooks
                0x00000000       0xb8 build/Board2/production/_ext/334398652/cJSON.o
 .text.cJSON_SetNumberHelper
                0x00000000       0x80 build/Board2/production/_ext/334398652/cJSON.o
 .text.cJSON_Print
                0x00000000       0x24 build/Board2/production/_ext/334398652/cJSON.o
 .text.cJSON_PrintBuffered
                0x00000000       0xe4 build/Board2/production/_ext/334398652/cJSON.o
 .text.cJSON_PrintPreallocated
                0x00000000       0x74 build/Board2/production/_ext/334398652/cJSON.o
 .text.cJSON_GetArraySize
                0x00000000       0x3c build/Board2/production/_ext/334398652/cJSON.o
 .text.cJSON_GetArrayItem
                0x00000000       0x30 build/Board2/production/_ext/334398652/cJSON.o
 .text.cJSON_GetObjectItemCaseSensitive
                0x00000000       0x1c build/Board2/production/_ext/334398652/cJSON.o
 .text.cJSON_HasObjectItem
                0x00000000       0x20 build/Board2/production/_ext/334398652/cJSON.o
 .text.cJSON_AddItemToArray
                0x00000000       0x1c build/Board2/production/_ext/334398652/cJSON.o
 .text.cJSON_AddItemToObjectCS
                0x00000000       0x28 build/Board2/production/_ext/334398652/cJSON.o
 .text.cJSON_AddItemReferenceToArray
                0x00000000       0x40 build/Board2/production/_ext/334398652/cJSON.o
 .text.cJSON_AddItemReferenceToObject
                0x00000000       0x64 build/Board2/production/_ext/334398652/cJSON.o
 .text.cJSON_DetachItemViaPointer
                0x00000000       0x6c build/Board2/production/_ext/334398652/cJSON.o
 .text.cJSON_DetachItemFromArray
                0x00000000       0x44 build/Board2/production/_ext/334398652/cJSON.o
 .text.cJSON_DeleteItemFromArray
                0x00000000       0x24 build/Board2/production/_ext/334398652/cJSON.o
 .text.cJSON_DetachItemFromObject
                0x00000000       0x30 build/Board2/production/_ext/334398652/cJSON.o
 .text.cJSON_DetachItemFromObjectCaseSensitive
                0x00000000       0x30 build/Board2/production/_ext/334398652/cJSON.o
 .text.cJSON_DeleteItemFromObject
                0x00000000       0x24 build/Board2/production/_ext/334398652/cJSON.o
 .text.cJSON_DeleteItemFromObjectCaseSensitive
                0x00000000       0x24 build/Board2/production/_ext/334398652/cJSON.o
 .text.cJSON_InsertItemInArray
                0x00000000       0x7c build/Board2/production/_ext/334398652/cJSON.o
 .text.cJSON_ReplaceItemViaPointer
                0x00000000       0x9c build/Board2/production/_ext/334398652/cJSON.o
 .text.cJSON_ReplaceItemInArray
                0x00000000       0x4c build/Board2/production/_ext/334398652/cJSON.o
 .text.cJSON_CreateNull
                0x00000000       0x2c build/Board2/production/_ext/334398652/cJSON.o
 .text.cJSON_AddNullToObject
                0x00000000       0x70 build/Board2/production/_ext/334398652/cJSON.o
 .text.cJSON_CreateTrue
                0x00000000       0x2c build/Board2/production/_ext/334398652/cJSON.o
 .text.cJSON_AddTrueToObject
                0x00000000       0x70 build/Board2/production/_ext/334398652/cJSON.o
 .text.cJSON_CreateFalse
                0x00000000       0x2c build/Board2/production/_ext/334398652/cJSON.o
 .text.cJSON_AddFalseToObject
                0x00000000       0x70 build/Board2/production/_ext/334398652/cJSON.o
 .text.cJSON_CreateBool
                0x00000000       0x40 build/Board2/production/_ext/334398652/cJSON.o
 .text.cJSON_AddBoolToObject
                0x00000000       0x74 build/Board2/production/_ext/334398652/cJSON.o
 .text.cJSON_AddNumberToObject
                0x00000000       0x74 build/Board2/production/_ext/334398652/cJSON.o
 .text.cJSON_AddStringToObject
                0x00000000       0x74 build/Board2/production/_ext/334398652/cJSON.o
 .text.cJSON_CreateStringReference
                0x00000000       0x3c build/Board2/production/_ext/334398652/cJSON.o
 .text.cJSON_CreateObjectReference
                0x00000000       0x3c build/Board2/production/_ext/334398652/cJSON.o
 .text.cJSON_CreateArrayReference
                0x00000000       0x3c build/Board2/production/_ext/334398652/cJSON.o
 .text.cJSON_CreateRaw
                0x00000000       0x74 build/Board2/production/_ext/334398652/cJSON.o
 .text.cJSON_AddRawToObject
                0x00000000       0x74 build/Board2/production/_ext/334398652/cJSON.o
 .text.cJSON_CreateArray
                0x00000000       0x2c build/Board2/production/_ext/334398652/cJSON.o
 .text.cJSON_AddArrayToObject
                0x00000000       0x70 build/Board2/production/_ext/334398652/cJSON.o
 .text.cJSON_AddObjectToObject
                0x00000000       0x70 build/Board2/production/_ext/334398652/cJSON.o
 .text.cJSON_CreateIntArray
                0x00000000       0xe4 build/Board2/production/_ext/334398652/cJSON.o
 .text.cJSON_CreateFloatArray
                0x00000000       0xdc build/Board2/production/_ext/334398652/cJSON.o
 .text.cJSON_CreateDoubleArray
                0x00000000       0xdc build/Board2/production/_ext/334398652/cJSON.o
 .text.cJSON_CreateStringArray
                0x00000000       0xdc build/Board2/production/_ext/334398652/cJSON.o
 .text.cJSON_Duplicate
                0x00000000      0x128 build/Board2/production/_ext/334398652/cJSON.o
 .text.cJSON_Minify
                0x00000000      0x178 build/Board2/production/_ext/334398652/cJSON.o
 .text.cJSON_IsInvalid
                0x00000000       0x1c build/Board2/production/_ext/334398652/cJSON.o
 .text.cJSON_IsFalse
                0x00000000       0x20 build/Board2/production/_ext/334398652/cJSON.o
 .text.cJSON_IsTrue
                0x00000000       0x20 build/Board2/production/_ext/334398652/cJSON.o
 .text.cJSON_IsBool
                0x00000000       0x20 build/Board2/production/_ext/334398652/cJSON.o
 .text.cJSON_IsNull
                0x00000000       0x20 build/Board2/production/_ext/334398652/cJSON.o
 .text.cJSON_IsNumber
                0x00000000       0x20 build/Board2/production/_ext/334398652/cJSON.o
 .text.cJSON_IsString
                0x00000000       0x20 build/Board2/production/_ext/334398652/cJSON.o
 .text.cJSON_GetStringValue
                0x00000000       0x30 build/Board2/production/_ext/334398652/cJSON.o
 .text.cJSON_IsArray
                0x00000000       0x20 build/Board2/production/_ext/334398652/cJSON.o
 .text.cJSON_IsObject
                0x00000000       0x20 build/Board2/production/_ext/334398652/cJSON.o
 .text.cJSON_IsRaw
                0x00000000       0x20 build/Board2/production/_ext/334398652/cJSON.o
 .text.cJSON_Compare
                0x00000000      0x29c build/Board2/production/_ext/334398652/cJSON.o
 .text.cJSON_malloc
                0x00000000       0x24 build/Board2/production/_ext/334398652/cJSON.o
 .text.cJSON_free
                0x00000000       0x24 build/Board2/production/_ext/334398652/cJSON.o
 .text.replace_item_in_object
                0x00000000       0xc0 build/Board2/production/_ext/334398652/cJSON.o
 .text.cJSON_ReplaceItemInObject
                0x00000000       0x1c build/Board2/production/_ext/334398652/cJSON.o
 .text.cJSON_ReplaceItemInObjectCaseSensitive
                0x00000000       0x1c build/Board2/production/_ext/334398652/cJSON.o
 .text          0x00000000        0x0 build/Board2/production/_ext/334398652/debug.o
 .data          0x00000000        0x0 build/Board2/production/_ext/334398652/debug.o
 .bss           0x00000000        0x0 build/Board2/production/_ext/334398652/debug.o
 .reginfo       0x00000000       0x18 build/Board2/production/_ext/334398652/debug.o
 .text.dbgUARTVal
                0x00000000        0x8 build/Board2/production/_ext/334398652/debug.o
 .text          0x00000000        0x0 build/Board2/production/_ext/334398652/http.o
 .data          0x00000000        0x0 build/Board2/production/_ext/334398652/http.o
 .reginfo       0x00000000       0x18 build/Board2/production/_ext/334398652/http.o
 .text.addChar  0x00000000       0x1c build/Board2/production/_ext/334398652/http.o
 .text          0x00000000        0x0 build/Board2/production/_ext/334398652/wifi_queue.o
 .data          0x00000000        0x0 build/Board2/production/_ext/334398652/wifi_queue.o
 .bss           0x00000000        0x0 build/Board2/production/_ext/334398652/wifi_queue.o
 .reginfo       0x00000000       0x18 build/Board2/production/_ext/334398652/wifi_queue.o
 .text          0x00000000        0x0 build/Board2/production/_ext/334398652/wifi_state.o
 .data          0x00000000        0x0 build/Board2/production/_ext/334398652/wifi_state.o
 .reginfo       0x00000000       0x18 build/Board2/production/_ext/334398652/wifi_state.o
 .text          0x00000000        0x0 build/Board2/production/_ext/334398652/wifi_timer.o
 .data          0x00000000        0x0 build/Board2/production/_ext/334398652/wifi_timer.o
 .bss           0x00000000        0x0 build/Board2/production/_ext/334398652/wifi_timer.o
 .reginfo       0x00000000       0x18 build/Board2/production/_ext/334398652/wifi_timer.o
 .text          0x00000000        0x0 build/Board2/production/_ext/334398652/game_queue.o
 .data          0x00000000        0x0 build/Board2/production/_ext/334398652/game_queue.o
 .bss           0x00000000        0x0 build/Board2/production/_ext/334398652/game_queue.o
 .reginfo       0x00000000       0x18 build/Board2/production/_ext/334398652/game_queue.o
 .text.pushGameQueueFromISR
                0x00000000       0x58 build/Board2/production/_ext/334398652/game_queue.o
 .text          0x00000000        0x0 build/Board2/production/_ext/334398652/game_state.o
 .data          0x00000000        0x0 build/Board2/production/_ext/334398652/game_state.o
 .bss           0x00000000        0x0 build/Board2/production/_ext/334398652/game_state.o
 .reginfo       0x00000000       0x18 build/Board2/production/_ext/334398652/game_state.o
 .text          0x00000000        0x0 build/Board2/production/_ext/334398652/game_timer.o
 .data          0x00000000        0x0 build/Board2/production/_ext/334398652/game_timer.o
 .bss           0x00000000        0x0 build/Board2/production/_ext/334398652/game_timer.o
 .reginfo       0x00000000       0x18 build/Board2/production/_ext/334398652/game_timer.o
 .text.Game_LEDTimer_Stop
                0x00000000       0x2c build/Board2/production/_ext/334398652/game_timer.o
 .text.Game_ReqTimer_Stop
                0x00000000       0x34 build/Board2/production/_ext/334398652/game_timer.o
 .text          0x00000000        0x0 build/Board2/production/_ext/1043444669/osal_freertos.o
 .data          0x00000000        0x0 build/Board2/production/_ext/1043444669/osal_freertos.o
 .bss           0x00000000        0x0 build/Board2/production/_ext/1043444669/osal_freertos.o
 .reginfo       0x00000000       0x18 build/Board2/production/_ext/1043444669/osal_freertos.o
 .text.OSAL_CRIT_Enter
                0x00000000       0x48 build/Board2/production/_ext/1043444669/osal_freertos.o
 .text.OSAL_CRIT_Leave
                0x00000000       0x44 build/Board2/production/_ext/1043444669/osal_freertos.o
 .text.OSAL_SEM_Create
                0x00000000       0x8c build/Board2/production/_ext/1043444669/osal_freertos.o
 .text.OSAL_SEM_Delete
                0x00000000       0x30 build/Board2/production/_ext/1043444669/osal_freertos.o
 .text.OSAL_SEM_Pend
                0x00000000       0x38 build/Board2/production/_ext/1043444669/osal_freertos.o
 .text.OSAL_SEM_Post
                0x00000000       0x30 build/Board2/production/_ext/1043444669/osal_freertos.o
 .text.OSAL_SEM_PostISR
                0x00000000       0x4c build/Board2/production/_ext/1043444669/osal_freertos.o
 .text.OSAL_SEM_GetCount
                0x00000000       0x2c build/Board2/production/_ext/1043444669/osal_freertos.o
 .text.OSAL_MUTEX_Delete
                0x00000000       0x3c build/Board2/production/_ext/1043444669/osal_freertos.o
 .text.OSAL_MUTEX_Lock
                0x00000000       0x38 build/Board2/production/_ext/1043444669/osal_freertos.o
 .text.OSAL_MUTEX_Unlock
                0x00000000       0x30 build/Board2/production/_ext/1043444669/osal_freertos.o
 .rodata        0x00000000        0xc build/Board2/production/_ext/1043444669/osal_freertos.o
 .text.OSAL_Name
                0x00000000        0xc build/Board2/production/_ext/1043444669/osal_freertos.o
 .text.OSAL_Initialize
                0x00000000        0x8 build/Board2/production/_ext/1043444669/osal_freertos.o
 .text          0x00000000        0x0 build/Board2/production/_ext/249303043/sys_int_pic32.o
 .data          0x00000000        0x0 build/Board2/production/_ext/249303043/sys_int_pic32.o
 .bss           0x00000000        0x0 build/Board2/production/_ext/249303043/sys_int_pic32.o
 .reginfo       0x00000000       0x18 build/Board2/production/_ext/249303043/sys_int_pic32.o
 .text.SYS_INT_StatusGetAndDisable
                0x00000000       0x1c build/Board2/production/_ext/249303043/sys_int_pic32.o
 .text.SYS_INT_StatusRestore
                0x00000000       0x1c build/Board2/production/_ext/249303043/sys_int_pic32.o
 .text.SYS_INT_SourceDisable
                0x00000000       0x54 build/Board2/production/_ext/249303043/sys_int_pic32.o
 .text.SYS_INT_ExternalInterruptTriggerSet
                0x00000000       0x28 build/Board2/production/_ext/249303043/sys_int_pic32.o
 .text          0x00000000        0x0 build/Board2/production/_ext/905643201/heap_2.o
 .data          0x00000000        0x0 build/Board2/production/_ext/905643201/heap_2.o
 .reginfo       0x00000000       0x18 build/Board2/production/_ext/905643201/heap_2.o
 .text.xPortGetFreeHeapSize
                0x00000000        0x8 build/Board2/production/_ext/905643201/heap_2.o
 .text.vPortInitialiseBlocks
                0x00000000        0x8 build/Board2/production/_ext/905643201/heap_2.o
 .text          0x00000000        0x0 build/Board2/production/_ext/331515796/port.o
 .data          0x00000000        0x0 build/Board2/production/_ext/331515796/port.o
 .reginfo       0x00000000       0x18 build/Board2/production/_ext/331515796/port.o
 .text.vPortEndScheduler
                0x00000000        0x8 build/Board2/production/_ext/331515796/port.o
 .data          0x00000000        0x0 build/Board2/production/_ext/331515796/port_asm.o
 .bss           0x00000000        0x0 build/Board2/production/_ext/331515796/port_asm.o
 .reginfo       0x00000000       0x18 build/Board2/production/_ext/331515796/port_asm.o
 .text          0x00000000        0x0 build/Board2/production/_ext/1539584926/croutine.o
 .data          0x00000000        0x0 build/Board2/production/_ext/1539584926/croutine.o
 .bss           0x00000000        0x0 build/Board2/production/_ext/1539584926/croutine.o
 .reginfo       0x00000000       0x18 build/Board2/production/_ext/1539584926/croutine.o
 .text          0x00000000        0x0 build/Board2/production/_ext/1539584926/list.o
 .data          0x00000000        0x0 build/Board2/production/_ext/1539584926/list.o
 .bss           0x00000000        0x0 build/Board2/production/_ext/1539584926/list.o
 .reginfo       0x00000000       0x18 build/Board2/production/_ext/1539584926/list.o
 .text          0x00000000        0x0 build/Board2/production/_ext/1539584926/queue.o
 .data          0x00000000        0x0 build/Board2/production/_ext/1539584926/queue.o
 .bss           0x00000000        0x0 build/Board2/production/_ext/1539584926/queue.o
 .reginfo       0x00000000       0x18 build/Board2/production/_ext/1539584926/queue.o
 .text.xQueueCreateCountingSemaphore
                0x00000000       0x34 build/Board2/production/_ext/1539584926/queue.o
 .text.xQueueGiveFromISR
                0x00000000       0xc0 build/Board2/production/_ext/1539584926/queue.o
 .text.xQueueSemaphoreTake
                0x00000000      0x22c build/Board2/production/_ext/1539584926/queue.o
 .text.xQueuePeek
                0x00000000      0x1b8 build/Board2/production/_ext/1539584926/queue.o
 .text.uxQueueMessagesWaiting
                0x00000000       0x34 build/Board2/production/_ext/1539584926/queue.o
 .text.uxQueueSpacesAvailable
                0x00000000       0x38 build/Board2/production/_ext/1539584926/queue.o
 .text.uxQueueMessagesWaitingFromISR
                0x00000000        0xc build/Board2/production/_ext/1539584926/queue.o
 .text.vQueueDelete
                0x00000000       0x1c build/Board2/production/_ext/1539584926/queue.o
 .text.xQueueIsQueueEmptyFromISR
                0x00000000        0xc build/Board2/production/_ext/1539584926/queue.o
 .text.xQueueIsQueueFullFromISR
                0x00000000       0x14 build/Board2/production/_ext/1539584926/queue.o
 .text          0x00000000        0x0 build/Board2/production/_ext/1539584926/tasks.o
 .data          0x00000000        0x0 build/Board2/production/_ext/1539584926/tasks.o
 .reginfo       0x00000000       0x18 build/Board2/production/_ext/1539584926/tasks.o
 .text.prvTaskIsTaskSuspended
                0x00000000       0x38 build/Board2/production/_ext/1539584926/tasks.o
 .text.uxTaskPriorityGetFromISR
                0x00000000       0x3c build/Board2/production/_ext/1539584926/tasks.o
 .text.xTaskResumeFromISR
                0x00000000       0xd8 build/Board2/production/_ext/1539584926/tasks.o
 .text.vTaskEndScheduler
                0x00000000       0x34 build/Board2/production/_ext/1539584926/tasks.o
 .text.xTaskGetTickCountFromISR
                0x00000000        0xc build/Board2/production/_ext/1539584926/tasks.o
 .text.uxTaskGetNumberOfTasks
                0x00000000        0xc build/Board2/production/_ext/1539584926/tasks.o
 .text.pcTaskGetName
                0x00000000       0x10 build/Board2/production/_ext/1539584926/tasks.o
 .text.vTaskPlaceOnUnorderedEventList
                0x00000000       0x48 build/Board2/production/_ext/1539584926/tasks.o
 .text.vTaskRemoveFromUnorderedEventList
                0x00000000       0x98 build/Board2/production/_ext/1539584926/tasks.o
 .text.xTaskGetCurrentTaskHandle
                0x00000000        0xc build/Board2/production/_ext/1539584926/tasks.o
 .text.xTaskPriorityInherit
                0x00000000      0x14c build/Board2/production/_ext/1539584926/tasks.o
 .text.vTaskPriorityDisinheritAfterTimeout
                0x00000000      0x114 build/Board2/production/_ext/1539584926/tasks.o
 .text.vTaskDelete
                0x00000000      0x128 build/Board2/production/_ext/1539584926/tasks.o
 .text.uxTaskPriorityGet
                0x00000000       0x38 build/Board2/production/_ext/1539584926/tasks.o
 .text.vTaskPrioritySet
                0x00000000      0x15c build/Board2/production/_ext/1539584926/tasks.o
 .text.vTaskSuspend
                0x00000000      0x140 build/Board2/production/_ext/1539584926/tasks.o
 .text.vTaskResume
                0x00000000       0xc0 build/Board2/production/_ext/1539584926/tasks.o
 .text.vTaskDelayUntil
                0x00000000       0xa8 build/Board2/production/_ext/1539584926/tasks.o
 .text.vTaskDelay
                0x00000000       0x58 build/Board2/production/_ext/1539584926/tasks.o
 .text.vTaskSetTimeOutState
                0x00000000       0x38 build/Board2/production/_ext/1539584926/tasks.o
 .text.uxTaskResetEventItemValue
                0x00000000       0x24 build/Board2/production/_ext/1539584926/tasks.o
 .text.pvTaskIncrementMutexHeldCount
                0x00000000       0x28 build/Board2/production/_ext/1539584926/tasks.o
 .text.ulTaskNotifyTake
                0x00000000       0xc4 build/Board2/production/_ext/1539584926/tasks.o
 .text.xTaskNotifyWait
                0x00000000      0x108 build/Board2/production/_ext/1539584926/tasks.o
 .text.xTaskGenericNotify
                0x00000000      0x170 build/Board2/production/_ext/1539584926/tasks.o
 .text.xTaskGenericNotifyFromISR
                0x00000000      0x1a8 build/Board2/production/_ext/1539584926/tasks.o
 .text.vTaskNotifyGiveFromISR
                0x00000000      0x104 build/Board2/production/_ext/1539584926/tasks.o
 .text.xTaskNotifyStateClear
                0x00000000       0x60 build/Board2/production/_ext/1539584926/tasks.o
 .text          0x00000000        0x0 build/Board2/production/_ext/1539584926/timers.o
 .data          0x00000000        0x0 build/Board2/production/_ext/1539584926/timers.o
 .reginfo       0x00000000       0x18 build/Board2/production/_ext/1539584926/timers.o
 .text.xTimerGetTimerDaemonTaskHandle
                0x00000000        0x8 build/Board2/production/_ext/1539584926/timers.o
 .text.xTimerGetPeriod
                0x00000000        0x8 build/Board2/production/_ext/1539584926/timers.o
 .text.xTimerGetExpiryTime
                0x00000000        0x8 build/Board2/production/_ext/1539584926/timers.o
 .text.pcTimerGetName
                0x00000000        0x8 build/Board2/production/_ext/1539584926/timers.o
 .text.xTimerIsTimerActive
                0x00000000       0x34 build/Board2/production/_ext/1539584926/timers.o
 .text.pvTimerGetTimerID
                0x00000000       0x30 build/Board2/production/_ext/1539584926/timers.o
 .text.vTimerSetTimerID
                0x00000000       0x38 build/Board2/production/_ext/1539584926/timers.o
 .text          0x00000000        0x0 build/Board2/production/_ext/1539584926/event_groups.o
 .data          0x00000000        0x0 build/Board2/production/_ext/1539584926/event_groups.o
 .bss           0x00000000        0x0 build/Board2/production/_ext/1539584926/event_groups.o
 .reginfo       0x00000000       0x18 build/Board2/production/_ext/1539584926/event_groups.o
 .text.xEventGroupCreate
                0x00000000       0x3c build/Board2/production/_ext/1539584926/event_groups.o
 .text.xEventGroupWaitBits
                0x00000000      0x148 build/Board2/production/_ext/1539584926/event_groups.o
 .text.xEventGroupClearBits
                0x00000000       0x50 build/Board2/production/_ext/1539584926/event_groups.o
 .text.xEventGroupGetBitsFromISR
                0x00000000       0x34 build/Board2/production/_ext/1539584926/event_groups.o
 .text.xEventGroupSetBits
                0x00000000       0xfc build/Board2/production/_ext/1539584926/event_groups.o
 .text.xEventGroupSync
                0x00000000      0x110 build/Board2/production/_ext/1539584926/event_groups.o
 .text.vEventGroupDelete
                0x00000000       0x58 build/Board2/production/_ext/1539584926/event_groups.o
 .text.vEventGroupSetBitsCallback
                0x00000000       0x1c build/Board2/production/_ext/1539584926/event_groups.o
 .text.vEventGroupClearBitsCallback
                0x00000000       0x1c build/Board2/production/_ext/1539584926/event_groups.o
 .text          0x00000000        0x0 build/Board2/production/_ext/1539584926/stream_buffer.o
 .data          0x00000000        0x0 build/Board2/production/_ext/1539584926/stream_buffer.o
 .bss           0x00000000        0x0 build/Board2/production/_ext/1539584926/stream_buffer.o
 .reginfo       0x00000000       0x18 build/Board2/production/_ext/1539584926/stream_buffer.o
 .text.prvBytesInBuffer
                0x00000000       0x28 build/Board2/production/_ext/1539584926/stream_buffer.o
 .text.prvWriteBytesToBuffer
                0x00000000       0xa4 build/Board2/production/_ext/1539584926/stream_buffer.o
 .text.prvWriteMessageToBuffer
                0x00000000       0x80 build/Board2/production/_ext/1539584926/stream_buffer.o
 .text.prvReadBytesFromBuffer
                0x00000000       0xb4 build/Board2/production/_ext/1539584926/stream_buffer.o
 .text.prvReadMessageFromBuffer
                0x00000000       0xa0 build/Board2/production/_ext/1539584926/stream_buffer.o
 .text.xStreamBufferGenericCreate
                0x00000000       0x8c build/Board2/production/_ext/1539584926/stream_buffer.o
 .text.vStreamBufferDelete
                0x00000000       0x40 build/Board2/production/_ext/1539584926/stream_buffer.o
 .text.xStreamBufferReset
                0x00000000       0x9c build/Board2/production/_ext/1539584926/stream_buffer.o
 .text.xStreamBufferSetTriggerLevel
                0x00000000       0x28 build/Board2/production/_ext/1539584926/stream_buffer.o
 .text.xStreamBufferSpacesAvailable
                0x00000000       0x2c build/Board2/production/_ext/1539584926/stream_buffer.o
 .text.xStreamBufferBytesAvailable
                0x00000000       0x1c build/Board2/production/_ext/1539584926/stream_buffer.o
 .text.xStreamBufferSend
                0x00000000      0x16c build/Board2/production/_ext/1539584926/stream_buffer.o
 .text.xStreamBufferSendFromISR
                0x00000000       0xdc build/Board2/production/_ext/1539584926/stream_buffer.o
 .text.xStreamBufferReceive
                0x00000000      0x158 build/Board2/production/_ext/1539584926/stream_buffer.o
 .text.xStreamBufferReceiveFromISR
                0x00000000       0xd8 build/Board2/production/_ext/1539584926/stream_buffer.o
 .text.xStreamBufferIsEmpty
                0x00000000       0x14 build/Board2/production/_ext/1539584926/stream_buffer.o
 .text.xStreamBufferIsFull
                0x00000000       0x3c build/Board2/production/_ext/1539584926/stream_buffer.o
 .text.xStreamBufferSendCompletedFromISR
                0x00000000       0x74 build/Board2/production/_ext/1539584926/stream_buffer.o
 .text.xStreamBufferReceiveCompletedFromISR
                0x00000000       0x74 build/Board2/production/_ext/1539584926/stream_buffer.o
 .text          0x00000000        0x0 /var/folders/d5/v4194pgj4rldzq4h08l7349w0000gn/T//ccciZ2NH.o
 .data          0x00000000        0x0 /var/folders/d5/v4194pgj4rldzq4h08l7349w0000gn/T//ccciZ2NH.o
 .bss           0x00000000        0x0 /var/folders/d5/v4194pgj4rldzq4h08l7349w0000gn/T//ccciZ2NH.o
 .reginfo       0x00000000       0x18 /var/folders/d5/v4194pgj4rldzq4h08l7349w0000gn/T//ccciZ2NH.o
 .text          0x00000000        0x0 /var/folders/d5/v4194pgj4rldzq4h08l7349w0000gn/T//ccLSePJ3.o
 .data          0x00000000        0x0 /var/folders/d5/v4194pgj4rldzq4h08l7349w0000gn/T//ccLSePJ3.o
 .bss           0x00000000        0x0 /var/folders/d5/v4194pgj4rldzq4h08l7349w0000gn/T//ccLSePJ3.o
 .reginfo       0x00000000       0x18 /var/folders/d5/v4194pgj4rldzq4h08l7349w0000gn/T//ccLSePJ3.o
 .text          0x00000000        0x0 /var/folders/d5/v4194pgj4rldzq4h08l7349w0000gn/T//ccoXvRWj.o
 .data          0x00000000        0x0 /var/folders/d5/v4194pgj4rldzq4h08l7349w0000gn/T//ccoXvRWj.o
 .bss           0x00000000        0x0 /var/folders/d5/v4194pgj4rldzq4h08l7349w0000gn/T//ccoXvRWj.o
 .reginfo       0x00000000       0x18 /var/folders/d5/v4194pgj4rldzq4h08l7349w0000gn/T//ccoXvRWj.o
 .discard       0x00000000       0xd0 /var/folders/d5/v4194pgj4rldzq4h08l7349w0000gn/T//ccoXvRWj.o
 .text          0x00000000        0x0 /Applications/microchip/xc32/v2.15/bin/bin/../../lib/gcc/pic32mx/4.8.3/../../../../pic32mx/lib/./proc/32MX795F512L/default_isr_vectors.o
 .data          0x00000000        0x0 /Applications/microchip/xc32/v2.15/bin/bin/../../lib/gcc/pic32mx/4.8.3/../../../../pic32mx/lib/./proc/32MX795F512L/default_isr_vectors.o
 .bss           0x00000000        0x0 /Applications/microchip/xc32/v2.15/bin/bin/../../lib/gcc/pic32mx/4.8.3/../../../../pic32mx/lib/./proc/32MX795F512L/default_isr_vectors.o
 .reginfo       0x00000000       0x18 /Applications/microchip/xc32/v2.15/bin/bin/../../lib/gcc/pic32mx/4.8.3/../../../../pic32mx/lib/./proc/32MX795F512L/default_isr_vectors.o
 .discard       0x00000000       0xd0 /Applications/microchip/xc32/v2.15/bin/bin/../../lib/gcc/pic32mx/4.8.3/../../../../pic32mx/lib/./proc/32MX795F512L/default_isr_vectors.o
 .data          0x00000000        0x0 /Applications/microchip/xc32/v2.15/bin/bin/../../lib/gcc/pic32mx/4.8.3/../../../../pic32mx/lib/pic32_software_reset.o
 .bss           0x00000000        0x0 /Applications/microchip/xc32/v2.15/bin/bin/../../lib/gcc/pic32mx/4.8.3/../../../../pic32mx/lib/pic32_software_reset.o
 .reginfo       0x00000000       0x18 /Applications/microchip/xc32/v2.15/bin/bin/../../lib/gcc/pic32mx/4.8.3/../../../../pic32mx/lib/pic32_software_reset.o
 .text          0x00000000        0x0 /Applications/microchip/xc32/v2.15/bin/bin/../../lib/gcc/pic32mx/4.8.3/../../../../pic32mx/lib/./proc/32MX795F512L/processor.o
 .data          0x00000000        0x0 /Applications/microchip/xc32/v2.15/bin/bin/../../lib/gcc/pic32mx/4.8.3/../../../../pic32mx/lib/./proc/32MX795F512L/processor.o
 .bss           0x00000000        0x0 /Applications/microchip/xc32/v2.15/bin/bin/../../lib/gcc/pic32mx/4.8.3/../../../../pic32mx/lib/./proc/32MX795F512L/processor.o
 .reginfo       0x00000000       0x18 /Applications/microchip/xc32/v2.15/bin/bin/../../lib/gcc/pic32mx/4.8.3/../../../../pic32mx/lib/./proc/32MX795F512L/processor.o
 .data          0x00000000        0x0 /Applications/microchip/xc32/v2.15/bin/bin/../../lib/gcc/pic32mx/4.8.3/../../../../pic32mx/lib/libpic32.a(memcpy.o)
 .bss           0x00000000        0x0 /Applications/microchip/xc32/v2.15/bin/bin/../../lib/gcc/pic32mx/4.8.3/../../../../pic32mx/lib/libpic32.a(memcpy.o)
 .reginfo       0x00000000       0x18 /Applications/microchip/xc32/v2.15/bin/bin/../../lib/gcc/pic32mx/4.8.3/../../../../pic32mx/lib/libpic32.a(memcpy.o)
 .data          0x00000000        0x0 /Applications/microchip/xc32/v2.15/bin/bin/../../lib/gcc/pic32mx/4.8.3/../../../../pic32mx/lib/libpic32.a(memset.o)
 .bss           0x00000000        0x0 /Applications/microchip/xc32/v2.15/bin/bin/../../lib/gcc/pic32mx/4.8.3/../../../../pic32mx/lib/libpic32.a(memset.o)
 .reginfo       0x00000000       0x18 /Applications/microchip/xc32/v2.15/bin/bin/../../lib/gcc/pic32mx/4.8.3/../../../../pic32mx/lib/libpic32.a(memset.o)
 .data          0x00000000        0x0 /Applications/microchip/xc32/v2.15/bin/bin/../../lib/gcc/pic32mx/4.8.3/../../../../pic32mx/lib/libpic32.a(strcmp.o)
 .bss           0x00000000        0x0 /Applications/microchip/xc32/v2.15/bin/bin/../../lib/gcc/pic32mx/4.8.3/../../../../pic32mx/lib/libpic32.a(strcmp.o)
 .reginfo       0x00000000       0x18 /Applications/microchip/xc32/v2.15/bin/bin/../../lib/gcc/pic32mx/4.8.3/../../../../pic32mx/lib/libpic32.a(strcmp.o)
 .data          0x00000000        0x0 /Applications/microchip/xc32/v2.15/bin/bin/../../lib/gcc/pic32mx/4.8.3/../../../../pic32mx/lib/libpic32.a(strcpy.o)
 .bss           0x00000000        0x0 /Applications/microchip/xc32/v2.15/bin/bin/../../lib/gcc/pic32mx/4.8.3/../../../../pic32mx/lib/libpic32.a(strcpy.o)
 .reginfo       0x00000000       0x18 /Applications/microchip/xc32/v2.15/bin/bin/../../lib/gcc/pic32mx/4.8.3/../../../../pic32mx/lib/libpic32.a(strcpy.o)
 .data          0x00000000        0x0 /Applications/microchip/xc32/v2.15/bin/bin/../../lib/gcc/pic32mx/4.8.3/../../../../pic32mx/lib/libpic32.a(strlen.o)
 .bss           0x00000000        0x0 /Applications/microchip/xc32/v2.15/bin/bin/../../lib/gcc/pic32mx/4.8.3/../../../../pic32mx/lib/libpic32.a(strlen.o)
 .reginfo       0x00000000       0x18 /Applications/microchip/xc32/v2.15/bin/bin/../../lib/gcc/pic32mx/4.8.3/../../../../pic32mx/lib/libpic32.a(strlen.o)
 .text          0x00000000        0x0 /Applications/microchip/xc32/v2.15/bin/bin/../../lib/gcc/pic32mx/4.8.3/../../../../pic32mx/lib/libpic32.a(default-bootstrap-exception-handler.o)
 .data          0x00000000        0x0 /Applications/microchip/xc32/v2.15/bin/bin/../../lib/gcc/pic32mx/4.8.3/../../../../pic32mx/lib/libpic32.a(default-bootstrap-exception-handler.o)
 .bss           0x00000000        0x0 /Applications/microchip/xc32/v2.15/bin/bin/../../lib/gcc/pic32mx/4.8.3/../../../../pic32mx/lib/libpic32.a(default-bootstrap-exception-handler.o)
 .reginfo       0x00000000       0x18 /Applications/microchip/xc32/v2.15/bin/bin/../../lib/gcc/pic32mx/4.8.3/../../../../pic32mx/lib/libpic32.a(default-bootstrap-exception-handler.o)
 .text          0x00000000        0x0 /Applications/microchip/xc32/v2.15/bin/bin/../../lib/gcc/pic32mx/4.8.3/../../../../pic32mx/lib/libpic32.a(default-on-reset.o)
 .data          0x00000000        0x0 /Applications/microchip/xc32/v2.15/bin/bin/../../lib/gcc/pic32mx/4.8.3/../../../../pic32mx/lib/libpic32.a(default-on-reset.o)
 .bss           0x00000000        0x0 /Applications/microchip/xc32/v2.15/bin/bin/../../lib/gcc/pic32mx/4.8.3/../../../../pic32mx/lib/libpic32.a(default-on-reset.o)
 .reginfo       0x00000000       0x18 /Applications/microchip/xc32/v2.15/bin/bin/../../lib/gcc/pic32mx/4.8.3/../../../../pic32mx/lib/libpic32.a(default-on-reset.o)
 .text          0x00000000        0x0 /Applications/microchip/xc32/v2.15/bin/bin/../../lib/gcc/pic32mx/4.8.3/../../../../pic32mx/lib/libpic32.a(default-on-bootstrap.o)
 .data          0x00000000        0x0 /Applications/microchip/xc32/v2.15/bin/bin/../../lib/gcc/pic32mx/4.8.3/../../../../pic32mx/lib/libpic32.a(default-on-bootstrap.o)
 .bss           0x00000000        0x0 /Applications/microchip/xc32/v2.15/bin/bin/../../lib/gcc/pic32mx/4.8.3/../../../../pic32mx/lib/libpic32.a(default-on-bootstrap.o)
 .reginfo       0x00000000       0x18 /Applications/microchip/xc32/v2.15/bin/bin/../../lib/gcc/pic32mx/4.8.3/../../../../pic32mx/lib/libpic32.a(default-on-bootstrap.o)
 .data          0x00000000        0x0 /Applications/microchip/xc32/v2.15/bin/bin/../../lib/gcc/pic32mx/4.8.3/../../../../pic32mx/lib/libpic32.a(default-nmi-handler.o)
 .bss           0x00000000        0x0 /Applications/microchip/xc32/v2.15/bin/bin/../../lib/gcc/pic32mx/4.8.3/../../../../pic32mx/lib/libpic32.a(default-nmi-handler.o)
 .reginfo       0x00000000       0x18 /Applications/microchip/xc32/v2.15/bin/bin/../../lib/gcc/pic32mx/4.8.3/../../../../pic32mx/lib/libpic32.a(default-nmi-handler.o)
 .data          0x00000000        0x0 /Applications/microchip/xc32/v2.15/bin/bin/../../lib/gcc/pic32mx/4.8.3/../../../../pic32mx/lib/libpic32.a(pic32_data_init.o)
 .bss           0x00000000        0x0 /Applications/microchip/xc32/v2.15/bin/bin/../../lib/gcc/pic32mx/4.8.3/../../../../pic32mx/lib/libpic32.a(pic32_data_init.o)
 .reginfo       0x00000000       0x18 /Applications/microchip/xc32/v2.15/bin/bin/../../lib/gcc/pic32mx/4.8.3/../../../../pic32mx/lib/libpic32.a(pic32_data_init.o)
 .text          0x00000000        0x0 /Applications/microchip/xc32/v2.15/bin/bin/../../lib/gcc/pic32mx/4.8.3/../../../../pic32mx/lib/libpic32.a(general-exception.o)
 .data          0x00000000        0x0 /Applications/microchip/xc32/v2.15/bin/bin/../../lib/gcc/pic32mx/4.8.3/../../../../pic32mx/lib/libpic32.a(general-exception.o)
 .bss           0x00000000        0x0 /Applications/microchip/xc32/v2.15/bin/bin/../../lib/gcc/pic32mx/4.8.3/../../../../pic32mx/lib/libpic32.a(general-exception.o)
 .reginfo       0x00000000       0x18 /Applications/microchip/xc32/v2.15/bin/bin/../../lib/gcc/pic32mx/4.8.3/../../../../pic32mx/lib/libpic32.a(general-exception.o)
 .text          0x00000000        0x0 /Applications/microchip/xc32/v2.15/bin/bin/../../lib/gcc/pic32mx/4.8.3/../../../../pic32mx/lib/libpic32.a(vector0.o)
 .data          0x00000000        0x0 /Applications/microchip/xc32/v2.15/bin/bin/../../lib/gcc/pic32mx/4.8.3/../../../../pic32mx/lib/libpic32.a(vector0.o)
 .bss           0x00000000        0x0 /Applications/microchip/xc32/v2.15/bin/bin/../../lib/gcc/pic32mx/4.8.3/../../../../pic32mx/lib/libpic32.a(vector0.o)
 .reginfo       0x00000000       0x18 /Applications/microchip/xc32/v2.15/bin/bin/../../lib/gcc/pic32mx/4.8.3/../../../../pic32mx/lib/libpic32.a(vector0.o)
 .text          0x00000000        0x0 /Applications/microchip/xc32/v2.15/bin/bin/../../lib/gcc/pic32mx/4.8.3/../../../../pic32mx/lib/libpic32.a(vector2.o)
 .data          0x00000000        0x0 /Applications/microchip/xc32/v2.15/bin/bin/../../lib/gcc/pic32mx/4.8.3/../../../../pic32mx/lib/libpic32.a(vector2.o)
 .bss           0x00000000        0x0 /Applications/microchip/xc32/v2.15/bin/bin/../../lib/gcc/pic32mx/4.8.3/../../../../pic32mx/lib/libpic32.a(vector2.o)
 .reginfo       0x00000000       0x18 /Applications/microchip/xc32/v2.15/bin/bin/../../lib/gcc/pic32mx/4.8.3/../../../../pic32mx/lib/libpic32.a(vector2.o)
 .text          0x00000000        0x0 /Applications/microchip/xc32/v2.15/bin/bin/../../lib/gcc/pic32mx/4.8.3/../../../../pic32mx/lib/libpic32.a(vector3.o)
 .data          0x00000000        0x0 /Applications/microchip/xc32/v2.15/bin/bin/../../lib/gcc/pic32mx/4.8.3/../../../../pic32mx/lib/libpic32.a(vector3.o)
 .bss           0x00000000        0x0 /Applications/microchip/xc32/v2.15/bin/bin/../../lib/gcc/pic32mx/4.8.3/../../../../pic32mx/lib/libpic32.a(vector3.o)
 .reginfo       0x00000000       0x18 /Applications/microchip/xc32/v2.15/bin/bin/../../lib/gcc/pic32mx/4.8.3/../../../../pic32mx/lib/libpic32.a(vector3.o)
 .text          0x00000000        0x0 /Applications/microchip/xc32/v2.15/bin/bin/../../lib/gcc/pic32mx/4.8.3/../../../../pic32mx/lib/libpic32.a(vector5.o)
 .data          0x00000000        0x0 /Applications/microchip/xc32/v2.15/bin/bin/../../lib/gcc/pic32mx/4.8.3/../../../../pic32mx/lib/libpic32.a(vector5.o)
 .bss           0x00000000        0x0 /Applications/microchip/xc32/v2.15/bin/bin/../../lib/gcc/pic32mx/4.8.3/../../../../pic32mx/lib/libpic32.a(vector5.o)
 .reginfo       0x00000000       0x18 /Applications/microchip/xc32/v2.15/bin/bin/../../lib/gcc/pic32mx/4.8.3/../../../../pic32mx/lib/libpic32.a(vector5.o)
 .text          0x00000000        0x0 /Applications/microchip/xc32/v2.15/bin/bin/../../lib/gcc/pic32mx/4.8.3/../../../../pic32mx/lib/libpic32.a(vector6.o)
 .data          0x00000000        0x0 /Applications/microchip/xc32/v2.15/bin/bin/../../lib/gcc/pic32mx/4.8.3/../../../../pic32mx/lib/libpic32.a(vector6.o)
 .bss           0x00000000        0x0 /Applications/microchip/xc32/v2.15/bin/bin/../../lib/gcc/pic32mx/4.8.3/../../../../pic32mx/lib/libpic32.a(vector6.o)
 .reginfo       0x00000000       0x18 /Applications/microchip/xc32/v2.15/bin/bin/../../lib/gcc/pic32mx/4.8.3/../../../../pic32mx/lib/libpic32.a(vector6.o)
 .text          0x00000000        0x0 /Applications/microchip/xc32/v2.15/bin/bin/../../lib/gcc/pic32mx/4.8.3/../../../../pic32mx/lib/libpic32.a(vector7.o)
 .data          0x00000000        0x0 /Applications/microchip/xc32/v2.15/bin/bin/../../lib/gcc/pic32mx/4.8.3/../../../../pic32mx/lib/libpic32.a(vector7.o)
 .bss           0x00000000        0x0 /Applications/microchip/xc32/v2.15/bin/bin/../../lib/gcc/pic32mx/4.8.3/../../../../pic32mx/lib/libpic32.a(vector7.o)
 .reginfo       0x00000000       0x18 /Applications/microchip/xc32/v2.15/bin/bin/../../lib/gcc/pic32mx/4.8.3/../../../../pic32mx/lib/libpic32.a(vector7.o)
 .text          0x00000000        0x0 /Applications/microchip/xc32/v2.15/bin/bin/../../lib/gcc/pic32mx/4.8.3/../../../../pic32mx/lib/libpic32.a(vector9.o)
 .data          0x00000000        0x0 /Applications/microchip/xc32/v2.15/bin/bin/../../lib/gcc/pic32mx/4.8.3/../../../../pic32mx/lib/libpic32.a(vector9.o)
 .bss           0x00000000        0x0 /Applications/microchip/xc32/v2.15/bin/bin/../../lib/gcc/pic32mx/4.8.3/../../../../pic32mx/lib/libpic32.a(vector9.o)
 .reginfo       0x00000000       0x18 /Applications/microchip/xc32/v2.15/bin/bin/../../lib/gcc/pic32mx/4.8.3/../../../../pic32mx/lib/libpic32.a(vector9.o)
 .text          0x00000000        0x0 /Applications/microchip/xc32/v2.15/bin/bin/../../lib/gcc/pic32mx/4.8.3/../../../../pic32mx/lib/libpic32.a(vector10.o)
 .data          0x00000000        0x0 /Applications/microchip/xc32/v2.15/bin/bin/../../lib/gcc/pic32mx/4.8.3/../../../../pic32mx/lib/libpic32.a(vector10.o)
 .bss           0x00000000        0x0 /Applications/microchip/xc32/v2.15/bin/bin/../../lib/gcc/pic32mx/4.8.3/../../../../pic32mx/lib/libpic32.a(vector10.o)
 .reginfo       0x00000000       0x18 /Applications/microchip/xc32/v2.15/bin/bin/../../lib/gcc/pic32mx/4.8.3/../../../../pic32mx/lib/libpic32.a(vector10.o)
 .text          0x00000000        0x0 /Applications/microchip/xc32/v2.15/bin/bin/../../lib/gcc/pic32mx/4.8.3/../../../../pic32mx/lib/libpic32.a(vector11.o)
 .data          0x00000000        0x0 /Applications/microchip/xc32/v2.15/bin/bin/../../lib/gcc/pic32mx/4.8.3/../../../../pic32mx/lib/libpic32.a(vector11.o)
 .bss           0x00000000        0x0 /Applications/microchip/xc32/v2.15/bin/bin/../../lib/gcc/pic32mx/4.8.3/../../../../pic32mx/lib/libpic32.a(vector11.o)
 .reginfo       0x00000000       0x18 /Applications/microchip/xc32/v2.15/bin/bin/../../lib/gcc/pic32mx/4.8.3/../../../../pic32mx/lib/libpic32.a(vector11.o)
 .text          0x00000000        0x0 /Applications/microchip/xc32/v2.15/bin/bin/../../lib/gcc/pic32mx/4.8.3/../../../../pic32mx/lib/libpic32.a(vector13.o)
 .data          0x00000000        0x0 /Applications/microchip/xc32/v2.15/bin/bin/../../lib/gcc/pic32mx/4.8.3/../../../../pic32mx/lib/libpic32.a(vector13.o)
 .bss           0x00000000        0x0 /Applications/microchip/xc32/v2.15/bin/bin/../../lib/gcc/pic32mx/4.8.3/../../../../pic32mx/lib/libpic32.a(vector13.o)
 .reginfo       0x00000000       0x18 /Applications/microchip/xc32/v2.15/bin/bin/../../lib/gcc/pic32mx/4.8.3/../../../../pic32mx/lib/libpic32.a(vector13.o)
 .text          0x00000000        0x0 /Applications/microchip/xc32/v2.15/bin/bin/../../lib/gcc/pic32mx/4.8.3/../../../../pic32mx/lib/libpic32.a(vector14.o)
 .data          0x00000000        0x0 /Applications/microchip/xc32/v2.15/bin/bin/../../lib/gcc/pic32mx/4.8.3/../../../../pic32mx/lib/libpic32.a(vector14.o)
 .bss           0x00000000        0x0 /Applications/microchip/xc32/v2.15/bin/bin/../../lib/gcc/pic32mx/4.8.3/../../../../pic32mx/lib/libpic32.a(vector14.o)
 .reginfo       0x00000000       0x18 /Applications/microchip/xc32/v2.15/bin/bin/../../lib/gcc/pic32mx/4.8.3/../../../../pic32mx/lib/libpic32.a(vector14.o)
 .text          0x00000000        0x0 /Applications/microchip/xc32/v2.15/bin/bin/../../lib/gcc/pic32mx/4.8.3/../../../../pic32mx/lib/libpic32.a(vector15.o)
 .data          0x00000000        0x0 /Applications/microchip/xc32/v2.15/bin/bin/../../lib/gcc/pic32mx/4.8.3/../../../../pic32mx/lib/libpic32.a(vector15.o)
 .bss           0x00000000        0x0 /Applications/microchip/xc32/v2.15/bin/bin/../../lib/gcc/pic32mx/4.8.3/../../../../pic32mx/lib/libpic32.a(vector15.o)
 .reginfo       0x00000000       0x18 /Applications/microchip/xc32/v2.15/bin/bin/../../lib/gcc/pic32mx/4.8.3/../../../../pic32mx/lib/libpic32.a(vector15.o)
 .text          0x00000000        0x0 /Applications/microchip/xc32/v2.15/bin/bin/../../lib/gcc/pic32mx/4.8.3/../../../../pic32mx/lib/libpic32.a(vector16.o)
 .data          0x00000000        0x0 /Applications/microchip/xc32/v2.15/bin/bin/../../lib/gcc/pic32mx/4.8.3/../../../../pic32mx/lib/libpic32.a(vector16.o)
 .bss           0x00000000        0x0 /Applications/microchip/xc32/v2.15/bin/bin/../../lib/gcc/pic32mx/4.8.3/../../../../pic32mx/lib/libpic32.a(vector16.o)
 .reginfo       0x00000000       0x18 /Applications/microchip/xc32/v2.15/bin/bin/../../lib/gcc/pic32mx/4.8.3/../../../../pic32mx/lib/libpic32.a(vector16.o)
 .text          0x00000000        0x0 /Applications/microchip/xc32/v2.15/bin/bin/../../lib/gcc/pic32mx/4.8.3/../../../../pic32mx/lib/libpic32.a(vector17.o)
 .data          0x00000000        0x0 /Applications/microchip/xc32/v2.15/bin/bin/../../lib/gcc/pic32mx/4.8.3/../../../../pic32mx/lib/libpic32.a(vector17.o)
 .bss           0x00000000        0x0 /Applications/microchip/xc32/v2.15/bin/bin/../../lib/gcc/pic32mx/4.8.3/../../../../pic32mx/lib/libpic32.a(vector17.o)
 .reginfo       0x00000000       0x18 /Applications/microchip/xc32/v2.15/bin/bin/../../lib/gcc/pic32mx/4.8.3/../../../../pic32mx/lib/libpic32.a(vector17.o)
 .text          0x00000000        0x0 /Applications/microchip/xc32/v2.15/bin/bin/../../lib/gcc/pic32mx/4.8.3/../../../../pic32mx/lib/libpic32.a(vector18.o)
 .data          0x00000000        0x0 /Applications/microchip/xc32/v2.15/bin/bin/../../lib/gcc/pic32mx/4.8.3/../../../../pic32mx/lib/libpic32.a(vector18.o)
 .bss           0x00000000        0x0 /Applications/microchip/xc32/v2.15/bin/bin/../../lib/gcc/pic32mx/4.8.3/../../../../pic32mx/lib/libpic32.a(vector18.o)
 .reginfo       0x00000000       0x18 /Applications/microchip/xc32/v2.15/bin/bin/../../lib/gcc/pic32mx/4.8.3/../../../../pic32mx/lib/libpic32.a(vector18.o)
 .text          0x00000000        0x0 /Applications/microchip/xc32/v2.15/bin/bin/../../lib/gcc/pic32mx/4.8.3/../../../../pic32mx/lib/libpic32.a(vector19.o)
 .data          0x00000000        0x0 /Applications/microchip/xc32/v2.15/bin/bin/../../lib/gcc/pic32mx/4.8.3/../../../../pic32mx/lib/libpic32.a(vector19.o)
 .bss           0x00000000        0x0 /Applications/microchip/xc32/v2.15/bin/bin/../../lib/gcc/pic32mx/4.8.3/../../../../pic32mx/lib/libpic32.a(vector19.o)
 .reginfo       0x00000000       0x18 /Applications/microchip/xc32/v2.15/bin/bin/../../lib/gcc/pic32mx/4.8.3/../../../../pic32mx/lib/libpic32.a(vector19.o)
 .text          0x00000000        0x0 /Applications/microchip/xc32/v2.15/bin/bin/../../lib/gcc/pic32mx/4.8.3/../../../../pic32mx/lib/libpic32.a(vector21.o)
 .data          0x00000000        0x0 /Applications/microchip/xc32/v2.15/bin/bin/../../lib/gcc/pic32mx/4.8.3/../../../../pic32mx/lib/libpic32.a(vector21.o)
 .bss           0x00000000        0x0 /Applications/microchip/xc32/v2.15/bin/bin/../../lib/gcc/pic32mx/4.8.3/../../../../pic32mx/lib/libpic32.a(vector21.o)
 .reginfo       0x00000000       0x18 /Applications/microchip/xc32/v2.15/bin/bin/../../lib/gcc/pic32mx/4.8.3/../../../../pic32mx/lib/libpic32.a(vector21.o)
 .text          0x00000000        0x0 /Applications/microchip/xc32/v2.15/bin/bin/../../lib/gcc/pic32mx/4.8.3/../../../../pic32mx/lib/libpic32.a(vector22.o)
 .data          0x00000000        0x0 /Applications/microchip/xc32/v2.15/bin/bin/../../lib/gcc/pic32mx/4.8.3/../../../../pic32mx/lib/libpic32.a(vector22.o)
 .bss           0x00000000        0x0 /Applications/microchip/xc32/v2.15/bin/bin/../../lib/gcc/pic32mx/4.8.3/../../../../pic32mx/lib/libpic32.a(vector22.o)
 .reginfo       0x00000000       0x18 /Applications/microchip/xc32/v2.15/bin/bin/../../lib/gcc/pic32mx/4.8.3/../../../../pic32mx/lib/libpic32.a(vector22.o)
 .text          0x00000000        0x0 /Applications/microchip/xc32/v2.15/bin/bin/../../lib/gcc/pic32mx/4.8.3/../../../../pic32mx/lib/libpic32.a(vector23.o)
 .data          0x00000000        0x0 /Applications/microchip/xc32/v2.15/bin/bin/../../lib/gcc/pic32mx/4.8.3/../../../../pic32mx/lib/libpic32.a(vector23.o)
 .bss           0x00000000        0x0 /Applications/microchip/xc32/v2.15/bin/bin/../../lib/gcc/pic32mx/4.8.3/../../../../pic32mx/lib/libpic32.a(vector23.o)
 .reginfo       0x00000000       0x18 /Applications/microchip/xc32/v2.15/bin/bin/../../lib/gcc/pic32mx/4.8.3/../../../../pic32mx/lib/libpic32.a(vector23.o)
 .text          0x00000000        0x0 /Applications/microchip/xc32/v2.15/bin/bin/../../lib/gcc/pic32mx/4.8.3/../../../../pic32mx/lib/libpic32.a(vector25.o)
 .data          0x00000000        0x0 /Applications/microchip/xc32/v2.15/bin/bin/../../lib/gcc/pic32mx/4.8.3/../../../../pic32mx/lib/libpic32.a(vector25.o)
 .bss           0x00000000        0x0 /Applications/microchip/xc32/v2.15/bin/bin/../../lib/gcc/pic32mx/4.8.3/../../../../pic32mx/lib/libpic32.a(vector25.o)
 .reginfo       0x00000000       0x18 /Applications/microchip/xc32/v2.15/bin/bin/../../lib/gcc/pic32mx/4.8.3/../../../../pic32mx/lib/libpic32.a(vector25.o)
 .text          0x00000000        0x0 /Applications/microchip/xc32/v2.15/bin/bin/../../lib/gcc/pic32mx/4.8.3/../../../../pic32mx/lib/libpic32.a(vector26.o)
 .data          0x00000000        0x0 /Applications/microchip/xc32/v2.15/bin/bin/../../lib/gcc/pic32mx/4.8.3/../../../../pic32mx/lib/libpic32.a(vector26.o)
 .bss           0x00000000        0x0 /Applications/microchip/xc32/v2.15/bin/bin/../../lib/gcc/pic32mx/4.8.3/../../../../pic32mx/lib/libpic32.a(vector26.o)
 .reginfo       0x00000000       0x18 /Applications/microchip/xc32/v2.15/bin/bin/../../lib/gcc/pic32mx/4.8.3/../../../../pic32mx/lib/libpic32.a(vector26.o)
 .text          0x00000000        0x0 /Applications/microchip/xc32/v2.15/bin/bin/../../lib/gcc/pic32mx/4.8.3/../../../../pic32mx/lib/libpic32.a(vector27.o)
 .data          0x00000000        0x0 /Applications/microchip/xc32/v2.15/bin/bin/../../lib/gcc/pic32mx/4.8.3/../../../../pic32mx/lib/libpic32.a(vector27.o)
 .bss           0x00000000        0x0 /Applications/microchip/xc32/v2.15/bin/bin/../../lib/gcc/pic32mx/4.8.3/../../../../pic32mx/lib/libpic32.a(vector27.o)
 .reginfo       0x00000000       0x18 /Applications/microchip/xc32/v2.15/bin/bin/../../lib/gcc/pic32mx/4.8.3/../../../../pic32mx/lib/libpic32.a(vector27.o)
 .text          0x00000000        0x0 /Applications/microchip/xc32/v2.15/bin/bin/../../lib/gcc/pic32mx/4.8.3/../../../../pic32mx/lib/libpic32.a(vector28.o)
 .data          0x00000000        0x0 /Applications/microchip/xc32/v2.15/bin/bin/../../lib/gcc/pic32mx/4.8.3/../../../../pic32mx/lib/libpic32.a(vector28.o)
 .bss           0x00000000        0x0 /Applications/microchip/xc32/v2.15/bin/bin/../../lib/gcc/pic32mx/4.8.3/../../../../pic32mx/lib/libpic32.a(vector28.o)
 .reginfo       0x00000000       0x18 /Applications/microchip/xc32/v2.15/bin/bin/../../lib/gcc/pic32mx/4.8.3/../../../../pic32mx/lib/libpic32.a(vector28.o)
 .text          0x00000000        0x0 /Applications/microchip/xc32/v2.15/bin/bin/../../lib/gcc/pic32mx/4.8.3/../../../../pic32mx/lib/libpic32.a(vector29.o)
 .data          0x00000000        0x0 /Applications/microchip/xc32/v2.15/bin/bin/../../lib/gcc/pic32mx/4.8.3/../../../../pic32mx/lib/libpic32.a(vector29.o)
 .bss           0x00000000        0x0 /Applications/microchip/xc32/v2.15/bin/bin/../../lib/gcc/pic32mx/4.8.3/../../../../pic32mx/lib/libpic32.a(vector29.o)
 .reginfo       0x00000000       0x18 /Applications/microchip/xc32/v2.15/bin/bin/../../lib/gcc/pic32mx/4.8.3/../../../../pic32mx/lib/libpic32.a(vector29.o)
 .text          0x00000000        0x0 /Applications/microchip/xc32/v2.15/bin/bin/../../lib/gcc/pic32mx/4.8.3/../../../../pic32mx/lib/libpic32.a(vector30.o)
 .data          0x00000000        0x0 /Applications/microchip/xc32/v2.15/bin/bin/../../lib/gcc/pic32mx/4.8.3/../../../../pic32mx/lib/libpic32.a(vector30.o)
 .bss           0x00000000        0x0 /Applications/microchip/xc32/v2.15/bin/bin/../../lib/gcc/pic32mx/4.8.3/../../../../pic32mx/lib/libpic32.a(vector30.o)
 .reginfo       0x00000000       0x18 /Applications/microchip/xc32/v2.15/bin/bin/../../lib/gcc/pic32mx/4.8.3/../../../../pic32mx/lib/libpic32.a(vector30.o)
 .text          0x00000000        0x0 /Applications/microchip/xc32/v2.15/bin/bin/../../lib/gcc/pic32mx/4.8.3/../../../../pic32mx/lib/libpic32.a(vector31.o)
 .data          0x00000000        0x0 /Applications/microchip/xc32/v2.15/bin/bin/../../lib/gcc/pic32mx/4.8.3/../../../../pic32mx/lib/libpic32.a(vector31.o)
 .bss           0x00000000        0x0 /Applications/microchip/xc32/v2.15/bin/bin/../../lib/gcc/pic32mx/4.8.3/../../../../pic32mx/lib/libpic32.a(vector31.o)
 .reginfo       0x00000000       0x18 /Applications/microchip/xc32/v2.15/bin/bin/../../lib/gcc/pic32mx/4.8.3/../../../../pic32mx/lib/libpic32.a(vector31.o)
 .text          0x00000000        0x0 /Applications/microchip/xc32/v2.15/bin/bin/../../lib/gcc/pic32mx/4.8.3/../../../../pic32mx/lib/libpic32.a(vector32.o)
 .data          0x00000000        0x0 /Applications/microchip/xc32/v2.15/bin/bin/../../lib/gcc/pic32mx/4.8.3/../../../../pic32mx/lib/libpic32.a(vector32.o)
 .bss           0x00000000        0x0 /Applications/microchip/xc32/v2.15/bin/bin/../../lib/gcc/pic32mx/4.8.3/../../../../pic32mx/lib/libpic32.a(vector32.o)
 .reginfo       0x00000000       0x18 /Applications/microchip/xc32/v2.15/bin/bin/../../lib/gcc/pic32mx/4.8.3/../../../../pic32mx/lib/libpic32.a(vector32.o)
 .text          0x00000000        0x0 /Applications/microchip/xc32/v2.15/bin/bin/../../lib/gcc/pic32mx/4.8.3/../../../../pic32mx/lib/libpic32.a(vector33.o)
 .data          0x00000000        0x0 /Applications/microchip/xc32/v2.15/bin/bin/../../lib/gcc/pic32mx/4.8.3/../../../../pic32mx/lib/libpic32.a(vector33.o)
 .bss           0x00000000        0x0 /Applications/microchip/xc32/v2.15/bin/bin/../../lib/gcc/pic32mx/4.8.3/../../../../pic32mx/lib/libpic32.a(vector33.o)
 .reginfo       0x00000000       0x18 /Applications/microchip/xc32/v2.15/bin/bin/../../lib/gcc/pic32mx/4.8.3/../../../../pic32mx/lib/libpic32.a(vector33.o)
 .text          0x00000000        0x0 /Applications/microchip/xc32/v2.15/bin/bin/../../lib/gcc/pic32mx/4.8.3/../../../../pic32mx/lib/libpic32.a(vector34.o)
 .data          0x00000000        0x0 /Applications/microchip/xc32/v2.15/bin/bin/../../lib/gcc/pic32mx/4.8.3/../../../../pic32mx/lib/libpic32.a(vector34.o)
 .bss           0x00000000        0x0 /Applications/microchip/xc32/v2.15/bin/bin/../../lib/gcc/pic32mx/4.8.3/../../../../pic32mx/lib/libpic32.a(vector34.o)
 .reginfo       0x00000000       0x18 /Applications/microchip/xc32/v2.15/bin/bin/../../lib/gcc/pic32mx/4.8.3/../../../../pic32mx/lib/libpic32.a(vector34.o)
 .text          0x00000000        0x0 /Applications/microchip/xc32/v2.15/bin/bin/../../lib/gcc/pic32mx/4.8.3/../../../../pic32mx/lib/libpic32.a(vector35.o)
 .data          0x00000000        0x0 /Applications/microchip/xc32/v2.15/bin/bin/../../lib/gcc/pic32mx/4.8.3/../../../../pic32mx/lib/libpic32.a(vector35.o)
 .bss           0x00000000        0x0 /Applications/microchip/xc32/v2.15/bin/bin/../../lib/gcc/pic32mx/4.8.3/../../../../pic32mx/lib/libpic32.a(vector35.o)
 .reginfo       0x00000000       0x18 /Applications/microchip/xc32/v2.15/bin/bin/../../lib/gcc/pic32mx/4.8.3/../../../../pic32mx/lib/libpic32.a(vector35.o)
 .text          0x00000000        0x0 /Applications/microchip/xc32/v2.15/bin/bin/../../lib/gcc/pic32mx/4.8.3/../../../../pic32mx/lib/libpic32.a(vector36.o)
 .data          0x00000000        0x0 /Applications/microchip/xc32/v2.15/bin/bin/../../lib/gcc/pic32mx/4.8.3/../../../../pic32mx/lib/libpic32.a(vector36.o)
 .bss           0x00000000        0x0 /Applications/microchip/xc32/v2.15/bin/bin/../../lib/gcc/pic32mx/4.8.3/../../../../pic32mx/lib/libpic32.a(vector36.o)
 .reginfo       0x00000000       0x18 /Applications/microchip/xc32/v2.15/bin/bin/../../lib/gcc/pic32mx/4.8.3/../../../../pic32mx/lib/libpic32.a(vector36.o)
 .text          0x00000000        0x0 /Applications/microchip/xc32/v2.15/bin/bin/../../lib/gcc/pic32mx/4.8.3/../../../../pic32mx/lib/libpic32.a(vector37.o)
 .data          0x00000000        0x0 /Applications/microchip/xc32/v2.15/bin/bin/../../lib/gcc/pic32mx/4.8.3/../../../../pic32mx/lib/libpic32.a(vector37.o)
 .bss           0x00000000        0x0 /Applications/microchip/xc32/v2.15/bin/bin/../../lib/gcc/pic32mx/4.8.3/../../../../pic32mx/lib/libpic32.a(vector37.o)
 .reginfo       0x00000000       0x18 /Applications/microchip/xc32/v2.15/bin/bin/../../lib/gcc/pic32mx/4.8.3/../../../../pic32mx/lib/libpic32.a(vector37.o)
 .text          0x00000000        0x0 /Applications/microchip/xc32/v2.15/bin/bin/../../lib/gcc/pic32mx/4.8.3/../../../../pic32mx/lib/libpic32.a(vector38.o)
 .data          0x00000000        0x0 /Applications/microchip/xc32/v2.15/bin/bin/../../lib/gcc/pic32mx/4.8.3/../../../../pic32mx/lib/libpic32.a(vector38.o)
 .bss           0x00000000        0x0 /Applications/microchip/xc32/v2.15/bin/bin/../../lib/gcc/pic32mx/4.8.3/../../../../pic32mx/lib/libpic32.a(vector38.o)
 .reginfo       0x00000000       0x18 /Applications/microchip/xc32/v2.15/bin/bin/../../lib/gcc/pic32mx/4.8.3/../../../../pic32mx/lib/libpic32.a(vector38.o)
 .text          0x00000000        0x0 /Applications/microchip/xc32/v2.15/bin/bin/../../lib/gcc/pic32mx/4.8.3/../../../../pic32mx/lib/libpic32.a(vector39.o)
 .data          0x00000000        0x0 /Applications/microchip/xc32/v2.15/bin/bin/../../lib/gcc/pic32mx/4.8.3/../../../../pic32mx/lib/libpic32.a(vector39.o)
 .bss           0x00000000        0x0 /Applications/microchip/xc32/v2.15/bin/bin/../../lib/gcc/pic32mx/4.8.3/../../../../pic32mx/lib/libpic32.a(vector39.o)
 .reginfo       0x00000000       0x18 /Applications/microchip/xc32/v2.15/bin/bin/../../lib/gcc/pic32mx/4.8.3/../../../../pic32mx/lib/libpic32.a(vector39.o)
 .text          0x00000000        0x0 /Applications/microchip/xc32/v2.15/bin/bin/../../lib/gcc/pic32mx/4.8.3/../../../../pic32mx/lib/libpic32.a(vector40.o)
 .data          0x00000000        0x0 /Applications/microchip/xc32/v2.15/bin/bin/../../lib/gcc/pic32mx/4.8.3/../../../../pic32mx/lib/libpic32.a(vector40.o)
 .bss           0x00000000        0x0 /Applications/microchip/xc32/v2.15/bin/bin/../../lib/gcc/pic32mx/4.8.3/../../../../pic32mx/lib/libpic32.a(vector40.o)
 .reginfo       0x00000000       0x18 /Applications/microchip/xc32/v2.15/bin/bin/../../lib/gcc/pic32mx/4.8.3/../../../../pic32mx/lib/libpic32.a(vector40.o)
 .text          0x00000000        0x0 /Applications/microchip/xc32/v2.15/bin/bin/../../lib/gcc/pic32mx/4.8.3/../../../../pic32mx/lib/libpic32.a(vector41.o)
 .data          0x00000000        0x0 /Applications/microchip/xc32/v2.15/bin/bin/../../lib/gcc/pic32mx/4.8.3/../../../../pic32mx/lib/libpic32.a(vector41.o)
 .bss           0x00000000        0x0 /Applications/microchip/xc32/v2.15/bin/bin/../../lib/gcc/pic32mx/4.8.3/../../../../pic32mx/lib/libpic32.a(vector41.o)
 .reginfo       0x00000000       0x18 /Applications/microchip/xc32/v2.15/bin/bin/../../lib/gcc/pic32mx/4.8.3/../../../../pic32mx/lib/libpic32.a(vector41.o)
 .text          0x00000000        0x0 /Applications/microchip/xc32/v2.15/bin/bin/../../lib/gcc/pic32mx/4.8.3/../../../../pic32mx/lib/libpic32.a(vector42.o)
 .data          0x00000000        0x0 /Applications/microchip/xc32/v2.15/bin/bin/../../lib/gcc/pic32mx/4.8.3/../../../../pic32mx/lib/libpic32.a(vector42.o)
 .bss           0x00000000        0x0 /Applications/microchip/xc32/v2.15/bin/bin/../../lib/gcc/pic32mx/4.8.3/../../../../pic32mx/lib/libpic32.a(vector42.o)
 .reginfo       0x00000000       0x18 /Applications/microchip/xc32/v2.15/bin/bin/../../lib/gcc/pic32mx/4.8.3/../../../../pic32mx/lib/libpic32.a(vector42.o)
 .text          0x00000000        0x0 /Applications/microchip/xc32/v2.15/bin/bin/../../lib/gcc/pic32mx/4.8.3/../../../../pic32mx/lib/libpic32.a(vector43.o)
 .data          0x00000000        0x0 /Applications/microchip/xc32/v2.15/bin/bin/../../lib/gcc/pic32mx/4.8.3/../../../../pic32mx/lib/libpic32.a(vector43.o)
 .bss           0x00000000        0x0 /Applications/microchip/xc32/v2.15/bin/bin/../../lib/gcc/pic32mx/4.8.3/../../../../pic32mx/lib/libpic32.a(vector43.o)
 .reginfo       0x00000000       0x18 /Applications/microchip/xc32/v2.15/bin/bin/../../lib/gcc/pic32mx/4.8.3/../../../../pic32mx/lib/libpic32.a(vector43.o)
 .text          0x00000000        0x0 /Applications/microchip/xc32/v2.15/bin/bin/../../lib/gcc/pic32mx/4.8.3/../../../../pic32mx/lib/libpic32.a(vector44.o)
 .data          0x00000000        0x0 /Applications/microchip/xc32/v2.15/bin/bin/../../lib/gcc/pic32mx/4.8.3/../../../../pic32mx/lib/libpic32.a(vector44.o)
 .bss           0x00000000        0x0 /Applications/microchip/xc32/v2.15/bin/bin/../../lib/gcc/pic32mx/4.8.3/../../../../pic32mx/lib/libpic32.a(vector44.o)
 .reginfo       0x00000000       0x18 /Applications/microchip/xc32/v2.15/bin/bin/../../lib/gcc/pic32mx/4.8.3/../../../../pic32mx/lib/libpic32.a(vector44.o)
 .text          0x00000000        0x0 /Applications/microchip/xc32/v2.15/bin/bin/../../lib/gcc/pic32mx/4.8.3/../../../../pic32mx/lib/libpic32.a(vector45.o)
 .data          0x00000000        0x0 /Applications/microchip/xc32/v2.15/bin/bin/../../lib/gcc/pic32mx/4.8.3/../../../../pic32mx/lib/libpic32.a(vector45.o)
 .bss           0x00000000        0x0 /Applications/microchip/xc32/v2.15/bin/bin/../../lib/gcc/pic32mx/4.8.3/../../../../pic32mx/lib/libpic32.a(vector45.o)
 .reginfo       0x00000000       0x18 /Applications/microchip/xc32/v2.15/bin/bin/../../lib/gcc/pic32mx/4.8.3/../../../../pic32mx/lib/libpic32.a(vector45.o)
 .text          0x00000000        0x0 /Applications/microchip/xc32/v2.15/bin/bin/../../lib/gcc/pic32mx/4.8.3/../../../../pic32mx/lib/libpic32.a(vector46.o)
 .data          0x00000000        0x0 /Applications/microchip/xc32/v2.15/bin/bin/../../lib/gcc/pic32mx/4.8.3/../../../../pic32mx/lib/libpic32.a(vector46.o)
 .bss           0x00000000        0x0 /Applications/microchip/xc32/v2.15/bin/bin/../../lib/gcc/pic32mx/4.8.3/../../../../pic32mx/lib/libpic32.a(vector46.o)
 .reginfo       0x00000000       0x18 /Applications/microchip/xc32/v2.15/bin/bin/../../lib/gcc/pic32mx/4.8.3/../../../../pic32mx/lib/libpic32.a(vector46.o)
 .text          0x00000000        0x0 /Applications/microchip/xc32/v2.15/bin/bin/../../lib/gcc/pic32mx/4.8.3/../../../../pic32mx/lib/libpic32.a(vector47.o)
 .data          0x00000000        0x0 /Applications/microchip/xc32/v2.15/bin/bin/../../lib/gcc/pic32mx/4.8.3/../../../../pic32mx/lib/libpic32.a(vector47.o)
 .bss           0x00000000        0x0 /Applications/microchip/xc32/v2.15/bin/bin/../../lib/gcc/pic32mx/4.8.3/../../../../pic32mx/lib/libpic32.a(vector47.o)
 .reginfo       0x00000000       0x18 /Applications/microchip/xc32/v2.15/bin/bin/../../lib/gcc/pic32mx/4.8.3/../../../../pic32mx/lib/libpic32.a(vector47.o)
 .text          0x00000000        0x0 /Applications/microchip/xc32/v2.15/bin/bin/../../lib/gcc/pic32mx/4.8.3/../../../../pic32mx/lib/libpic32.a(vector48.o)
 .data          0x00000000        0x0 /Applications/microchip/xc32/v2.15/bin/bin/../../lib/gcc/pic32mx/4.8.3/../../../../pic32mx/lib/libpic32.a(vector48.o)
 .bss           0x00000000        0x0 /Applications/microchip/xc32/v2.15/bin/bin/../../lib/gcc/pic32mx/4.8.3/../../../../pic32mx/lib/libpic32.a(vector48.o)
 .reginfo       0x00000000       0x18 /Applications/microchip/xc32/v2.15/bin/bin/../../lib/gcc/pic32mx/4.8.3/../../../../pic32mx/lib/libpic32.a(vector48.o)
 .text          0x00000000        0x0 /Applications/microchip/xc32/v2.15/bin/bin/../../lib/gcc/pic32mx/4.8.3/../../../../pic32mx/lib/libpic32.a(vector49.o)
 .data          0x00000000        0x0 /Applications/microchip/xc32/v2.15/bin/bin/../../lib/gcc/pic32mx/4.8.3/../../../../pic32mx/lib/libpic32.a(vector49.o)
 .bss           0x00000000        0x0 /Applications/microchip/xc32/v2.15/bin/bin/../../lib/gcc/pic32mx/4.8.3/../../../../pic32mx/lib/libpic32.a(vector49.o)
 .reginfo       0x00000000       0x18 /Applications/microchip/xc32/v2.15/bin/bin/../../lib/gcc/pic32mx/4.8.3/../../../../pic32mx/lib/libpic32.a(vector49.o)
 .text          0x00000000        0x0 /Applications/microchip/xc32/v2.15/bin/bin/../../lib/gcc/pic32mx/4.8.3/../../../../pic32mx/lib/libpic32.a(vector50.o)
 .data          0x00000000        0x0 /Applications/microchip/xc32/v2.15/bin/bin/../../lib/gcc/pic32mx/4.8.3/../../../../pic32mx/lib/libpic32.a(vector50.o)
 .bss           0x00000000        0x0 /Applications/microchip/xc32/v2.15/bin/bin/../../lib/gcc/pic32mx/4.8.3/../../../../pic32mx/lib/libpic32.a(vector50.o)
 .reginfo       0x00000000       0x18 /Applications/microchip/xc32/v2.15/bin/bin/../../lib/gcc/pic32mx/4.8.3/../../../../pic32mx/lib/libpic32.a(vector50.o)
 .text          0x00000000        0x0 /Applications/microchip/xc32/v2.15/bin/bin/../../lib/gcc/pic32mx/4.8.3/../../../../pic32mx/lib/libpic32.a(vector51.o)
 .data          0x00000000        0x0 /Applications/microchip/xc32/v2.15/bin/bin/../../lib/gcc/pic32mx/4.8.3/../../../../pic32mx/lib/libpic32.a(vector51.o)
 .bss           0x00000000        0x0 /Applications/microchip/xc32/v2.15/bin/bin/../../lib/gcc/pic32mx/4.8.3/../../../../pic32mx/lib/libpic32.a(vector51.o)
 .reginfo       0x00000000       0x18 /Applications/microchip/xc32/v2.15/bin/bin/../../lib/gcc/pic32mx/4.8.3/../../../../pic32mx/lib/libpic32.a(vector51.o)
 .text          0x00000000        0x0 /Applications/microchip/xc32/v2.15/bin/bin/../../lib/gcc/pic32mx/4.8.3/../../../../pic32mx/lib/libpic32.a(defaultinterrupt.o)
 .data          0x00000000        0x0 /Applications/microchip/xc32/v2.15/bin/bin/../../lib/gcc/pic32mx/4.8.3/../../../../pic32mx/lib/libpic32.a(defaultinterrupt.o)
 .bss           0x00000000        0x0 /Applications/microchip/xc32/v2.15/bin/bin/../../lib/gcc/pic32mx/4.8.3/../../../../pic32mx/lib/libpic32.a(defaultinterrupt.o)
 .reginfo       0x00000000       0x18 /Applications/microchip/xc32/v2.15/bin/bin/../../lib/gcc/pic32mx/4.8.3/../../../../pic32mx/lib/libpic32.a(defaultinterrupt.o)
 .text          0x00000000        0x0 /Applications/microchip/xc32/v2.15/bin/bin/../../lib/gcc/pic32mx/4.8.3/../../../../pic32mx/lib/libc.a(ctypef.o)
 .data          0x00000000        0x0 /Applications/microchip/xc32/v2.15/bin/bin/../../lib/gcc/pic32mx/4.8.3/../../../../pic32mx/lib/libc.a(ctypef.o)
 .bss           0x00000000        0x0 /Applications/microchip/xc32/v2.15/bin/bin/../../lib/gcc/pic32mx/4.8.3/../../../../pic32mx/lib/libc.a(ctypef.o)
 .reginfo       0x00000000       0x18 /Applications/microchip/xc32/v2.15/bin/bin/../../lib/gcc/pic32mx/4.8.3/../../../../pic32mx/lib/libc.a(ctypef.o)
 .text.toupper  0x00000000       0x24 /Applications/microchip/xc32/v2.15/bin/bin/../../lib/gcc/pic32mx/4.8.3/../../../../pic32mx/lib/libc.a(ctypef.o)
 .text.isalnum  0x00000000       0x18 /Applications/microchip/xc32/v2.15/bin/bin/../../lib/gcc/pic32mx/4.8.3/../../../../pic32mx/lib/libc.a(ctypef.o)
 .text.isalpha  0x00000000       0x18 /Applications/microchip/xc32/v2.15/bin/bin/../../lib/gcc/pic32mx/4.8.3/../../../../pic32mx/lib/libc.a(ctypef.o)
 .text.isascii  0x00000000        0x8 /Applications/microchip/xc32/v2.15/bin/bin/../../lib/gcc/pic32mx/4.8.3/../../../../pic32mx/lib/libc.a(ctypef.o)
 .text.iscntrl  0x00000000       0x18 /Applications/microchip/xc32/v2.15/bin/bin/../../lib/gcc/pic32mx/4.8.3/../../../../pic32mx/lib/libc.a(ctypef.o)
 .text.isdigit  0x00000000       0x18 /Applications/microchip/xc32/v2.15/bin/bin/../../lib/gcc/pic32mx/4.8.3/../../../../pic32mx/lib/libc.a(ctypef.o)
 .text.isgraph  0x00000000       0x18 /Applications/microchip/xc32/v2.15/bin/bin/../../lib/gcc/pic32mx/4.8.3/../../../../pic32mx/lib/libc.a(ctypef.o)
 .text.islower  0x00000000       0x18 /Applications/microchip/xc32/v2.15/bin/bin/../../lib/gcc/pic32mx/4.8.3/../../../../pic32mx/lib/libc.a(ctypef.o)
 .text.isprint  0x00000000       0x18 /Applications/microchip/xc32/v2.15/bin/bin/../../lib/gcc/pic32mx/4.8.3/../../../../pic32mx/lib/libc.a(ctypef.o)
 .text.ispunct  0x00000000       0x18 /Applications/microchip/xc32/v2.15/bin/bin/../../lib/gcc/pic32mx/4.8.3/../../../../pic32mx/lib/libc.a(ctypef.o)
 .text.isspace  0x00000000       0x18 /Applications/microchip/xc32/v2.15/bin/bin/../../lib/gcc/pic32mx/4.8.3/../../../../pic32mx/lib/libc.a(ctypef.o)
 .text.isupper  0x00000000       0x18 /Applications/microchip/xc32/v2.15/bin/bin/../../lib/gcc/pic32mx/4.8.3/../../../../pic32mx/lib/libc.a(ctypef.o)
 .text.isxdigit
                0x00000000       0x18 /Applications/microchip/xc32/v2.15/bin/bin/../../lib/gcc/pic32mx/4.8.3/../../../../pic32mx/lib/libc.a(ctypef.o)
 .text.toascii  0x00000000        0x8 /Applications/microchip/xc32/v2.15/bin/bin/../../lib/gcc/pic32mx/4.8.3/../../../../pic32mx/lib/libc.a(ctypef.o)
 .text._tolower
                0x00000000        0x8 /Applications/microchip/xc32/v2.15/bin/bin/../../lib/gcc/pic32mx/4.8.3/../../../../pic32mx/lib/libc.a(ctypef.o)
 .text._toupper
                0x00000000        0x8 /Applications/microchip/xc32/v2.15/bin/bin/../../lib/gcc/pic32mx/4.8.3/../../../../pic32mx/lib/libc.a(ctypef.o)
 .text          0x00000000        0x0 /Applications/microchip/xc32/v2.15/bin/bin/../../lib/gcc/pic32mx/4.8.3/../../../../pic32mx/lib/libc.a(malloc.o)
 .data          0x00000000        0x0 /Applications/microchip/xc32/v2.15/bin/bin/../../lib/gcc/pic32mx/4.8.3/../../../../pic32mx/lib/libc.a(malloc.o)
 .bss           0x00000000       0x20 /Applications/microchip/xc32/v2.15/bin/bin/../../lib/gcc/pic32mx/4.8.3/../../../../pic32mx/lib/libc.a(malloc.o)
 .reginfo       0x00000000       0x18 /Applications/microchip/xc32/v2.15/bin/bin/../../lib/gcc/pic32mx/4.8.3/../../../../pic32mx/lib/libc.a(malloc.o)
 .text.malloc   0x00000000      0x28c /Applications/microchip/xc32/v2.15/bin/bin/../../lib/gcc/pic32mx/4.8.3/../../../../pic32mx/lib/libc.a(malloc.o)
 .text.free     0x00000000       0x30 /Applications/microchip/xc32/v2.15/bin/bin/../../lib/gcc/pic32mx/4.8.3/../../../../pic32mx/lib/libc.a(malloc.o)
 .text.realloc  0x00000000      0x148 /Applications/microchip/xc32/v2.15/bin/bin/../../lib/gcc/pic32mx/4.8.3/../../../../pic32mx/lib/libc.a(malloc.o)
 .text          0x00000000        0x0 /Applications/microchip/xc32/v2.15/bin/bin/../../lib/gcc/pic32mx/4.8.3/../../../../pic32mx/lib/libc.a(strcat.o)
 .data          0x00000000        0x0 /Applications/microchip/xc32/v2.15/bin/bin/../../lib/gcc/pic32mx/4.8.3/../../../../pic32mx/lib/libc.a(strcat.o)
 .bss           0x00000000        0x0 /Applications/microchip/xc32/v2.15/bin/bin/../../lib/gcc/pic32mx/4.8.3/../../../../pic32mx/lib/libc.a(strcat.o)
 .reginfo       0x00000000       0x18 /Applications/microchip/xc32/v2.15/bin/bin/../../lib/gcc/pic32mx/4.8.3/../../../../pic32mx/lib/libc.a(strcat.o)
 .text          0x00000000        0x0 /Applications/microchip/xc32/v2.15/bin/bin/../../lib/gcc/pic32mx/4.8.3/../../../../pic32mx/lib/libc.a(strncmp.o)
 .data          0x00000000        0x0 /Applications/microchip/xc32/v2.15/bin/bin/../../lib/gcc/pic32mx/4.8.3/../../../../pic32mx/lib/libc.a(strncmp.o)
 .bss           0x00000000        0x0 /Applications/microchip/xc32/v2.15/bin/bin/../../lib/gcc/pic32mx/4.8.3/../../../../pic32mx/lib/libc.a(strncmp.o)
 .reginfo       0x00000000       0x18 /Applications/microchip/xc32/v2.15/bin/bin/../../lib/gcc/pic32mx/4.8.3/../../../../pic32mx/lib/libc.a(strncmp.o)
 .text          0x00000000        0x0 /Applications/microchip/xc32/v2.15/bin/bin/../../lib/gcc/pic32mx/4.8.3/../../../../pic32mx/lib/libc.a(strtod.o)
 .data          0x00000000        0x0 /Applications/microchip/xc32/v2.15/bin/bin/../../lib/gcc/pic32mx/4.8.3/../../../../pic32mx/lib/libc.a(strtod.o)
 .bss           0x00000000        0x0 /Applications/microchip/xc32/v2.15/bin/bin/../../lib/gcc/pic32mx/4.8.3/../../../../pic32mx/lib/libc.a(strtod.o)
 .reginfo       0x00000000       0x18 /Applications/microchip/xc32/v2.15/bin/bin/../../lib/gcc/pic32mx/4.8.3/../../../../pic32mx/lib/libc.a(strtod.o)
 .text._dstrtod
                0x00000000       0x1c /Applications/microchip/xc32/v2.15/bin/bin/../../lib/gcc/pic32mx/4.8.3/../../../../pic32mx/lib/libc.a(strtod.o)
 .text          0x00000000        0x0 /Applications/microchip/xc32/v2.15/bin/bin/../../lib/gcc/pic32mx/4.8.3/../../../../pic32mx/lib/libc.a(sprintf_cdgGnopuxX.eo)
 .data          0x00000000        0x0 /Applications/microchip/xc32/v2.15/bin/bin/../../lib/gcc/pic32mx/4.8.3/../../../../pic32mx/lib/libc.a(sprintf_cdgGnopuxX.eo)
 .bss           0x00000000        0x0 /Applications/microchip/xc32/v2.15/bin/bin/../../lib/gcc/pic32mx/4.8.3/../../../../pic32mx/lib/libc.a(sprintf_cdgGnopuxX.eo)
 .reginfo       0x00000000       0x18 /Applications/microchip/xc32/v2.15/bin/bin/../../lib/gcc/pic32mx/4.8.3/../../../../pic32mx/lib/libc.a(sprintf_cdgGnopuxX.eo)
 .text          0x00000000        0x0 /Applications/microchip/xc32/v2.15/bin/bin/../../lib/gcc/pic32mx/4.8.3/../../../../pic32mx/lib/libc.a(sscanf_gG.eo)
 .data          0x00000000        0x0 /Applications/microchip/xc32/v2.15/bin/bin/../../lib/gcc/pic32mx/4.8.3/../../../../pic32mx/lib/libc.a(sscanf_gG.eo)
 .bss           0x00000000        0x0 /Applications/microchip/xc32/v2.15/bin/bin/../../lib/gcc/pic32mx/4.8.3/../../../../pic32mx/lib/libc.a(sscanf_gG.eo)
 .reginfo       0x00000000       0x18 /Applications/microchip/xc32/v2.15/bin/bin/../../lib/gcc/pic32mx/4.8.3/../../../../pic32mx/lib/libc.a(sscanf_gG.eo)
 .text          0x00000000        0x0 /Applications/microchip/xc32/v2.15/bin/bin/../../lib/gcc/pic32mx/4.8.3/../../../../pic32mx/lib/libc.a(ctype.o)
 .data          0x00000000        0x0 /Applications/microchip/xc32/v2.15/bin/bin/../../lib/gcc/pic32mx/4.8.3/../../../../pic32mx/lib/libc.a(ctype.o)
 .bss           0x00000000        0x0 /Applications/microchip/xc32/v2.15/bin/bin/../../lib/gcc/pic32mx/4.8.3/../../../../pic32mx/lib/libc.a(ctype.o)
 .reginfo       0x00000000       0x18 /Applications/microchip/xc32/v2.15/bin/bin/../../lib/gcc/pic32mx/4.8.3/../../../../pic32mx/lib/libc.a(ctype.o)
 .text          0x00000000        0x0 /Applications/microchip/xc32/v2.15/bin/bin/../../lib/gcc/pic32mx/4.8.3/../../../../pic32mx/lib/libc.a(doprnt_cdgGnopuxX.eo)
 .data          0x00000000        0x0 /Applications/microchip/xc32/v2.15/bin/bin/../../lib/gcc/pic32mx/4.8.3/../../../../pic32mx/lib/libc.a(doprnt_cdgGnopuxX.eo)
 .bss           0x00000000        0x0 /Applications/microchip/xc32/v2.15/bin/bin/../../lib/gcc/pic32mx/4.8.3/../../../../pic32mx/lib/libc.a(doprnt_cdgGnopuxX.eo)
 .reginfo       0x00000000       0x18 /Applications/microchip/xc32/v2.15/bin/bin/../../lib/gcc/pic32mx/4.8.3/../../../../pic32mx/lib/libc.a(doprnt_cdgGnopuxX.eo)
 .text          0x00000000        0x0 /Applications/microchip/xc32/v2.15/bin/bin/../../lib/gcc/pic32mx/4.8.3/../../../../pic32mx/lib/libc.a(doscan_gG.eo)
 .data          0x00000000        0x0 /Applications/microchip/xc32/v2.15/bin/bin/../../lib/gcc/pic32mx/4.8.3/../../../../pic32mx/lib/libc.a(doscan_gG.eo)
 .reginfo       0x00000000       0x18 /Applications/microchip/xc32/v2.15/bin/bin/../../lib/gcc/pic32mx/4.8.3/../../../../pic32mx/lib/libc.a(doscan_gG.eo)
 .text          0x00000000        0x0 /Applications/microchip/xc32/v2.15/bin/bin/../../lib/gcc/pic32mx/4.8.3/../../../../pic32mx/lib/libc.a(fgetc.o)
 .data          0x00000000        0x0 /Applications/microchip/xc32/v2.15/bin/bin/../../lib/gcc/pic32mx/4.8.3/../../../../pic32mx/lib/libc.a(fgetc.o)
 .bss           0x00000000        0x0 /Applications/microchip/xc32/v2.15/bin/bin/../../lib/gcc/pic32mx/4.8.3/../../../../pic32mx/lib/libc.a(fgetc.o)
 .reginfo       0x00000000       0x18 /Applications/microchip/xc32/v2.15/bin/bin/../../lib/gcc/pic32mx/4.8.3/../../../../pic32mx/lib/libc.a(fgetc.o)
 .text          0x00000000        0x0 /Applications/microchip/xc32/v2.15/bin/bin/../../lib/gcc/pic32mx/4.8.3/../../../../pic32mx/lib/libc.a(_fputc_simple.o)
 .data          0x00000000        0x0 /Applications/microchip/xc32/v2.15/bin/bin/../../lib/gcc/pic32mx/4.8.3/../../../../pic32mx/lib/libc.a(_fputc_simple.o)
 .bss           0x00000000        0x0 /Applications/microchip/xc32/v2.15/bin/bin/../../lib/gcc/pic32mx/4.8.3/../../../../pic32mx/lib/libc.a(_fputc_simple.o)
 .reginfo       0x00000000       0x18 /Applications/microchip/xc32/v2.15/bin/bin/../../lib/gcc/pic32mx/4.8.3/../../../../pic32mx/lib/libc.a(_fputc_simple.o)
 .text          0x00000000        0x0 /Applications/microchip/xc32/v2.15/bin/bin/../../lib/gcc/pic32mx/4.8.3/../../../../pic32mx/lib/libc.a(atoi.o)
 .data          0x00000000        0x0 /Applications/microchip/xc32/v2.15/bin/bin/../../lib/gcc/pic32mx/4.8.3/../../../../pic32mx/lib/libc.a(atoi.o)
 .bss           0x00000000        0x0 /Applications/microchip/xc32/v2.15/bin/bin/../../lib/gcc/pic32mx/4.8.3/../../../../pic32mx/lib/libc.a(atoi.o)
 .reginfo       0x00000000       0x18 /Applications/microchip/xc32/v2.15/bin/bin/../../lib/gcc/pic32mx/4.8.3/../../../../pic32mx/lib/libc.a(atoi.o)
 .text          0x00000000        0x0 /Applications/microchip/xc32/v2.15/bin/bin/../../lib/gcc/pic32mx/4.8.3/../../../../pic32mx/lib/libc.a(ldpowers.o)
 .data          0x00000000        0x0 /Applications/microchip/xc32/v2.15/bin/bin/../../lib/gcc/pic32mx/4.8.3/../../../../pic32mx/lib/libc.a(ldpowers.o)
 .bss           0x00000000        0x0 /Applications/microchip/xc32/v2.15/bin/bin/../../lib/gcc/pic32mx/4.8.3/../../../../pic32mx/lib/libc.a(ldpowers.o)
 .reginfo       0x00000000       0x18 /Applications/microchip/xc32/v2.15/bin/bin/../../lib/gcc/pic32mx/4.8.3/../../../../pic32mx/lib/libc.a(ldpowers.o)
 .text          0x00000000        0x0 /Applications/microchip/xc32/v2.15/bin/bin/../../lib/gcc/pic32mx/4.8.3/../../../../pic32mx/lib/libc.a(strtof.o)
 .data          0x00000000        0x0 /Applications/microchip/xc32/v2.15/bin/bin/../../lib/gcc/pic32mx/4.8.3/../../../../pic32mx/lib/libc.a(strtof.o)
 .bss           0x00000000        0x0 /Applications/microchip/xc32/v2.15/bin/bin/../../lib/gcc/pic32mx/4.8.3/../../../../pic32mx/lib/libc.a(strtof.o)
 .reginfo       0x00000000       0x18 /Applications/microchip/xc32/v2.15/bin/bin/../../lib/gcc/pic32mx/4.8.3/../../../../pic32mx/lib/libc.a(strtof.o)
 .text.strtodf  0x00000000       0x1c /Applications/microchip/xc32/v2.15/bin/bin/../../lib/gcc/pic32mx/4.8.3/../../../../pic32mx/lib/libc.a(strtof.o)
 .text          0x00000000        0x0 /Applications/microchip/xc32/v2.15/bin/bin/../../lib/gcc/pic32mx/4.8.3/../../../../pic32mx/lib/libc.a(ungetc.o)
 .data          0x00000000        0x0 /Applications/microchip/xc32/v2.15/bin/bin/../../lib/gcc/pic32mx/4.8.3/../../../../pic32mx/lib/libc.a(ungetc.o)
 .bss           0x00000000        0x0 /Applications/microchip/xc32/v2.15/bin/bin/../../lib/gcc/pic32mx/4.8.3/../../../../pic32mx/lib/libc.a(ungetc.o)
 .reginfo       0x00000000       0x18 /Applications/microchip/xc32/v2.15/bin/bin/../../lib/gcc/pic32mx/4.8.3/../../../../pic32mx/lib/libc.a(ungetc.o)
 .text          0x00000000        0x0 /Applications/microchip/xc32/v2.15/bin/bin/../../lib/gcc/pic32mx/4.8.3/../../../../pic32mx/lib/libc.a(_iob.o)
 .reginfo       0x00000000       0x18 /Applications/microchip/xc32/v2.15/bin/bin/../../lib/gcc/pic32mx/4.8.3/../../../../pic32mx/lib/libc.a(_iob.o)
 .text          0x00000000        0x0 /Applications/microchip/xc32/v2.15/bin/bin/../../lib/gcc/pic32mx/4.8.3/../../../../pic32mx/lib/libc.a(filbuf.o)
 .data          0x00000000        0x0 /Applications/microchip/xc32/v2.15/bin/bin/../../lib/gcc/pic32mx/4.8.3/../../../../pic32mx/lib/libc.a(filbuf.o)
 .bss           0x00000000        0x0 /Applications/microchip/xc32/v2.15/bin/bin/../../lib/gcc/pic32mx/4.8.3/../../../../pic32mx/lib/libc.a(filbuf.o)
 .reginfo       0x00000000       0x18 /Applications/microchip/xc32/v2.15/bin/bin/../../lib/gcc/pic32mx/4.8.3/../../../../pic32mx/lib/libc.a(filbuf.o)
 .text          0x00000000        0x0 /Applications/microchip/xc32/v2.15/bin/bin/../../lib/gcc/pic32mx/4.8.3/../../../../pic32mx/lib/libc.a(_flsbuf_simple.o)
 .data          0x00000000        0x0 /Applications/microchip/xc32/v2.15/bin/bin/../../lib/gcc/pic32mx/4.8.3/../../../../pic32mx/lib/libc.a(_flsbuf_simple.o)
 .bss           0x00000000        0x0 /Applications/microchip/xc32/v2.15/bin/bin/../../lib/gcc/pic32mx/4.8.3/../../../../pic32mx/lib/libc.a(_flsbuf_simple.o)
 .reginfo       0x00000000       0x18 /Applications/microchip/xc32/v2.15/bin/bin/../../lib/gcc/pic32mx/4.8.3/../../../../pic32mx/lib/libc.a(_flsbuf_simple.o)
 .text          0x00000000        0x0 /Applications/microchip/xc32/v2.15/bin/bin/../../lib/gcc/pic32mx/4.8.3/../../../../pic32mx/lib/libc.a(fflush.o)
 .data          0x00000000        0x0 /Applications/microchip/xc32/v2.15/bin/bin/../../lib/gcc/pic32mx/4.8.3/../../../../pic32mx/lib/libc.a(fflush.o)
 .bss           0x00000000        0x0 /Applications/microchip/xc32/v2.15/bin/bin/../../lib/gcc/pic32mx/4.8.3/../../../../pic32mx/lib/libc.a(fflush.o)
 .reginfo       0x00000000       0x18 /Applications/microchip/xc32/v2.15/bin/bin/../../lib/gcc/pic32mx/4.8.3/../../../../pic32mx/lib/libc.a(fflush.o)
 .text          0x00000000        0x0 /Applications/microchip/xc32/v2.15/bin/bin/../../lib/gcc/pic32mx/4.8.3/../../../../pic32mx/lib/libm.a(dpfrexp.o)
 .data          0x00000000        0x0 /Applications/microchip/xc32/v2.15/bin/bin/../../lib/gcc/pic32mx/4.8.3/../../../../pic32mx/lib/libm.a(dpfrexp.o)
 .bss           0x00000000        0x0 /Applications/microchip/xc32/v2.15/bin/bin/../../lib/gcc/pic32mx/4.8.3/../../../../pic32mx/lib/libm.a(dpfrexp.o)
 .reginfo       0x00000000       0x18 /Applications/microchip/xc32/v2.15/bin/bin/../../lib/gcc/pic32mx/4.8.3/../../../../pic32mx/lib/libm.a(dpfrexp.o)
 .text          0x00000000        0x0 /Applications/microchip/xc32/v2.15/bin/bin/../../lib/gcc/pic32mx/4.8.3/../../../../pic32mx/lib/libm.a(dp32div.o)
 .data          0x00000000        0x0 /Applications/microchip/xc32/v2.15/bin/bin/../../lib/gcc/pic32mx/4.8.3/../../../../pic32mx/lib/libm.a(dp32div.o)
 .bss           0x00000000        0x0 /Applications/microchip/xc32/v2.15/bin/bin/../../lib/gcc/pic32mx/4.8.3/../../../../pic32mx/lib/libm.a(dp32div.o)
 .reginfo       0x00000000       0x18 /Applications/microchip/xc32/v2.15/bin/bin/../../lib/gcc/pic32mx/4.8.3/../../../../pic32mx/lib/libm.a(dp32div.o)
 .text          0x00000000        0x0 /Applications/microchip/xc32/v2.15/bin/bin/../../lib/gcc/pic32mx/4.8.3/../../../../pic32mx/lib/libm.a(dp32mul.o)
 .data          0x00000000        0x0 /Applications/microchip/xc32/v2.15/bin/bin/../../lib/gcc/pic32mx/4.8.3/../../../../pic32mx/lib/libm.a(dp32mul.o)
 .bss           0x00000000        0x0 /Applications/microchip/xc32/v2.15/bin/bin/../../lib/gcc/pic32mx/4.8.3/../../../../pic32mx/lib/libm.a(dp32mul.o)
 .reginfo       0x00000000       0x18 /Applications/microchip/xc32/v2.15/bin/bin/../../lib/gcc/pic32mx/4.8.3/../../../../pic32mx/lib/libm.a(dp32mul.o)
 .text          0x00000000        0x0 /Applications/microchip/xc32/v2.15/bin/bin/../../lib/gcc/pic32mx/4.8.3/../../../../pic32mx/lib/libm.a(dp32subadd.o)
 .data          0x00000000        0x0 /Applications/microchip/xc32/v2.15/bin/bin/../../lib/gcc/pic32mx/4.8.3/../../../../pic32mx/lib/libm.a(dp32subadd.o)
 .bss           0x00000000        0x0 /Applications/microchip/xc32/v2.15/bin/bin/../../lib/gcc/pic32mx/4.8.3/../../../../pic32mx/lib/libm.a(dp32subadd.o)
 .reginfo       0x00000000       0x18 /Applications/microchip/xc32/v2.15/bin/bin/../../lib/gcc/pic32mx/4.8.3/../../../../pic32mx/lib/libm.a(dp32subadd.o)
 .text          0x00000000        0x0 /Applications/microchip/xc32/v2.15/bin/bin/../../lib/gcc/pic32mx/4.8.3/../../../../pic32mx/lib/libm.a(dpcmp.o)
 .data          0x00000000        0x0 /Applications/microchip/xc32/v2.15/bin/bin/../../lib/gcc/pic32mx/4.8.3/../../../../pic32mx/lib/libm.a(dpcmp.o)
 .bss           0x00000000        0x0 /Applications/microchip/xc32/v2.15/bin/bin/../../lib/gcc/pic32mx/4.8.3/../../../../pic32mx/lib/libm.a(dpcmp.o)
 .reginfo       0x00000000       0x18 /Applications/microchip/xc32/v2.15/bin/bin/../../lib/gcc/pic32mx/4.8.3/../../../../pic32mx/lib/libm.a(dpcmp.o)
 .text          0x00000000        0x0 /Applications/microchip/xc32/v2.15/bin/bin/../../lib/gcc/pic32mx/4.8.3/../../../../pic32mx/lib/libm.a(dptofp.o)
 .data          0x00000000        0x0 /Applications/microchip/xc32/v2.15/bin/bin/../../lib/gcc/pic32mx/4.8.3/../../../../pic32mx/lib/libm.a(dptofp.o)
 .bss           0x00000000        0x0 /Applications/microchip/xc32/v2.15/bin/bin/../../lib/gcc/pic32mx/4.8.3/../../../../pic32mx/lib/libm.a(dptofp.o)
 .reginfo       0x00000000       0x18 /Applications/microchip/xc32/v2.15/bin/bin/../../lib/gcc/pic32mx/4.8.3/../../../../pic32mx/lib/libm.a(dptofp.o)
 .text          0x00000000        0x0 /Applications/microchip/xc32/v2.15/bin/bin/../../lib/gcc/pic32mx/4.8.3/../../../../pic32mx/lib/libm.a(dptoul.o)
 .data          0x00000000        0x0 /Applications/microchip/xc32/v2.15/bin/bin/../../lib/gcc/pic32mx/4.8.3/../../../../pic32mx/lib/libm.a(dptoul.o)
 .bss           0x00000000        0x0 /Applications/microchip/xc32/v2.15/bin/bin/../../lib/gcc/pic32mx/4.8.3/../../../../pic32mx/lib/libm.a(dptoul.o)
 .reginfo       0x00000000       0x18 /Applications/microchip/xc32/v2.15/bin/bin/../../lib/gcc/pic32mx/4.8.3/../../../../pic32mx/lib/libm.a(dptoul.o)
 .text          0x00000000        0x0 /Applications/microchip/xc32/v2.15/bin/bin/../../lib/gcc/pic32mx/4.8.3/../../../../pic32mx/lib/libm.a(fp32mul.o)
 .data          0x00000000        0x0 /Applications/microchip/xc32/v2.15/bin/bin/../../lib/gcc/pic32mx/4.8.3/../../../../pic32mx/lib/libm.a(fp32mul.o)
 .bss           0x00000000        0x0 /Applications/microchip/xc32/v2.15/bin/bin/../../lib/gcc/pic32mx/4.8.3/../../../../pic32mx/lib/libm.a(fp32mul.o)
 .reginfo       0x00000000       0x18 /Applications/microchip/xc32/v2.15/bin/bin/../../lib/gcc/pic32mx/4.8.3/../../../../pic32mx/lib/libm.a(fp32mul.o)
 .text          0x00000000        0x0 /Applications/microchip/xc32/v2.15/bin/bin/../../lib/gcc/pic32mx/4.8.3/../../../../pic32mx/lib/libm.a(fp32subadd.o)
 .data          0x00000000        0x0 /Applications/microchip/xc32/v2.15/bin/bin/../../lib/gcc/pic32mx/4.8.3/../../../../pic32mx/lib/libm.a(fp32subadd.o)
 .bss           0x00000000        0x0 /Applications/microchip/xc32/v2.15/bin/bin/../../lib/gcc/pic32mx/4.8.3/../../../../pic32mx/lib/libm.a(fp32subadd.o)
 .reginfo       0x00000000       0x18 /Applications/microchip/xc32/v2.15/bin/bin/../../lib/gcc/pic32mx/4.8.3/../../../../pic32mx/lib/libm.a(fp32subadd.o)
 .text          0x00000000        0x0 /Applications/microchip/xc32/v2.15/bin/bin/../../lib/gcc/pic32mx/4.8.3/../../../../pic32mx/lib/libm.a(fpcmp.o)
 .data          0x00000000        0x0 /Applications/microchip/xc32/v2.15/bin/bin/../../lib/gcc/pic32mx/4.8.3/../../../../pic32mx/lib/libm.a(fpcmp.o)
 .bss           0x00000000        0x0 /Applications/microchip/xc32/v2.15/bin/bin/../../lib/gcc/pic32mx/4.8.3/../../../../pic32mx/lib/libm.a(fpcmp.o)
 .reginfo       0x00000000       0x18 /Applications/microchip/xc32/v2.15/bin/bin/../../lib/gcc/pic32mx/4.8.3/../../../../pic32mx/lib/libm.a(fpcmp.o)
 .text          0x00000000        0x0 /Applications/microchip/xc32/v2.15/bin/bin/../../lib/gcc/pic32mx/4.8.3/../../../../pic32mx/lib/libm.a(fptodp.o)
 .data          0x00000000        0x0 /Applications/microchip/xc32/v2.15/bin/bin/../../lib/gcc/pic32mx/4.8.3/../../../../pic32mx/lib/libm.a(fptodp.o)
 .bss           0x00000000        0x0 /Applications/microchip/xc32/v2.15/bin/bin/../../lib/gcc/pic32mx/4.8.3/../../../../pic32mx/lib/libm.a(fptodp.o)
 .reginfo       0x00000000       0x18 /Applications/microchip/xc32/v2.15/bin/bin/../../lib/gcc/pic32mx/4.8.3/../../../../pic32mx/lib/libm.a(fptodp.o)
 .text          0x00000000        0x0 /Applications/microchip/xc32/v2.15/bin/bin/../../lib/gcc/pic32mx/4.8.3/../../../../pic32mx/lib/libm.a(fptoli.o)
 .data          0x00000000        0x0 /Applications/microchip/xc32/v2.15/bin/bin/../../lib/gcc/pic32mx/4.8.3/../../../../pic32mx/lib/libm.a(fptoli.o)
 .bss           0x00000000        0x0 /Applications/microchip/xc32/v2.15/bin/bin/../../lib/gcc/pic32mx/4.8.3/../../../../pic32mx/lib/libm.a(fptoli.o)
 .reginfo       0x00000000       0x18 /Applications/microchip/xc32/v2.15/bin/bin/../../lib/gcc/pic32mx/4.8.3/../../../../pic32mx/lib/libm.a(fptoli.o)
 .text          0x00000000        0x0 /Applications/microchip/xc32/v2.15/bin/bin/../../lib/gcc/pic32mx/4.8.3/../../../../pic32mx/lib/libm.a(sitofp.o)
 .data          0x00000000        0x0 /Applications/microchip/xc32/v2.15/bin/bin/../../lib/gcc/pic32mx/4.8.3/../../../../pic32mx/lib/libm.a(sitofp.o)
 .bss           0x00000000        0x0 /Applications/microchip/xc32/v2.15/bin/bin/../../lib/gcc/pic32mx/4.8.3/../../../../pic32mx/lib/libm.a(sitofp.o)
 .reginfo       0x00000000       0x18 /Applications/microchip/xc32/v2.15/bin/bin/../../lib/gcc/pic32mx/4.8.3/../../../../pic32mx/lib/libm.a(sitofp.o)
 .text          0x00000000        0x0 /Applications/microchip/xc32/v2.15/bin/bin/../../lib/gcc/pic32mx/4.8.3/../../../../pic32mx/lib/libm.a(w_powf.o)
 .data          0x00000000        0x0 /Applications/microchip/xc32/v2.15/bin/bin/../../lib/gcc/pic32mx/4.8.3/../../../../pic32mx/lib/libm.a(w_powf.o)
 .bss           0x00000000        0x0 /Applications/microchip/xc32/v2.15/bin/bin/../../lib/gcc/pic32mx/4.8.3/../../../../pic32mx/lib/libm.a(w_powf.o)
 .reginfo       0x00000000       0x18 /Applications/microchip/xc32/v2.15/bin/bin/../../lib/gcc/pic32mx/4.8.3/../../../../pic32mx/lib/libm.a(w_powf.o)
 .text          0x00000000        0x0 /Applications/microchip/xc32/v2.15/bin/bin/../../lib/gcc/pic32mx/4.8.3/../../../../pic32mx/lib/libm.a(__strtod.o)
 .data          0x00000000        0x0 /Applications/microchip/xc32/v2.15/bin/bin/../../lib/gcc/pic32mx/4.8.3/../../../../pic32mx/lib/libm.a(__strtod.o)
 .bss           0x00000000        0x0 /Applications/microchip/xc32/v2.15/bin/bin/../../lib/gcc/pic32mx/4.8.3/../../../../pic32mx/lib/libm.a(__strtod.o)
 .reginfo       0x00000000       0x18 /Applications/microchip/xc32/v2.15/bin/bin/../../lib/gcc/pic32mx/4.8.3/../../../../pic32mx/lib/libm.a(__strtod.o)
 .text          0x00000000        0x0 /Applications/microchip/xc32/v2.15/bin/bin/../../lib/gcc/pic32mx/4.8.3/../../../../pic32mx/lib/libm.a(__strtof.o)
 .data          0x00000000        0x0 /Applications/microchip/xc32/v2.15/bin/bin/../../lib/gcc/pic32mx/4.8.3/../../../../pic32mx/lib/libm.a(__strtof.o)
 .bss           0x00000000        0x0 /Applications/microchip/xc32/v2.15/bin/bin/../../lib/gcc/pic32mx/4.8.3/../../../../pic32mx/lib/libm.a(__strtof.o)
 .reginfo       0x00000000       0x18 /Applications/microchip/xc32/v2.15/bin/bin/../../lib/gcc/pic32mx/4.8.3/../../../../pic32mx/lib/libm.a(__strtof.o)
 .text          0x00000000        0x0 /Applications/microchip/xc32/v2.15/bin/bin/../../lib/gcc/pic32mx/4.8.3/../../../../pic32mx/lib/libm.a(fp32div.o)
 .data          0x00000000        0x0 /Applications/microchip/xc32/v2.15/bin/bin/../../lib/gcc/pic32mx/4.8.3/../../../../pic32mx/lib/libm.a(fp32div.o)
 .bss           0x00000000        0x0 /Applications/microchip/xc32/v2.15/bin/bin/../../lib/gcc/pic32mx/4.8.3/../../../../pic32mx/lib/libm.a(fp32div.o)
 .reginfo       0x00000000       0x18 /Applications/microchip/xc32/v2.15/bin/bin/../../lib/gcc/pic32mx/4.8.3/../../../../pic32mx/lib/libm.a(fp32div.o)
 .text          0x00000000        0x0 /Applications/microchip/xc32/v2.15/bin/bin/../../lib/gcc/pic32mx/4.8.3/../../../../pic32mx/lib/libm.a(fpmodf.o)
 .data          0x00000000        0x0 /Applications/microchip/xc32/v2.15/bin/bin/../../lib/gcc/pic32mx/4.8.3/../../../../pic32mx/lib/libm.a(fpmodf.o)
 .bss           0x00000000        0x0 /Applications/microchip/xc32/v2.15/bin/bin/../../lib/gcc/pic32mx/4.8.3/../../../../pic32mx/lib/libm.a(fpmodf.o)
 .reginfo       0x00000000       0x18 /Applications/microchip/xc32/v2.15/bin/bin/../../lib/gcc/pic32mx/4.8.3/../../../../pic32mx/lib/libm.a(fpmodf.o)
 .text          0x00000000        0x0 /Applications/microchip/xc32/v2.15/bin/bin/../../lib/gcc/pic32mx/4.8.3/../../../../pic32mx/lib/libm.a(fppow32.o)
 .data          0x00000000        0x0 /Applications/microchip/xc32/v2.15/bin/bin/../../lib/gcc/pic32mx/4.8.3/../../../../pic32mx/lib/libm.a(fppow32.o)
 .bss           0x00000000        0x0 /Applications/microchip/xc32/v2.15/bin/bin/../../lib/gcc/pic32mx/4.8.3/../../../../pic32mx/lib/libm.a(fppow32.o)
 .reginfo       0x00000000       0x18 /Applications/microchip/xc32/v2.15/bin/bin/../../lib/gcc/pic32mx/4.8.3/../../../../pic32mx/lib/libm.a(fppow32.o)
 .text          0x00000000        0x0 /Applications/microchip/xc32/v2.15/bin/bin/../../lib/gcc/pic32mx/4.8.3/../../../../pic32mx/lib/libm.a(litodp.o)
 .data          0x00000000        0x0 /Applications/microchip/xc32/v2.15/bin/bin/../../lib/gcc/pic32mx/4.8.3/../../../../pic32mx/lib/libm.a(litodp.o)
 .bss           0x00000000        0x0 /Applications/microchip/xc32/v2.15/bin/bin/../../lib/gcc/pic32mx/4.8.3/../../../../pic32mx/lib/libm.a(litodp.o)
 .reginfo       0x00000000       0x18 /Applications/microchip/xc32/v2.15/bin/bin/../../lib/gcc/pic32mx/4.8.3/../../../../pic32mx/lib/libm.a(litodp.o)
 .text          0x00000000        0x0 /Applications/microchip/xc32/v2.15/bin/bin/../../lib/gcc/pic32mx/4.8.3/../../../../pic32mx/lib/libm.a(negdf2.o)
 .data          0x00000000        0x0 /Applications/microchip/xc32/v2.15/bin/bin/../../lib/gcc/pic32mx/4.8.3/../../../../pic32mx/lib/libm.a(negdf2.o)
 .bss           0x00000000        0x0 /Applications/microchip/xc32/v2.15/bin/bin/../../lib/gcc/pic32mx/4.8.3/../../../../pic32mx/lib/libm.a(negdf2.o)
 .reginfo       0x00000000       0x18 /Applications/microchip/xc32/v2.15/bin/bin/../../lib/gcc/pic32mx/4.8.3/../../../../pic32mx/lib/libm.a(negdf2.o)
 .text          0x00000000        0x0 /Applications/microchip/xc32/v2.15/bin/bin/../../lib/gcc/pic32mx/4.8.3/../../../../pic32mx/lib/libm.a(negsf2.o)
 .data          0x00000000        0x0 /Applications/microchip/xc32/v2.15/bin/bin/../../lib/gcc/pic32mx/4.8.3/../../../../pic32mx/lib/libm.a(negsf2.o)
 .bss           0x00000000        0x0 /Applications/microchip/xc32/v2.15/bin/bin/../../lib/gcc/pic32mx/4.8.3/../../../../pic32mx/lib/libm.a(negsf2.o)
 .reginfo       0x00000000       0x18 /Applications/microchip/xc32/v2.15/bin/bin/../../lib/gcc/pic32mx/4.8.3/../../../../pic32mx/lib/libm.a(negsf2.o)
 .text          0x00000000        0x0 /Applications/microchip/xc32/v2.15/bin/bin/../../lib/gcc/pic32mx/4.8.3/../../../../pic32mx/lib/libm.a(s_lib_ver.o)
 .data          0x00000000        0x0 /Applications/microchip/xc32/v2.15/bin/bin/../../lib/gcc/pic32mx/4.8.3/../../../../pic32mx/lib/libm.a(s_lib_ver.o)
 .bss           0x00000000        0x0 /Applications/microchip/xc32/v2.15/bin/bin/../../lib/gcc/pic32mx/4.8.3/../../../../pic32mx/lib/libm.a(s_lib_ver.o)
 .reginfo       0x00000000       0x18 /Applications/microchip/xc32/v2.15/bin/bin/../../lib/gcc/pic32mx/4.8.3/../../../../pic32mx/lib/libm.a(s_lib_ver.o)
 .text          0x00000000        0x0 /Applications/microchip/xc32/v2.15/bin/bin/../../lib/gcc/pic32mx/4.8.3/../../../../pic32mx/lib/libm.a(fpexlog.o)
 .bss           0x00000000        0x0 /Applications/microchip/xc32/v2.15/bin/bin/../../lib/gcc/pic32mx/4.8.3/../../../../pic32mx/lib/libm.a(fpexlog.o)
 .reginfo       0x00000000       0x18 /Applications/microchip/xc32/v2.15/bin/bin/../../lib/gcc/pic32mx/4.8.3/../../../../pic32mx/lib/libm.a(fpexlog.o)
 .bss           0x00000000        0x0 /Applications/microchip/xc32/v2.15/bin/bin/../../lib/gcc/pic32mx/4.8.3/../../../../pic32mx/lib/libm.a(fpexp32.o)
 .reginfo       0x00000000       0x18 /Applications/microchip/xc32/v2.15/bin/bin/../../lib/gcc/pic32mx/4.8.3/../../../../pic32mx/lib/libm.a(fpexp32.o)
 .text.libm     0x00000000        0x0 /Applications/microchip/xc32/v2.15/bin/bin/../../lib/gcc/pic32mx/4.8.3/../../../../pic32mx/lib/libm.a(fpexp32.o)
 .text          0x00000000        0x0 /Applications/microchip/xc32/v2.15/bin/bin/../../lib/gcc/pic32mx/4.8.3/../../../../pic32mx/lib/libe.a(_fixunsdfdi.o)
 .data          0x00000000        0x0 /Applications/microchip/xc32/v2.15/bin/bin/../../lib/gcc/pic32mx/4.8.3/../../../../pic32mx/lib/libe.a(_fixunsdfdi.o)
 .bss           0x00000000        0x0 /Applications/microchip/xc32/v2.15/bin/bin/../../lib/gcc/pic32mx/4.8.3/../../../../pic32mx/lib/libe.a(_fixunsdfdi.o)
 .reginfo       0x00000000       0x18 /Applications/microchip/xc32/v2.15/bin/bin/../../lib/gcc/pic32mx/4.8.3/../../../../pic32mx/lib/libe.a(_fixunsdfdi.o)
 .text          0x00000000        0x0 /Applications/microchip/xc32/v2.15/bin/bin/../../lib/gcc/pic32mx/4.8.3/../../../../pic32mx/lib/libe.a(_orderdf2.o)
 .data          0x00000000        0x0 /Applications/microchip/xc32/v2.15/bin/bin/../../lib/gcc/pic32mx/4.8.3/../../../../pic32mx/lib/libe.a(_orderdf2.o)
 .bss           0x00000000        0x0 /Applications/microchip/xc32/v2.15/bin/bin/../../lib/gcc/pic32mx/4.8.3/../../../../pic32mx/lib/libe.a(_orderdf2.o)
 .reginfo       0x00000000       0x18 /Applications/microchip/xc32/v2.15/bin/bin/../../lib/gcc/pic32mx/4.8.3/../../../../pic32mx/lib/libe.a(_orderdf2.o)
 .text          0x00000000        0x0 /Applications/microchip/xc32/v2.15/bin/bin/../../lib/gcc/pic32mx/4.8.3/../../../../pic32mx/lib/libe.a(_ldexp.o)
 .data          0x00000000        0x0 /Applications/microchip/xc32/v2.15/bin/bin/../../lib/gcc/pic32mx/4.8.3/../../../../pic32mx/lib/libe.a(_ldexp.o)
 .bss           0x00000000        0x0 /Applications/microchip/xc32/v2.15/bin/bin/../../lib/gcc/pic32mx/4.8.3/../../../../pic32mx/lib/libe.a(_ldexp.o)
 .reginfo       0x00000000       0x18 /Applications/microchip/xc32/v2.15/bin/bin/../../lib/gcc/pic32mx/4.8.3/../../../../pic32mx/lib/libe.a(_ldexp.o)
 .text          0x00000000        0x0 /Applications/microchip/xc32/v2.15/bin/bin/../../lib/gcc/pic32mx/4.8.3/../../../../pic32mx/lib/libe.a(_ldexpf.o)
 .data          0x00000000        0x0 /Applications/microchip/xc32/v2.15/bin/bin/../../lib/gcc/pic32mx/4.8.3/../../../../pic32mx/lib/libe.a(_ldexpf.o)
 .bss           0x00000000        0x0 /Applications/microchip/xc32/v2.15/bin/bin/../../lib/gcc/pic32mx/4.8.3/../../../../pic32mx/lib/libe.a(_ldexpf.o)
 .reginfo       0x00000000       0x18 /Applications/microchip/xc32/v2.15/bin/bin/../../lib/gcc/pic32mx/4.8.3/../../../../pic32mx/lib/libe.a(_ldexpf.o)
 .text          0x00000000        0x0 /Applications/microchip/xc32/v2.15/bin/bin/../../lib/gcc/pic32mx/4.8.3/../../../../pic32mx/lib/libe.a(_fixdfdi.o)
 .data          0x00000000        0x0 /Applications/microchip/xc32/v2.15/bin/bin/../../lib/gcc/pic32mx/4.8.3/../../../../pic32mx/lib/libe.a(_fixdfdi.o)
 .bss           0x00000000        0x0 /Applications/microchip/xc32/v2.15/bin/bin/../../lib/gcc/pic32mx/4.8.3/../../../../pic32mx/lib/libe.a(_fixdfdi.o)
 .reginfo       0x00000000       0x18 /Applications/microchip/xc32/v2.15/bin/bin/../../lib/gcc/pic32mx/4.8.3/../../../../pic32mx/lib/libe.a(_fixdfdi.o)
 .data          0x00000000        0x0 /Applications/microchip/xc32/v2.15/bin/bin/../../lib/gcc/pic32mx/4.8.3/libgcc.a(_lshrdi3.o)
 .bss           0x00000000        0x0 /Applications/microchip/xc32/v2.15/bin/bin/../../lib/gcc/pic32mx/4.8.3/libgcc.a(_lshrdi3.o)
 .reginfo       0x00000000       0x18 /Applications/microchip/xc32/v2.15/bin/bin/../../lib/gcc/pic32mx/4.8.3/libgcc.a(_lshrdi3.o)
 .data          0x00000000        0x0 /Applications/microchip/xc32/v2.15/bin/bin/../../lib/gcc/pic32mx/4.8.3/libgcc.a(_ashldi3.o)
 .bss           0x00000000        0x0 /Applications/microchip/xc32/v2.15/bin/bin/../../lib/gcc/pic32mx/4.8.3/libgcc.a(_ashldi3.o)
 .reginfo       0x00000000       0x18 /Applications/microchip/xc32/v2.15/bin/bin/../../lib/gcc/pic32mx/4.8.3/libgcc.a(_ashldi3.o)
 .data          0x00000000        0x0 /Applications/microchip/xc32/v2.15/bin/bin/../../lib/gcc/pic32mx/4.8.3/libgcc.a(_floatundidf.o)
 .bss           0x00000000        0x0 /Applications/microchip/xc32/v2.15/bin/bin/../../lib/gcc/pic32mx/4.8.3/libgcc.a(_floatundidf.o)
 .reginfo       0x00000000       0x18 /Applications/microchip/xc32/v2.15/bin/bin/../../lib/gcc/pic32mx/4.8.3/libgcc.a(_floatundidf.o)
 .data          0x00000000        0x0 /Applications/microchip/xc32/v2.15/bin/bin/../../lib/gcc/pic32mx/4.8.3/libgcc.a(_udivdi3.o)
 .bss           0x00000000        0x0 /Applications/microchip/xc32/v2.15/bin/bin/../../lib/gcc/pic32mx/4.8.3/libgcc.a(_udivdi3.o)
 .reginfo       0x00000000       0x18 /Applications/microchip/xc32/v2.15/bin/bin/../../lib/gcc/pic32mx/4.8.3/libgcc.a(_udivdi3.o)
 .data          0x00000000        0x0 /Applications/microchip/xc32/v2.15/bin/bin/../../lib/gcc/pic32mx/4.8.3/libgcc.a(_umoddi3.o)
 .bss           0x00000000        0x0 /Applications/microchip/xc32/v2.15/bin/bin/../../lib/gcc/pic32mx/4.8.3/libgcc.a(_umoddi3.o)
 .reginfo       0x00000000       0x18 /Applications/microchip/xc32/v2.15/bin/bin/../../lib/gcc/pic32mx/4.8.3/libgcc.a(_umoddi3.o)
 .data          0x00000000        0x0 /Applications/microchip/xc32/v2.15/bin/bin/../../lib/gcc/pic32mx/4.8.3/libgcc.a(floatunsidf.o)
 .bss           0x00000000        0x0 /Applications/microchip/xc32/v2.15/bin/bin/../../lib/gcc/pic32mx/4.8.3/libgcc.a(floatunsidf.o)
 .reginfo       0x00000000       0x18 /Applications/microchip/xc32/v2.15/bin/bin/../../lib/gcc/pic32mx/4.8.3/libgcc.a(floatunsidf.o)
 .text          0x00000000        0x0 /Applications/microchip/xc32/v2.15/bin/bin/../../lib/gcc/pic32mx/4.8.3/../../../../pic32mx/lib/libpic32.a(sbrk.o)
 .data          0x00000000        0x0 /Applications/microchip/xc32/v2.15/bin/bin/../../lib/gcc/pic32mx/4.8.3/../../../../pic32mx/lib/libpic32.a(sbrk.o)
 .bss           0x00000000       0x24 /Applications/microchip/xc32/v2.15/bin/bin/../../lib/gcc/pic32mx/4.8.3/../../../../pic32mx/lib/libpic32.a(sbrk.o)
 .reginfo       0x00000000       0x18 /Applications/microchip/xc32/v2.15/bin/bin/../../lib/gcc/pic32mx/4.8.3/../../../../pic32mx/lib/libpic32.a(sbrk.o)
 .text.getpagesize
                0x00000000        0x8 /Applications/microchip/xc32/v2.15/bin/bin/../../lib/gcc/pic32mx/4.8.3/../../../../pic32mx/lib/libpic32.a(sbrk.o)
 .text._stub_sbd_memlayout
                0x00000000       0x2c /Applications/microchip/xc32/v2.15/bin/bin/../../lib/gcc/pic32mx/4.8.3/../../../../pic32mx/lib/libpic32.a(sbrk.o)
 .text._sbrk_init
                0x00000000      0x194 /Applications/microchip/xc32/v2.15/bin/bin/../../lib/gcc/pic32mx/4.8.3/../../../../pic32mx/lib/libpic32.a(sbrk.o)
 .text._sbrk    0x00000000       0xc8 /Applications/microchip/xc32/v2.15/bin/bin/../../lib/gcc/pic32mx/4.8.3/../../../../pic32mx/lib/libpic32.a(sbrk.o)
 .text.sbrk     0x00000000       0x50 /Applications/microchip/xc32/v2.15/bin/bin/../../lib/gcc/pic32mx/4.8.3/../../../../pic32mx/lib/libpic32.a(sbrk.o)
 .text          0x00000000        0x0 /Applications/microchip/xc32/v2.15/bin/bin/../../lib/gcc/pic32mx/4.8.3/../../../../pic32mx/lib/libpic32.a(read.o)
 .data          0x00000000        0x0 /Applications/microchip/xc32/v2.15/bin/bin/../../lib/gcc/pic32mx/4.8.3/../../../../pic32mx/lib/libpic32.a(read.o)
 .bss           0x00000000        0x0 /Applications/microchip/xc32/v2.15/bin/bin/../../lib/gcc/pic32mx/4.8.3/../../../../pic32mx/lib/libpic32.a(read.o)
 .reginfo       0x00000000       0x18 /Applications/microchip/xc32/v2.15/bin/bin/../../lib/gcc/pic32mx/4.8.3/../../../../pic32mx/lib/libpic32.a(read.o)
 .text          0x00000000        0x0 /Applications/microchip/xc32/v2.15/bin/bin/../../lib/gcc/pic32mx/4.8.3/../../../../pic32mx/lib/libpic32.a(write.o)
 .data          0x00000000        0x0 /Applications/microchip/xc32/v2.15/bin/bin/../../lib/gcc/pic32mx/4.8.3/../../../../pic32mx/lib/libpic32.a(write.o)
 .bss           0x00000000        0x0 /Applications/microchip/xc32/v2.15/bin/bin/../../lib/gcc/pic32mx/4.8.3/../../../../pic32mx/lib/libpic32.a(write.o)
 .reginfo       0x00000000       0x18 /Applications/microchip/xc32/v2.15/bin/bin/../../lib/gcc/pic32mx/4.8.3/../../../../pic32mx/lib/libpic32.a(write.o)
 .text          0x00000000        0x0 /Applications/microchip/xc32/v2.15/bin/bin/../../lib/gcc/pic32mx/4.8.3/../../../../pic32mx/lib/libpic32.a(xc32_uart.o)
 .data          0x00000000        0x0 /Applications/microchip/xc32/v2.15/bin/bin/../../lib/gcc/pic32mx/4.8.3/../../../../pic32mx/lib/libpic32.a(xc32_uart.o)
 .bss           0x00000000        0x0 /Applications/microchip/xc32/v2.15/bin/bin/../../lib/gcc/pic32mx/4.8.3/../../../../pic32mx/lib/libpic32.a(xc32_uart.o)
 .reginfo       0x00000000       0x18 /Applications/microchip/xc32/v2.15/bin/bin/../../lib/gcc/pic32mx/4.8.3/../../../../pic32mx/lib/libpic32.a(xc32_uart.o)
 .text          0x00000000        0x0 /Applications/microchip/xc32/v2.15/bin/bin/../../lib/gcc/pic32mx/4.8.3/../../../../pic32mx/lib/libpic32.a(errno.o)
 .data          0x00000000        0x0 /Applications/microchip/xc32/v2.15/bin/bin/../../lib/gcc/pic32mx/4.8.3/../../../../pic32mx/lib/libpic32.a(errno.o)
 .bss           0x00000000        0x0 /Applications/microchip/xc32/v2.15/bin/bin/../../lib/gcc/pic32mx/4.8.3/../../../../pic32mx/lib/libpic32.a(errno.o)
 .reginfo       0x00000000       0x18 /Applications/microchip/xc32/v2.15/bin/bin/../../lib/gcc/pic32mx/4.8.3/../../../../pic32mx/lib/libpic32.a(errno.o)
 .text          0x00000000        0x0 /Applications/microchip/xc32/v2.15/bin/bin/../../lib/gcc/pic32mx/4.8.3/../../../../pic32mx/lib/libpic32.a(isinf.o)
 .data          0x00000000        0x0 /Applications/microchip/xc32/v2.15/bin/bin/../../lib/gcc/pic32mx/4.8.3/../../../../pic32mx/lib/libpic32.a(isinf.o)
 .bss           0x00000000        0x0 /Applications/microchip/xc32/v2.15/bin/bin/../../lib/gcc/pic32mx/4.8.3/../../../../pic32mx/lib/libpic32.a(isinf.o)
 .reginfo       0x00000000       0x18 /Applications/microchip/xc32/v2.15/bin/bin/../../lib/gcc/pic32mx/4.8.3/../../../../pic32mx/lib/libpic32.a(isinf.o)
 .text.isnanl   0x00000000       0x28 /Applications/microchip/xc32/v2.15/bin/bin/../../lib/gcc/pic32mx/4.8.3/../../../../pic32mx/lib/libpic32.a(isinf.o)
 .text.isnan    0x00000000       0x34 /Applications/microchip/xc32/v2.15/bin/bin/../../lib/gcc/pic32mx/4.8.3/../../../../pic32mx/lib/libpic32.a(isinf.o)
 .text.isnanf   0x00000000       0x34 /Applications/microchip/xc32/v2.15/bin/bin/../../lib/gcc/pic32mx/4.8.3/../../../../pic32mx/lib/libpic32.a(isinf.o)
 .text.isinf    0x00000000       0x8c /Applications/microchip/xc32/v2.15/bin/bin/../../lib/gcc/pic32mx/4.8.3/../../../../pic32mx/lib/libpic32.a(isinf.o)
 .text.isinff   0x00000000       0x8c /Applications/microchip/xc32/v2.15/bin/bin/../../lib/gcc/pic32mx/4.8.3/../../../../pic32mx/lib/libpic32.a(isinf.o)
 .rodata        0x00000000        0x8 /Applications/microchip/xc32/v2.15/bin/bin/../../lib/gcc/pic32mx/4.8.3/../../../../pic32mx/lib/libpic32.a(isinf.o)
 .text          0x00000000        0x0 /Applications/microchip/xc32/v2.15/bin/bin/../../lib/gcc/pic32mx/4.8.3/../../../../pic32mx/lib/libpic32.a(_mon_putc.o)
 .data          0x00000000        0x0 /Applications/microchip/xc32/v2.15/bin/bin/../../lib/gcc/pic32mx/4.8.3/../../../../pic32mx/lib/libpic32.a(_mon_putc.o)
 .bss           0x00000000        0x0 /Applications/microchip/xc32/v2.15/bin/bin/../../lib/gcc/pic32mx/4.8.3/../../../../pic32mx/lib/libpic32.a(_mon_putc.o)
 .reginfo       0x00000000       0x18 /Applications/microchip/xc32/v2.15/bin/bin/../../lib/gcc/pic32mx/4.8.3/../../../../pic32mx/lib/libpic32.a(_mon_putc.o)
 .text          0x00000000        0x0 /Applications/microchip/xc32/v2.15/bin/bin/../../lib/gcc/pic32mx/4.8.3/../../../../pic32mx/lib/libe.a(_unorddf2.o)
 .data          0x00000000        0x0 /Applications/microchip/xc32/v2.15/bin/bin/../../lib/gcc/pic32mx/4.8.3/../../../../pic32mx/lib/libe.a(_unorddf2.o)
 .bss           0x00000000        0x0 /Applications/microchip/xc32/v2.15/bin/bin/../../lib/gcc/pic32mx/4.8.3/../../../../pic32mx/lib/libe.a(_unorddf2.o)
 .reginfo       0x00000000       0x18 /Applications/microchip/xc32/v2.15/bin/bin/../../lib/gcc/pic32mx/4.8.3/../../../../pic32mx/lib/libe.a(_unorddf2.o)
 .text.__unorddf2
                0x00000000       0x64 /Applications/microchip/xc32/v2.15/bin/bin/../../lib/gcc/pic32mx/4.8.3/../../../../pic32mx/lib/libe.a(_unorddf2.o)

Memory Configuration

Name             Origin             Length             Attributes
kseg0_program_mem 0x9d000000         0x00080000         xr
kseg0_boot_mem   0x9fc00490         0x00000970
exception_mem    0x9fc01000         0x00001000
kseg1_boot_mem   0xbfc00000         0x00000490
debug_exec_mem   0xbfc02000         0x00000ff0
config3          0xbfc02ff0         0x00000004
config2          0xbfc02ff4         0x00000004
config1          0xbfc02ff8         0x00000004
config0          0xbfc02ffc         0x00000004
kseg1_data_mem   0xa0000000         0x00020000         w !x
sfrs             0xbf800000         0x00100000
configsfrs       0xbfc02ff0         0x00000010
*default*        0x00000000         0xffffffff

Linker script and memory map

LOAD /Applications/microchip/xc32/v2.15/bin/bin/../../lib/gcc/pic32mx/4.8.3/../../../../pic32mx/lib/debug-exception-return.o
LOAD build/Board2/production/_ext/1351229741/drv_oc_mapping.o
LOAD build/Board2/production/_ext/1351229741/drv_oc_static.o
LOAD build/Board2/production/_ext/1550245252/drv_tmr_static.o
LOAD build/Board2/production/_ext/1550245252/drv_tmr_mapping.o
LOAD build/Board2/production/_ext/794052624/drv_usart_mapping.o
LOAD build/Board2/production/_ext/794052624/drv_usart_static.o
LOAD build/Board2/production/_ext/794052624/drv_usart_static_byte_model.o
LOAD build/Board2/production/_ext/697674732/sys_clk_pic32mx.o
LOAD build/Board2/production/_ext/733479835/sys_devcon.o
LOAD build/Board2/production/_ext/733479835/sys_devcon_pic32mx.o
LOAD build/Board2/production/_ext/1943101500/sys_ports_static.o
LOAD build/Board2/production/_ext/1445490755/system_init.o
LOAD build/Board2/production/_ext/1445490755/system_interrupt.o
LOAD build/Board2/production/_ext/1445490755/system_exceptions.o
LOAD build/Board2/production/_ext/1445490755/system_tasks.o
LOAD build/Board2/production/_ext/1445490755/system_interrupt_a.o
LOAD build/Board2/production/_ext/1445490755/rtos_hooks.o
LOAD build/Board2/production/_ext/1360937237/game_app.o
LOAD build/Board2/production/_ext/1360937237/wifi_app.o
LOAD build/Board2/production/_ext/1360937237/main.o
LOAD build/Board2/production/_ext/334398652/cJSON.o
LOAD build/Board2/production/_ext/334398652/debug.o
LOAD build/Board2/production/_ext/334398652/http.o
LOAD build/Board2/production/_ext/334398652/wifi_queue.o
LOAD build/Board2/production/_ext/334398652/wifi_state.o
LOAD build/Board2/production/_ext/334398652/wifi_timer.o
LOAD build/Board2/production/_ext/334398652/game_queue.o
LOAD build/Board2/production/_ext/334398652/game_state.o
LOAD build/Board2/production/_ext/334398652/game_timer.o
LOAD build/Board2/production/_ext/1043444669/osal_freertos.o
LOAD build/Board2/production/_ext/249303043/sys_int_pic32.o
LOAD build/Board2/production/_ext/905643201/heap_2.o
LOAD build/Board2/production/_ext/331515796/port.o
LOAD build/Board2/production/_ext/331515796/port_asm.o
LOAD build/Board2/production/_ext/1539584926/croutine.o
LOAD build/Board2/production/_ext/1539584926/list.o
LOAD build/Board2/production/_ext/1539584926/queue.o
LOAD build/Board2/production/_ext/1539584926/tasks.o
LOAD build/Board2/production/_ext/1539584926/timers.o
LOAD build/Board2/production/_ext/1539584926/event_groups.o
LOAD build/Board2/production/_ext/1539584926/stream_buffer.o
LOAD ../../../../microchip/harmony/v2_06/bin/framework/peripheral/PIC32MX795F512L_peripherals.a
                0x00000001                __MPLAB_BUILD = 0x1
                0x00000000                _min_heap_size = 0x0
LOAD /var/folders/d5/v4194pgj4rldzq4h08l7349w0000gn/T//ccciZ2NH.o
LOAD /var/folders/d5/v4194pgj4rldzq4h08l7349w0000gn/T//ccLSePJ3.o
LOAD /var/folders/d5/v4194pgj4rldzq4h08l7349w0000gn/T//ccoXvRWj.o
LOAD /Applications/microchip/xc32/v2.15/bin/bin/../../lib/gcc/pic32mx/4.8.3/../../../../pic32mx/lib/./proc/32MX795F512L/default_isr_vectors.o
LOAD /Applications/microchip/xc32/v2.15/bin/bin/../../lib/gcc/pic32mx/4.8.3/../../../../pic32mx/lib/pic32_software_reset.o
                0x00000400                PROVIDE (_min_stack_size, 0x400)
START GROUP
LOAD /Applications/microchip/xc32/v2.15/bin/bin/../../lib/gcc/pic32mx/4.8.3/../../../../pic32mx/lib/./proc/32MX795F512L/processor.o
END GROUP
START GROUP
LOAD libmchp_peripheral.a
END GROUP
START GROUP
LOAD libmchp_peripheral_32MX795F512L.a
END GROUP
                0x00000001                PROVIDE (_vector_spacing, 0x1)
                0x9fc01000                PROVIDE (_ebase_address, 0x9fc01000)
                0xbfc00000                _RESET_ADDR = 0xbfc00000
                0xbfc00380                _BEV_EXCPT_ADDR = 0xbfc00380
                0xbfc00480                _DBG_EXCPT_ADDR = 0xbfc00480
                0xbfc02000                _DBG_CODE_ADDR = 0xbfc02000
                0x00000ff0                _DBG_CODE_SIZE = 0xff0
                0x9fc01180                _GEN_EXCPT_ADDR = (_ebase_address + 0x180)

.config_BFC02FF0
                0xbfc02ff0        0x4
 *(.config_BFC02FF0)
 .config_BFC02FF0
                0xbfc02ff0        0x4 build/Board2/production/_ext/1445490755/system_init.o

.config_BFC02FF4
                0xbfc02ff4        0x4
 *(.config_BFC02FF4)
 .config_BFC02FF4
                0xbfc02ff4        0x4 build/Board2/production/_ext/1445490755/system_init.o

.config_BFC02FF8
                0xbfc02ff8        0x4
 *(.config_BFC02FF8)
 .config_BFC02FF8
                0xbfc02ff8        0x4 build/Board2/production/_ext/1445490755/system_init.o

.config_BFC02FFC
                0xbfc02ffc        0x4
 *(.config_BFC02FFC)
 .config_BFC02FFC
                0xbfc02ffc        0x4 build/Board2/production/_ext/1445490755/system_init.o
                0xbfc02000                PROVIDE (_DBG_CODE_ADDR, 0xbfc02000)
                0x00000ff0                PROVIDE (_DBG_CODE_SIZE, 0xff0)

.reset          0xbfc00000      0x1a8
 *(.reset)
 .reset         0xbfc00000        0x8 /var/folders/d5/v4194pgj4rldzq4h08l7349w0000gn/T//ccciZ2NH.o
                0xbfc00000                _reset
 *(.reset.startup)
 .reset.startup
                0xbfc00008      0x1a0 /var/folders/d5/v4194pgj4rldzq4h08l7349w0000gn/T//ccciZ2NH.o
                0xbfc00008                _startup

.bev_excpt      0xbfc00380       0x10
 *(.bev_handler)
 .bev_handler   0xbfc00380       0x10 /var/folders/d5/v4194pgj4rldzq4h08l7349w0000gn/T//ccciZ2NH.o

.dbg_excpt      0xbfc00480        0x0
                0xbfc00480                . = (. + DEFINED (_DEBUGGER)?0x8:0x0)

.dbg_code       0xbfc02000        0x0
                0xbfc02000                . = (. + DEFINED (_DEBUGGER)?_DBG_CODE_SIZE:0x0)

.app_excpt      0x9fc01180       0x10
 *(.gen_handler)
 .gen_handler   0x9fc01180       0x10 /var/folders/d5/v4194pgj4rldzq4h08l7349w0000gn/T//ccciZ2NH.o

.vector_0       0x9fc01200        0x8
 *(.vector_0)
 .vector_0      0x9fc01200        0x8 /Applications/microchip/xc32/v2.15/bin/bin/../../lib/gcc/pic32mx/4.8.3/../../../../pic32mx/lib/libpic32.a(vector0.o)
                0x9fc01200                __vector_dispatch_0
                0x00000001                ASSERT (((_vector_spacing == 0x0) || (SIZEOF (.vector_0) <= (_vector_spacing << 0x5))), function at exception vector 0 too large)

.vector_1       0x9fc01220        0x8
 *(.vector_1)
 .vector_1      0x9fc01220        0x8 build/Board2/production/_ext/331515796/port.o
                0x9fc01220                __vector_dispatch_1
                0x00000001                ASSERT (((_vector_spacing == 0x0) || (SIZEOF (.vector_1) <= (_vector_spacing << 0x5))), function at exception vector 1 too large)

.vector_2       0x9fc01240        0x8
 *(.vector_2)
 .vector_2      0x9fc01240        0x8 /Applications/microchip/xc32/v2.15/bin/bin/../../lib/gcc/pic32mx/4.8.3/../../../../pic32mx/lib/libpic32.a(vector2.o)
                0x9fc01240                __vector_dispatch_2
                0x00000001                ASSERT (((_vector_spacing == 0x0) || (SIZEOF (.vector_2) <= (_vector_spacing << 0x5))), function at exception vector 2 too large)

.vector_3       0x9fc01260        0x8
 *(.vector_3)
 .vector_3      0x9fc01260        0x8 /Applications/microchip/xc32/v2.15/bin/bin/../../lib/gcc/pic32mx/4.8.3/../../../../pic32mx/lib/libpic32.a(vector3.o)
                0x9fc01260                __vector_dispatch_3
                0x00000001                ASSERT (((_vector_spacing == 0x0) || (SIZEOF (.vector_3) <= (_vector_spacing << 0x5))), function at exception vector 3 too large)

.vector_4       0x9fc01280        0x8
 *(.vector_4)
 .vector_4      0x9fc01280        0x8 build/Board2/production/_ext/331515796/port.o
                0x9fc01280                __vector_dispatch_4
                0x00000001                ASSERT (((_vector_spacing == 0x0) || (SIZEOF (.vector_4) <= (_vector_spacing << 0x5))), function at exception vector 4 too large)

.vector_5       0x9fc012a0        0x8
 *(.vector_5)
 .vector_5      0x9fc012a0        0x8 /Applications/microchip/xc32/v2.15/bin/bin/../../lib/gcc/pic32mx/4.8.3/../../../../pic32mx/lib/libpic32.a(vector5.o)
                0x9fc012a0                __vector_dispatch_5
                0x00000001                ASSERT (((_vector_spacing == 0x0) || (SIZEOF (.vector_5) <= (_vector_spacing << 0x5))), function at exception vector 5 too large)

.vector_6       0x9fc012c0        0x8
 *(.vector_6)
 .vector_6      0x9fc012c0        0x8 /Applications/microchip/xc32/v2.15/bin/bin/../../lib/gcc/pic32mx/4.8.3/../../../../pic32mx/lib/libpic32.a(vector6.o)
                0x9fc012c0                __vector_dispatch_6
                0x00000001                ASSERT (((_vector_spacing == 0x0) || (SIZEOF (.vector_6) <= (_vector_spacing << 0x5))), function at exception vector 6 too large)

.vector_7       0x9fc012e0        0x8
 *(.vector_7)
 .vector_7      0x9fc012e0        0x8 /Applications/microchip/xc32/v2.15/bin/bin/../../lib/gcc/pic32mx/4.8.3/../../../../pic32mx/lib/libpic32.a(vector7.o)
                0x9fc012e0                __vector_dispatch_7
                0x00000001                ASSERT (((_vector_spacing == 0x0) || (SIZEOF (.vector_7) <= (_vector_spacing << 0x5))), function at exception vector 7 too large)

.vector_8       0x9fc01300       0x10
 *(.vector_8)
 .vector_8      0x9fc01300       0x10 build/Board2/production/_ext/1445490755/system_interrupt_a.o
                0x9fc01300                __vector_dispatch_8
                0x00000001                ASSERT (((_vector_spacing == 0x0) || (SIZEOF (.vector_8) <= (_vector_spacing << 0x5))), function at exception vector 8 too large)

.vector_9       0x9fc01320        0x8
 *(.vector_9)
 .vector_9      0x9fc01320        0x8 /Applications/microchip/xc32/v2.15/bin/bin/../../lib/gcc/pic32mx/4.8.3/../../../../pic32mx/lib/libpic32.a(vector9.o)
                0x9fc01320                __vector_dispatch_9
                0x00000001                ASSERT (((_vector_spacing == 0x0) || (SIZEOF (.vector_9) <= (_vector_spacing << 0x5))), function at exception vector 9 too large)

.vector_10      0x9fc01340        0x8
 *(.vector_10)
 .vector_10     0x9fc01340        0x8 /Applications/microchip/xc32/v2.15/bin/bin/../../lib/gcc/pic32mx/4.8.3/../../../../pic32mx/lib/libpic32.a(vector10.o)
                0x9fc01340                __vector_dispatch_10
                0x00000001                ASSERT (((_vector_spacing == 0x0) || (SIZEOF (.vector_10) <= (_vector_spacing << 0x5))), function at exception vector 10 too large)

.vector_11      0x9fc01360        0x8
 *(.vector_11)
 .vector_11     0x9fc01360        0x8 /Applications/microchip/xc32/v2.15/bin/bin/../../lib/gcc/pic32mx/4.8.3/../../../../pic32mx/lib/libpic32.a(vector11.o)
                0x9fc01360                __vector_dispatch_11
                0x00000001                ASSERT (((_vector_spacing == 0x0) || (SIZEOF (.vector_11) <= (_vector_spacing << 0x5))), function at exception vector 11 too large)

.vector_12      0x9fc01380       0x10
 *(.vector_12)
 .vector_12     0x9fc01380       0x10 build/Board2/production/_ext/1445490755/system_interrupt_a.o
                0x9fc01380                __vector_dispatch_12
                0x00000001                ASSERT (((_vector_spacing == 0x0) || (SIZEOF (.vector_12) <= (_vector_spacing << 0x5))), function at exception vector 12 too large)

.vector_13      0x9fc013a0        0x8
 *(.vector_13)
 .vector_13     0x9fc013a0        0x8 /Applications/microchip/xc32/v2.15/bin/bin/../../lib/gcc/pic32mx/4.8.3/../../../../pic32mx/lib/libpic32.a(vector13.o)
                0x9fc013a0                __vector_dispatch_13
                0x00000001                ASSERT (((_vector_spacing == 0x0) || (SIZEOF (.vector_13) <= (_vector_spacing << 0x5))), function at exception vector 13 too large)

.vector_14      0x9fc013c0        0x8
 *(.vector_14)
 .vector_14     0x9fc013c0        0x8 /Applications/microchip/xc32/v2.15/bin/bin/../../lib/gcc/pic32mx/4.8.3/../../../../pic32mx/lib/libpic32.a(vector14.o)
                0x9fc013c0                __vector_dispatch_14
                0x00000001                ASSERT (((_vector_spacing == 0x0) || (SIZEOF (.vector_14) <= (_vector_spacing << 0x5))), function at exception vector 14 too large)

.vector_15      0x9fc013e0        0x8
 *(.vector_15)
 .vector_15     0x9fc013e0        0x8 /Applications/microchip/xc32/v2.15/bin/bin/../../lib/gcc/pic32mx/4.8.3/../../../../pic32mx/lib/libpic32.a(vector15.o)
                0x9fc013e0                __vector_dispatch_15
                0x00000001                ASSERT (((_vector_spacing == 0x0) || (SIZEOF (.vector_15) <= (_vector_spacing << 0x5))), function at exception vector 15 too large)

.vector_16      0x9fc01400        0x8
 *(.vector_16)
 .vector_16     0x9fc01400        0x8 /Applications/microchip/xc32/v2.15/bin/bin/../../lib/gcc/pic32mx/4.8.3/../../../../pic32mx/lib/libpic32.a(vector16.o)
                0x9fc01400                __vector_dispatch_16
                0x00000001                ASSERT (((_vector_spacing == 0x0) || (SIZEOF (.vector_16) <= (_vector_spacing << 0x5))), function at exception vector 16 too large)

.vector_17      0x9fc01420        0x8
 *(.vector_17)
 .vector_17     0x9fc01420        0x8 /Applications/microchip/xc32/v2.15/bin/bin/../../lib/gcc/pic32mx/4.8.3/../../../../pic32mx/lib/libpic32.a(vector17.o)
                0x9fc01420                __vector_dispatch_17
                0x00000001                ASSERT (((_vector_spacing == 0x0) || (SIZEOF (.vector_17) <= (_vector_spacing << 0x5))), function at exception vector 17 too large)

.vector_18      0x9fc01440        0x8
 *(.vector_18)
 .vector_18     0x9fc01440        0x8 /Applications/microchip/xc32/v2.15/bin/bin/../../lib/gcc/pic32mx/4.8.3/../../../../pic32mx/lib/libpic32.a(vector18.o)
                0x9fc01440                __vector_dispatch_18
                0x00000001                ASSERT (((_vector_spacing == 0x0) || (SIZEOF (.vector_18) <= (_vector_spacing << 0x5))), function at exception vector 18 too large)

.vector_19      0x9fc01460        0x8
 *(.vector_19)
 .vector_19     0x9fc01460        0x8 /Applications/microchip/xc32/v2.15/bin/bin/../../lib/gcc/pic32mx/4.8.3/../../../../pic32mx/lib/libpic32.a(vector19.o)
                0x9fc01460                __vector_dispatch_19
                0x00000001                ASSERT (((_vector_spacing == 0x0) || (SIZEOF (.vector_19) <= (_vector_spacing << 0x5))), function at exception vector 19 too large)

.vector_20      0x9fc01480       0x10
 *(.vector_20)
 .vector_20     0x9fc01480       0x10 build/Board2/production/_ext/1445490755/system_interrupt_a.o
                0x9fc01480                __vector_dispatch_20
                0x00000001                ASSERT (((_vector_spacing == 0x0) || (SIZEOF (.vector_20) <= (_vector_spacing << 0x5))), function at exception vector 20 too large)

.vector_21      0x9fc014a0        0x8
 *(.vector_21)
 .vector_21     0x9fc014a0        0x8 /Applications/microchip/xc32/v2.15/bin/bin/../../lib/gcc/pic32mx/4.8.3/../../../../pic32mx/lib/libpic32.a(vector21.o)
                0x9fc014a0                __vector_dispatch_21
                0x00000001                ASSERT (((_vector_spacing == 0x0) || (SIZEOF (.vector_21) <= (_vector_spacing << 0x5))), function at exception vector 21 too large)

.vector_22      0x9fc014c0        0x8
 *(.vector_22)
 .vector_22     0x9fc014c0        0x8 /Applications/microchip/xc32/v2.15/bin/bin/../../lib/gcc/pic32mx/4.8.3/../../../../pic32mx/lib/libpic32.a(vector22.o)
                0x9fc014c0                __vector_dispatch_22
                0x00000001                ASSERT (((_vector_spacing == 0x0) || (SIZEOF (.vector_22) <= (_vector_spacing << 0x5))), function at exception vector 22 too large)

.vector_23      0x9fc014e0        0x8
 *(.vector_23)
 .vector_23     0x9fc014e0        0x8 /Applications/microchip/xc32/v2.15/bin/bin/../../lib/gcc/pic32mx/4.8.3/../../../../pic32mx/lib/libpic32.a(vector23.o)
                0x9fc014e0                __vector_dispatch_23
                0x00000001                ASSERT (((_vector_spacing == 0x0) || (SIZEOF (.vector_23) <= (_vector_spacing << 0x5))), function at exception vector 23 too large)

.vector_24      0x9fc01500       0x10
 *(.vector_24)
 .vector_24     0x9fc01500       0x10 build/Board2/production/_ext/1445490755/system_interrupt_a.o
                0x9fc01500                __vector_dispatch_24
                0x00000001                ASSERT (((_vector_spacing == 0x0) || (SIZEOF (.vector_24) <= (_vector_spacing << 0x5))), function at exception vector 24 too large)

.vector_25      0x9fc01520        0x8
 *(.vector_25)
 .vector_25     0x9fc01520        0x8 /Applications/microchip/xc32/v2.15/bin/bin/../../lib/gcc/pic32mx/4.8.3/../../../../pic32mx/lib/libpic32.a(vector25.o)
                0x9fc01520                __vector_dispatch_25
                0x00000001                ASSERT (((_vector_spacing == 0x0) || (SIZEOF (.vector_25) <= (_vector_spacing << 0x5))), function at exception vector 25 too large)

.vector_26      0x9fc01540        0x8
 *(.vector_26)
 .vector_26     0x9fc01540        0x8 /Applications/microchip/xc32/v2.15/bin/bin/../../lib/gcc/pic32mx/4.8.3/../../../../pic32mx/lib/libpic32.a(vector26.o)
                0x9fc01540                __vector_dispatch_26
                0x00000001                ASSERT (((_vector_spacing == 0x0) || (SIZEOF (.vector_26) <= (_vector_spacing << 0x5))), function at exception vector 26 too large)

.vector_27      0x9fc01560        0x8
 *(.vector_27)
 .vector_27     0x9fc01560        0x8 /Applications/microchip/xc32/v2.15/bin/bin/../../lib/gcc/pic32mx/4.8.3/../../../../pic32mx/lib/libpic32.a(vector27.o)
                0x9fc01560                __vector_dispatch_27
                0x00000001                ASSERT (((_vector_spacing == 0x0) || (SIZEOF (.vector_27) <= (_vector_spacing << 0x5))), function at exception vector 27 too large)

.vector_28      0x9fc01580        0x8
 *(.vector_28)
 .vector_28     0x9fc01580        0x8 /Applications/microchip/xc32/v2.15/bin/bin/../../lib/gcc/pic32mx/4.8.3/../../../../pic32mx/lib/libpic32.a(vector28.o)
                0x9fc01580                __vector_dispatch_28
                0x00000001                ASSERT (((_vector_spacing == 0x0) || (SIZEOF (.vector_28) <= (_vector_spacing << 0x5))), function at exception vector 28 too large)

.vector_29      0x9fc015a0        0x8
 *(.vector_29)
 .vector_29     0x9fc015a0        0x8 /Applications/microchip/xc32/v2.15/bin/bin/../../lib/gcc/pic32mx/4.8.3/../../../../pic32mx/lib/libpic32.a(vector29.o)
                0x9fc015a0                __vector_dispatch_29
                0x00000001                ASSERT (((_vector_spacing == 0x0) || (SIZEOF (.vector_29) <= (_vector_spacing << 0x5))), function at exception vector 29 too large)

.vector_30      0x9fc015c0        0x8
 *(.vector_30)
 .vector_30     0x9fc015c0        0x8 /Applications/microchip/xc32/v2.15/bin/bin/../../lib/gcc/pic32mx/4.8.3/../../../../pic32mx/lib/libpic32.a(vector30.o)
                0x9fc015c0                __vector_dispatch_30
                0x00000001                ASSERT (((_vector_spacing == 0x0) || (SIZEOF (.vector_30) <= (_vector_spacing << 0x5))), function at exception vector 30 too large)

.vector_31      0x9fc015e0        0x8
 *(.vector_31)
 .vector_31     0x9fc015e0        0x8 /Applications/microchip/xc32/v2.15/bin/bin/../../lib/gcc/pic32mx/4.8.3/../../../../pic32mx/lib/libpic32.a(vector31.o)
                0x9fc015e0                __vector_dispatch_31
                0x00000001                ASSERT (((_vector_spacing == 0x0) || (SIZEOF (.vector_31) <= (_vector_spacing << 0x5))), function at exception vector 31 too large)

.vector_32      0x9fc01600        0x8
 *(.vector_32)
 .vector_32     0x9fc01600        0x8 /Applications/microchip/xc32/v2.15/bin/bin/../../lib/gcc/pic32mx/4.8.3/../../../../pic32mx/lib/libpic32.a(vector32.o)
                0x9fc01600                __vector_dispatch_32
                0x00000001                ASSERT (((_vector_spacing == 0x0) || (SIZEOF (.vector_32) <= (_vector_spacing << 0x5))), function at exception vector 32 too large)

.vector_33      0x9fc01620        0x8
 *(.vector_33)
 .vector_33     0x9fc01620        0x8 /Applications/microchip/xc32/v2.15/bin/bin/../../lib/gcc/pic32mx/4.8.3/../../../../pic32mx/lib/libpic32.a(vector33.o)
                0x9fc01620                __vector_dispatch_33
                0x00000001                ASSERT (((_vector_spacing == 0x0) || (SIZEOF (.vector_33) <= (_vector_spacing << 0x5))), function at exception vector 33 too large)

.vector_34      0x9fc01640        0x8
 *(.vector_34)
 .vector_34     0x9fc01640        0x8 /Applications/microchip/xc32/v2.15/bin/bin/../../lib/gcc/pic32mx/4.8.3/../../../../pic32mx/lib/libpic32.a(vector34.o)
                0x9fc01640                __vector_dispatch_34
                0x00000001                ASSERT (((_vector_spacing == 0x0) || (SIZEOF (.vector_34) <= (_vector_spacing << 0x5))), function at exception vector 34 too large)

.vector_35      0x9fc01660        0x8
 *(.vector_35)
 .vector_35     0x9fc01660        0x8 /Applications/microchip/xc32/v2.15/bin/bin/../../lib/gcc/pic32mx/4.8.3/../../../../pic32mx/lib/libpic32.a(vector35.o)
                0x9fc01660                __vector_dispatch_35
                0x00000001                ASSERT (((_vector_spacing == 0x0) || (SIZEOF (.vector_35) <= (_vector_spacing << 0x5))), function at exception vector 35 too large)

.vector_36      0x9fc01680        0x8
 *(.vector_36)
 .vector_36     0x9fc01680        0x8 /Applications/microchip/xc32/v2.15/bin/bin/../../lib/gcc/pic32mx/4.8.3/../../../../pic32mx/lib/libpic32.a(vector36.o)
                0x9fc01680                __vector_dispatch_36
                0x00000001                ASSERT (((_vector_spacing == 0x0) || (SIZEOF (.vector_36) <= (_vector_spacing << 0x5))), function at exception vector 36 too large)

.vector_37      0x9fc016a0        0x8
 *(.vector_37)
 .vector_37     0x9fc016a0        0x8 /Applications/microchip/xc32/v2.15/bin/bin/../../lib/gcc/pic32mx/4.8.3/../../../../pic32mx/lib/libpic32.a(vector37.o)
                0x9fc016a0                __vector_dispatch_37
                0x00000001                ASSERT (((_vector_spacing == 0x0) || (SIZEOF (.vector_37) <= (_vector_spacing << 0x5))), function at exception vector 37 too large)

.vector_38      0x9fc016c0        0x8
 *(.vector_38)
 .vector_38     0x9fc016c0        0x8 /Applications/microchip/xc32/v2.15/bin/bin/../../lib/gcc/pic32mx/4.8.3/../../../../pic32mx/lib/libpic32.a(vector38.o)
                0x9fc016c0                __vector_dispatch_38
                0x00000001                ASSERT (((_vector_spacing == 0x0) || (SIZEOF (.vector_38) <= (_vector_spacing << 0x5))), function at exception vector 38 too large)

.vector_39      0x9fc016e0        0x8
 *(.vector_39)
 .vector_39     0x9fc016e0        0x8 /Applications/microchip/xc32/v2.15/bin/bin/../../lib/gcc/pic32mx/4.8.3/../../../../pic32mx/lib/libpic32.a(vector39.o)
                0x9fc016e0                __vector_dispatch_39
                0x00000001                ASSERT (((_vector_spacing == 0x0) || (SIZEOF (.vector_39) <= (_vector_spacing << 0x5))), function at exception vector 39 too large)

.vector_40      0x9fc01700        0x8
 *(.vector_40)
 .vector_40     0x9fc01700        0x8 /Applications/microchip/xc32/v2.15/bin/bin/../../lib/gcc/pic32mx/4.8.3/../../../../pic32mx/lib/libpic32.a(vector40.o)
                0x9fc01700                __vector_dispatch_40
                0x00000001                ASSERT (((_vector_spacing == 0x0) || (SIZEOF (.vector_40) <= (_vector_spacing << 0x5))), function at exception vector 40 too large)

.vector_41      0x9fc01720        0x8
 *(.vector_41)
 .vector_41     0x9fc01720        0x8 /Applications/microchip/xc32/v2.15/bin/bin/../../lib/gcc/pic32mx/4.8.3/../../../../pic32mx/lib/libpic32.a(vector41.o)
                0x9fc01720                __vector_dispatch_41
                0x00000001                ASSERT (((_vector_spacing == 0x0) || (SIZEOF (.vector_41) <= (_vector_spacing << 0x5))), function at exception vector 41 too large)

.vector_42      0x9fc01740        0x8
 *(.vector_42)
 .vector_42     0x9fc01740        0x8 /Applications/microchip/xc32/v2.15/bin/bin/../../lib/gcc/pic32mx/4.8.3/../../../../pic32mx/lib/libpic32.a(vector42.o)
                0x9fc01740                __vector_dispatch_42
                0x00000001                ASSERT (((_vector_spacing == 0x0) || (SIZEOF (.vector_42) <= (_vector_spacing << 0x5))), function at exception vector 42 too large)

.vector_43      0x9fc01760        0x8
 *(.vector_43)
 .vector_43     0x9fc01760        0x8 /Applications/microchip/xc32/v2.15/bin/bin/../../lib/gcc/pic32mx/4.8.3/../../../../pic32mx/lib/libpic32.a(vector43.o)
                0x9fc01760                __vector_dispatch_43
                0x00000001                ASSERT (((_vector_spacing == 0x0) || (SIZEOF (.vector_43) <= (_vector_spacing << 0x5))), function at exception vector 43 too large)

.vector_44      0x9fc01780        0x8
 *(.vector_44)
 .vector_44     0x9fc01780        0x8 /Applications/microchip/xc32/v2.15/bin/bin/../../lib/gcc/pic32mx/4.8.3/../../../../pic32mx/lib/libpic32.a(vector44.o)
                0x9fc01780                __vector_dispatch_44
                0x00000001                ASSERT (((_vector_spacing == 0x0) || (SIZEOF (.vector_44) <= (_vector_spacing << 0x5))), function at exception vector 44 too large)

.vector_45      0x9fc017a0        0x8
 *(.vector_45)
 .vector_45     0x9fc017a0        0x8 /Applications/microchip/xc32/v2.15/bin/bin/../../lib/gcc/pic32mx/4.8.3/../../../../pic32mx/lib/libpic32.a(vector45.o)
                0x9fc017a0                __vector_dispatch_45
                0x00000001                ASSERT (((_vector_spacing == 0x0) || (SIZEOF (.vector_45) <= (_vector_spacing << 0x5))), function at exception vector 45 too large)

.vector_46      0x9fc017c0        0x8
 *(.vector_46)
 .vector_46     0x9fc017c0        0x8 /Applications/microchip/xc32/v2.15/bin/bin/../../lib/gcc/pic32mx/4.8.3/../../../../pic32mx/lib/libpic32.a(vector46.o)
                0x9fc017c0                __vector_dispatch_46
                0x00000001                ASSERT (((_vector_spacing == 0x0) || (SIZEOF (.vector_46) <= (_vector_spacing << 0x5))), function at exception vector 46 too large)

.vector_47      0x9fc017e0        0x8
 *(.vector_47)
 .vector_47     0x9fc017e0        0x8 /Applications/microchip/xc32/v2.15/bin/bin/../../lib/gcc/pic32mx/4.8.3/../../../../pic32mx/lib/libpic32.a(vector47.o)
                0x9fc017e0                __vector_dispatch_47
                0x00000001                ASSERT (((_vector_spacing == 0x0) || (SIZEOF (.vector_47) <= (_vector_spacing << 0x5))), function at exception vector 47 too large)

.vector_48      0x9fc01800        0x8
 *(.vector_48)
 .vector_48     0x9fc01800        0x8 /Applications/microchip/xc32/v2.15/bin/bin/../../lib/gcc/pic32mx/4.8.3/../../../../pic32mx/lib/libpic32.a(vector48.o)
                0x9fc01800                __vector_dispatch_48
                0x00000001                ASSERT (((_vector_spacing == 0x0) || (SIZEOF (.vector_48) <= (_vector_spacing << 0x5))), function at exception vector 48 too large)

.vector_49      0x9fc01820        0x8
 *(.vector_49)
 .vector_49     0x9fc01820        0x8 /Applications/microchip/xc32/v2.15/bin/bin/../../lib/gcc/pic32mx/4.8.3/../../../../pic32mx/lib/libpic32.a(vector49.o)
                0x9fc01820                __vector_dispatch_49
                0x00000001                ASSERT (((_vector_spacing == 0x0) || (SIZEOF (.vector_49) <= (_vector_spacing << 0x5))), function at exception vector 49 too large)

.vector_50      0x9fc01840        0x8
 *(.vector_50)
 .vector_50     0x9fc01840        0x8 /Applications/microchip/xc32/v2.15/bin/bin/../../lib/gcc/pic32mx/4.8.3/../../../../pic32mx/lib/libpic32.a(vector50.o)
                0x9fc01840                __vector_dispatch_50
                0x00000001                ASSERT (((_vector_spacing == 0x0) || (SIZEOF (.vector_50) <= (_vector_spacing << 0x5))), function at exception vector 50 too large)

.vector_51      0x9fc01860        0x8
 *(.vector_51)
 .vector_51     0x9fc01860        0x8 /Applications/microchip/xc32/v2.15/bin/bin/../../lib/gcc/pic32mx/4.8.3/../../../../pic32mx/lib/libpic32.a(vector51.o)
                0x9fc01860                __vector_dispatch_51
                0x00000001                ASSERT (((_vector_spacing == 0x0) || (SIZEOF (.vector_51) <= (_vector_spacing << 0x5))), function at exception vector 51 too large)

.vector_52      0x9fc01880        0x0
 *(.vector_52)
                0x00000001                ASSERT (((_vector_spacing == 0x0) || (SIZEOF (.vector_52) <= (_vector_spacing << 0x5))), function at exception vector 52 too large)

.vector_53      0x9fc018a0        0x0
 *(.vector_53)
                0x00000001                ASSERT (((_vector_spacing == 0x0) || (SIZEOF (.vector_53) <= (_vector_spacing << 0x5))), function at exception vector 53 too large)

.vector_54      0x9fc018c0        0x0
 *(.vector_54)
                0x00000001                ASSERT (((_vector_spacing == 0x0) || (SIZEOF (.vector_54) <= (_vector_spacing << 0x5))), function at exception vector 54 too large)

.vector_55      0x9fc018e0        0x0
 *(.vector_55)
                0x00000001                ASSERT (((_vector_spacing == 0x0) || (SIZEOF (.vector_55) <= (_vector_spacing << 0x5))), function at exception vector 55 too large)

.vector_56      0x9fc01900        0x0
 *(.vector_56)
                0x00000001                ASSERT (((_vector_spacing == 0x0) || (SIZEOF (.vector_56) <= (_vector_spacing << 0x5))), function at exception vector 56 too large)

.vector_57      0x9fc01920        0x0
 *(.vector_57)
                0x00000001                ASSERT (((_vector_spacing == 0x0) || (SIZEOF (.vector_57) <= (_vector_spacing << 0x5))), function at exception vector 57 too large)

.vector_58      0x9fc01940        0x0
 *(.vector_58)
                0x00000001                ASSERT (((_vector_spacing == 0x0) || (SIZEOF (.vector_58) <= (_vector_spacing << 0x5))), function at exception vector 58 too large)

.vector_59      0x9fc01960        0x0
 *(.vector_59)
                0x00000001                ASSERT (((_vector_spacing == 0x0) || (SIZEOF (.vector_59) <= (_vector_spacing << 0x5))), function at exception vector 59 too large)

.vector_60      0x9fc01980        0x0
 *(.vector_60)
                0x00000001                ASSERT (((_vector_spacing == 0x0) || (SIZEOF (.vector_60) <= (_vector_spacing << 0x5))), function at exception vector 60 too large)

.vector_61      0x9fc019a0        0x0
 *(.vector_61)
                0x00000001                ASSERT (((_vector_spacing == 0x0) || (SIZEOF (.vector_61) <= (_vector_spacing << 0x5))), function at exception vector 61 too large)

.vector_62      0x9fc019c0        0x0
 *(.vector_62)
                0x00000001                ASSERT (((_vector_spacing == 0x0) || (SIZEOF (.vector_62) <= (_vector_spacing << 0x5))), function at exception vector 62 too large)

.vector_63      0x9fc019e0        0x0
 *(.vector_63)
                0x00000001                ASSERT (((_vector_spacing == 0x0) || (SIZEOF (.vector_63) <= (_vector_spacing << 0x5))), function at exception vector 63 too large)

.startup
 *(.startup)

.text           0x9d000000        0x0
 *(.stub .gnu.linkonce.t.*)
 *(.text.*personality*)
 *(.mips16.fn.*)
 *(.mips16.call.*)
 *(.gnu.warning)
                0x9d000000                . = ALIGN (0x4)

.init           0x9d000000        0x0
 *crti.o(.init)
 *crtbegin.o(.init)
 *(EXCLUDE_FILE(*crtn.o *crtend?.o *crtend.o) .init)
 *crtend.o(.init)
 *crtn.o(.init)
                0x9d000000                . = ALIGN (0x4)

.fini           0x9d000000        0x0
 *(.fini)
                0x9d000000                . = ALIGN (0x4)

.preinit_array  0x9d000000        0x0
                0x9d000000                PROVIDE (__preinit_array_start, .)
 *(.preinit_array)
                0x9d000000                PROVIDE (__preinit_array_end, .)
                0x9d000000                . = ALIGN (0x4)

.init_array     0x9d000000        0x0
                0x9d000000                PROVIDE (__init_array_start, .)
 *(SORT(.init_array.*))
 *(.init_array)
                0x9d000000                PROVIDE (__init_array_end, .)
                0x9d000000                . = ALIGN (0x4)

.fini_array     0x9d000000        0x0
                0x9d000000                PROVIDE (__fini_array_start, .)
 *(SORT(.fini_array.*))
 *(.fini_array)
                0x9d000000                PROVIDE (__fini_array_end, .)
                0x9d000000                . = ALIGN (0x4)

.ctors          0x9d000000        0x0
 *crtbegin.o(.ctors)
 *crtbegin?.o(.ctors)
 *(EXCLUDE_FILE(*crtend?.o *crtend.o) .ctors)
 *(SORT(.ctors.*))
 *(.ctors)
                0x9d000000                . = ALIGN (0x4)

.dtors          0x9d000000        0x0
 *crtbegin.o(.dtors)
 *crtbegin?.o(.dtors)
 *(EXCLUDE_FILE(*crtend?.o *crtend.o) .dtors)
 *(SORT(.dtors.*))
 *(.dtors)
                0x9d000000                . = ALIGN (0x4)

.rodata         0x9d000000        0x0
 *(.gnu.linkonce.r.*)
 *(.rodata1)
                0x9d000000                . = ALIGN (0x4)

.sdata2         0x9fc00490        0x0
 *(.sdata2 .sdata2.* .gnu.linkonce.s2.*)
                0x9fc00490                . = ALIGN (0x4)

.sbss2          0x9fc00490        0x0
 *(.sbss2 .sbss2.* .gnu.linkonce.sb2.*)
                0x9fc00490                . = ALIGN (0x4)

.eh_frame_hdr
 *(.eh_frame_hdr)
                0x9fc00490                . = ALIGN (0x4)

.eh_frame
 *(.eh_frame)
                0x9fc00490                . = ALIGN (0x4)

.gcc_except_table
 *(.gcc_except_table .gcc_except_table.*)
                0x9fc00490                . = ALIGN (0x4)

.dbg_data       0xa0000000        0x0
                0xa0000000                . = (. + DEFINED (_DEBUGGER)?0x200:0x0)

.jcr            0xa0000000        0x0
 *(.jcr)
                0xa0000000                . = ALIGN (0x4)

.eh_frame
 *(.eh_frame)
                0xa0000000                . = ALIGN (0x4)

.gcc_except_table
 *(.gcc_except_table .gcc_except_table.*)
                0xa0000000                . = ALIGN (0x4)

.persist        0xa0000000        0x0
                0xa0000000                _persist_begin = .
 *(.persist .persist.*)
 *(.pbss .pbss.*)
                0xa0000000                . = ALIGN (0x4)
                0xa0000000                _persist_end = .

.data           0xa0000000        0x0
 *(.gnu.linkonce.d.*)
 *(.data1)
                0xa0000000                . = ALIGN (0x4)
                0xa0000000                . = .
                0xa0007ff0                _gp = (ALIGN (0x10) + 0x7ff0)

.got            0xa0000000        0x0
 *(.got.plt)
 *(.got)
                0xa0000000                . = ALIGN (0x4)

.sdata          0xa0000000        0xc
                0xa0000000                _sdata_begin = .
 *(.sdata .sdata.* .gnu.linkonce.s.*)
 .sdata         0xa0000000        0x4 build/Board2/production/_ext/905643201/heap_2.o
 .sdata         0xa0000004        0x4 build/Board2/production/_ext/331515796/port.o
                0xa0000004                uxInterruptNesting
 .sdata         0xa0000008        0x4 /Applications/microchip/xc32/v2.15/bin/bin/../../lib/gcc/pic32mx/4.8.3/../../../../pic32mx/lib/libpic32.a(xc32_uart.o)
                0xa0000008                __XC_UART
                0xa000000c                . = ALIGN (0x4)
                0xa000000c                _sdata_end = .

.lit8
 *(.lit8)

.lit4
 *(.lit4)
                0xa000000c                . = ALIGN (0x4)
                0xa000000c                _data_end = .
                0xa000000c                _bss_begin = .

.sbss           0xa000000c       0xd8
                0xa000000c                _sbss_begin = .
 *(.dynsbss)
 *(.sbss .sbss.* .gnu.linkonce.sb.*)
 .sbss          0xa000000c        0x3 build/Board2/production/_ext/1550245252/drv_tmr_static.o
 *fill*         0xa000000f        0x1 
 .sbss          0xa0000010        0xc build/Board2/production/_ext/1445490755/system_exceptions.o
 .sbss          0xa000001c        0x8 build/Board2/production/_ext/334398652/cJSON.o
 .sbss          0xa0000024       0x10 build/Board2/production/_ext/334398652/http.o
 .sbss          0xa0000034       0x18 build/Board2/production/_ext/334398652/wifi_state.o
 .sbss          0xa000004c        0x8 build/Board2/production/_ext/334398652/game_state.o
 .sbss          0xa0000054       0x14 build/Board2/production/_ext/905643201/heap_2.o
 .sbss          0xa0000068        0x4 build/Board2/production/_ext/331515796/port.o
                0xa0000068                uxSavedTaskStackPointer
 .sbss          0xa000006c       0x3c build/Board2/production/_ext/1539584926/tasks.o
                0xa00000a4                pxCurrentTCB
 .sbss          0xa00000a8       0x14 build/Board2/production/_ext/1539584926/timers.o
 *(.scommon)
 .scommon       0xa00000bc        0xc build/Board2/production/_ext/1351229741/drv_oc_mapping.o
                0xa00000bc                Uart_tx_queue
                0xa00000c0                gameQueueHandle
                0xa00000c4                UART_Thread_queue
 .scommon       0xa00000c8        0x0 build/Board2/production/_ext/794052624/drv_usart_mapping.o
 .scommon       0xa00000c8        0x8 build/Board2/production/_ext/794052624/drv_usart_static.o
                0xa00000c8                gDrvUSART0Obj
 .scommon       0xa00000d0        0x0 build/Board2/production/_ext/794052624/drv_usart_static_byte_model.o
 .scommon       0xa00000d0        0x0 build/Board2/production/_ext/697674732/sys_clk_pic32mx.o
 .scommon       0xa00000d0        0x8 build/Board2/production/_ext/733479835/sys_devcon.o
                0xa00000d0                sysDevconObj
 .scommon       0xa00000d8        0x0 build/Board2/production/_ext/1445490755/system_init.o
 .scommon       0xa00000d8        0x0 build/Board2/production/_ext/1445490755/system_interrupt.o
 .scommon       0xa00000d8        0x0 build/Board2/production/_ext/1445490755/system_exceptions.o
 .scommon       0xa00000d8        0x0 build/Board2/production/_ext/1445490755/system_tasks.o
 .scommon       0xa00000d8        0x0 build/Board2/production/_ext/1360937237/game_app.o
 .scommon       0xa00000d8        0x0 build/Board2/production/_ext/1360937237/wifi_app.o
 .scommon       0xa00000d8        0x0 build/Board2/production/_ext/334398652/debug.o
 .scommon       0xa00000d8        0x0 build/Board2/production/_ext/334398652/http.o
 .scommon       0xa00000d8        0x0 build/Board2/production/_ext/334398652/wifi_queue.o
 .scommon       0xa00000d8        0x0 build/Board2/production/_ext/334398652/wifi_state.o
 .scommon       0xa00000d8        0x4 build/Board2/production/_ext/334398652/wifi_timer.o
                0xa00000d8                statistic_handle
 .scommon       0xa00000dc        0x0 build/Board2/production/_ext/334398652/game_queue.o
 .scommon       0xa00000dc        0x0 build/Board2/production/_ext/334398652/game_state.o
 .scommon       0xa00000dc        0x8 build/Board2/production/_ext/334398652/game_timer.o
                0xa00000dc                Game_ReqHandle
                0xa00000e0                Game_LEDHandle
                0xa00000e4                _sbss_end = .
                0xa00000e4                . = ALIGN (0x4)

.bss            0xa00000e4       0x10
 *(.dynbss)
 *(COMMON)
 COMMON         0xa00000e4       0x10 build/Board2/production/_ext/1445490755/system_init.o
                0xa00000e4                sysObj
                0xa00000f4                . = ALIGN ((. != 0x0)?0x4:0x1)
                0xa00000f4                . = ALIGN (0x4)
                0xa00000f4                _end = .
                0xa00000f4                _bss_end = .
                0x00020000                _bmxdudba_address = 0x20000
                0x00020000                _bmxdupba_address = 0x20000

/DISCARD/
 *(.pdr)
 *(.rel.dyn)
 *(.note.GNU-stack)
 *(.note.GNU-stack)
 *(.gnu_debuglink)
 *(.gnu.lto_*)
 *(.discard)

.gptab.sdata
 *(.gptab.data)
 *(.gptab.sdata)

.gptab.sbss
 *(.gptab.bss)
 *(.gptab.sbss)

.mdebug.abi32   0xa00000f4        0x0
 *(.mdebug.abi32)
 .mdebug.abi32  0xa00000f4        0x0 build/Board2/production/_ext/1351229741/drv_oc_mapping.o
 .mdebug.abi32  0xa00000f4        0x0 build/Board2/production/_ext/1351229741/drv_oc_static.o
 .mdebug.abi32  0xa00000f4        0x0 build/Board2/production/_ext/1550245252/drv_tmr_static.o
 .mdebug.abi32  0xa00000f4        0x0 build/Board2/production/_ext/1550245252/drv_tmr_mapping.o
 .mdebug.abi32  0xa00000f4        0x0 build/Board2/production/_ext/794052624/drv_usart_mapping.o
 .mdebug.abi32  0xa00000f4        0x0 build/Board2/production/_ext/794052624/drv_usart_static.o
 .mdebug.abi32  0xa00000f4        0x0 build/Board2/production/_ext/794052624/drv_usart_static_byte_model.o
 .mdebug.abi32  0xa00000f4        0x0 build/Board2/production/_ext/697674732/sys_clk_pic32mx.o
 .mdebug.abi32  0xa00000f4        0x0 build/Board2/production/_ext/733479835/sys_devcon.o
 .mdebug.abi32  0xa00000f4        0x0 build/Board2/production/_ext/733479835/sys_devcon_pic32mx.o
 .mdebug.abi32  0xa00000f4        0x0 build/Board2/production/_ext/1943101500/sys_ports_static.o
 .mdebug.abi32  0xa00000f4        0x0 build/Board2/production/_ext/1445490755/system_init.o
 .mdebug.abi32  0xa00000f4        0x0 build/Board2/production/_ext/1445490755/system_interrupt.o
 .mdebug.abi32  0xa00000f4        0x0 build/Board2/production/_ext/1445490755/system_exceptions.o
 .mdebug.abi32  0xa00000f4        0x0 build/Board2/production/_ext/1445490755/system_tasks.o
 .mdebug.abi32  0xa00000f4        0x0 build/Board2/production/_ext/1445490755/rtos_hooks.o
 .mdebug.abi32  0xa00000f4        0x0 build/Board2/production/_ext/1360937237/game_app.o
 .mdebug.abi32  0xa00000f4        0x0 build/Board2/production/_ext/1360937237/wifi_app.o
 .mdebug.abi32  0xa00000f4        0x0 build/Board2/production/_ext/1360937237/main.o
 .mdebug.abi32  0xa00000f4        0x0 build/Board2/production/_ext/334398652/cJSON.o
 .mdebug.abi32  0xa00000f4        0x0 build/Board2/production/_ext/334398652/debug.o
 .mdebug.abi32  0xa00000f4        0x0 build/Board2/production/_ext/334398652/http.o
 .mdebug.abi32  0xa00000f4        0x0 build/Board2/production/_ext/334398652/wifi_queue.o
 .mdebug.abi32  0xa00000f4        0x0 build/Board2/production/_ext/334398652/wifi_state.o
 .mdebug.abi32  0xa00000f4        0x0 build/Board2/production/_ext/334398652/wifi_timer.o
 .mdebug.abi32  0xa00000f4        0x0 build/Board2/production/_ext/334398652/game_queue.o
 .mdebug.abi32  0xa00000f4        0x0 build/Board2/production/_ext/334398652/game_state.o
 .mdebug.abi32  0xa00000f4        0x0 build/Board2/production/_ext/334398652/game_timer.o
 .mdebug.abi32  0xa00000f4        0x0 build/Board2/production/_ext/1043444669/osal_freertos.o
 .mdebug.abi32  0xa00000f4        0x0 build/Board2/production/_ext/249303043/sys_int_pic32.o
 .mdebug.abi32  0xa00000f4        0x0 build/Board2/production/_ext/905643201/heap_2.o
 .mdebug.abi32  0xa00000f4        0x0 build/Board2/production/_ext/331515796/port.o
 .mdebug.abi32  0xa00000f4        0x0 build/Board2/production/_ext/1539584926/croutine.o
 .mdebug.abi32  0xa00000f4        0x0 build/Board2/production/_ext/1539584926/list.o
 .mdebug.abi32  0xa00000f4        0x0 build/Board2/production/_ext/1539584926/queue.o
 .mdebug.abi32  0xa00000f4        0x0 build/Board2/production/_ext/1539584926/tasks.o
 .mdebug.abi32  0xa00000f4        0x0 build/Board2/production/_ext/1539584926/timers.o
 .mdebug.abi32  0xa00000f4        0x0 build/Board2/production/_ext/1539584926/event_groups.o
 .mdebug.abi32  0xa00000f4        0x0 build/Board2/production/_ext/1539584926/stream_buffer.o
 .mdebug.abi32  0xa00000f4        0x0 /Applications/microchip/xc32/v2.15/bin/bin/../../lib/gcc/pic32mx/4.8.3/../../../../pic32mx/lib/libpic32.a(default-bootstrap-exception-handler.o)
 .mdebug.abi32  0xa00000f4        0x0 /Applications/microchip/xc32/v2.15/bin/bin/../../lib/gcc/pic32mx/4.8.3/../../../../pic32mx/lib/libpic32.a(default-on-reset.o)
 .mdebug.abi32  0xa00000f4        0x0 /Applications/microchip/xc32/v2.15/bin/bin/../../lib/gcc/pic32mx/4.8.3/../../../../pic32mx/lib/libpic32.a(default-on-bootstrap.o)
 .mdebug.abi32  0xa00000f4        0x0 /Applications/microchip/xc32/v2.15/bin/bin/../../lib/gcc/pic32mx/4.8.3/../../../../pic32mx/lib/libpic32.a(defaultinterrupt.o)
 .mdebug.abi32  0xa00000f4        0x0 /Applications/microchip/xc32/v2.15/bin/bin/../../lib/gcc/pic32mx/4.8.3/../../../../pic32mx/lib/libc.a(ctypef.o)
 .mdebug.abi32  0xa00000f4        0x0 /Applications/microchip/xc32/v2.15/bin/bin/../../lib/gcc/pic32mx/4.8.3/../../../../pic32mx/lib/libc.a(malloc.o)
 .mdebug.abi32  0xa00000f4        0x0 /Applications/microchip/xc32/v2.15/bin/bin/../../lib/gcc/pic32mx/4.8.3/../../../../pic32mx/lib/libc.a(strcat.o)
 .mdebug.abi32  0xa00000f4        0x0 /Applications/microchip/xc32/v2.15/bin/bin/../../lib/gcc/pic32mx/4.8.3/../../../../pic32mx/lib/libc.a(strncmp.o)
 .mdebug.abi32  0xa00000f4        0x0 /Applications/microchip/xc32/v2.15/bin/bin/../../lib/gcc/pic32mx/4.8.3/../../../../pic32mx/lib/libc.a(strtod.o)
 .mdebug.abi32  0xa00000f4        0x0 /Applications/microchip/xc32/v2.15/bin/bin/../../lib/gcc/pic32mx/4.8.3/../../../../pic32mx/lib/libc.a(sprintf_cdgGnopuxX.eo)
 .mdebug.abi32  0xa00000f4        0x0 /Applications/microchip/xc32/v2.15/bin/bin/../../lib/gcc/pic32mx/4.8.3/../../../../pic32mx/lib/libc.a(sscanf_gG.eo)
 .mdebug.abi32  0xa00000f4        0x0 /Applications/microchip/xc32/v2.15/bin/bin/../../lib/gcc/pic32mx/4.8.3/../../../../pic32mx/lib/libc.a(ctype.o)
 .mdebug.abi32  0xa00000f4        0x0 /Applications/microchip/xc32/v2.15/bin/bin/../../lib/gcc/pic32mx/4.8.3/../../../../pic32mx/lib/libc.a(doprnt_cdgGnopuxX.eo)
 .mdebug.abi32  0xa00000f4        0x0 /Applications/microchip/xc32/v2.15/bin/bin/../../lib/gcc/pic32mx/4.8.3/../../../../pic32mx/lib/libc.a(doscan_gG.eo)
 .mdebug.abi32  0xa00000f4        0x0 /Applications/microchip/xc32/v2.15/bin/bin/../../lib/gcc/pic32mx/4.8.3/../../../../pic32mx/lib/libc.a(fgetc.o)
 .mdebug.abi32  0xa00000f4        0x0 /Applications/microchip/xc32/v2.15/bin/bin/../../lib/gcc/pic32mx/4.8.3/../../../../pic32mx/lib/libc.a(_fputc_simple.o)
 .mdebug.abi32  0xa00000f4        0x0 /Applications/microchip/xc32/v2.15/bin/bin/../../lib/gcc/pic32mx/4.8.3/../../../../pic32mx/lib/libc.a(atoi.o)
 .mdebug.abi32  0xa00000f4        0x0 /Applications/microchip/xc32/v2.15/bin/bin/../../lib/gcc/pic32mx/4.8.3/../../../../pic32mx/lib/libc.a(ldpowers.o)
 .mdebug.abi32  0xa00000f4        0x0 /Applications/microchip/xc32/v2.15/bin/bin/../../lib/gcc/pic32mx/4.8.3/../../../../pic32mx/lib/libc.a(strtof.o)
 .mdebug.abi32  0xa00000f4        0x0 /Applications/microchip/xc32/v2.15/bin/bin/../../lib/gcc/pic32mx/4.8.3/../../../../pic32mx/lib/libc.a(ungetc.o)
 .mdebug.abi32  0xa00000f4        0x0 /Applications/microchip/xc32/v2.15/bin/bin/../../lib/gcc/pic32mx/4.8.3/../../../../pic32mx/lib/libc.a(_iob.o)
 .mdebug.abi32  0xa00000f4        0x0 /Applications/microchip/xc32/v2.15/bin/bin/../../lib/gcc/pic32mx/4.8.3/../../../../pic32mx/lib/libc.a(filbuf.o)
 .mdebug.abi32  0xa00000f4        0x0 /Applications/microchip/xc32/v2.15/bin/bin/../../lib/gcc/pic32mx/4.8.3/../../../../pic32mx/lib/libc.a(_flsbuf_simple.o)
 .mdebug.abi32  0xa00000f4        0x0 /Applications/microchip/xc32/v2.15/bin/bin/../../lib/gcc/pic32mx/4.8.3/../../../../pic32mx/lib/libc.a(fflush.o)
 .mdebug.abi32  0xa00000f4        0x0 /Applications/microchip/xc32/v2.15/bin/bin/../../lib/gcc/pic32mx/4.8.3/../../../../pic32mx/lib/libm.a(w_powf.o)
 .mdebug.abi32  0xa00000f4        0x0 /Applications/microchip/xc32/v2.15/bin/bin/../../lib/gcc/pic32mx/4.8.3/../../../../pic32mx/lib/libm.a(__strtod.o)
 .mdebug.abi32  0xa00000f4        0x0 /Applications/microchip/xc32/v2.15/bin/bin/../../lib/gcc/pic32mx/4.8.3/../../../../pic32mx/lib/libm.a(__strtof.o)
 .mdebug.abi32  0xa00000f4        0x0 /Applications/microchip/xc32/v2.15/bin/bin/../../lib/gcc/pic32mx/4.8.3/../../../../pic32mx/lib/libm.a(s_lib_ver.o)
 .mdebug.abi32  0xa00000f4        0x0 /Applications/microchip/xc32/v2.15/bin/bin/../../lib/gcc/pic32mx/4.8.3/../../../../pic32mx/lib/libe.a(_fixunsdfdi.o)
 .mdebug.abi32  0xa00000f4        0x0 /Applications/microchip/xc32/v2.15/bin/bin/../../lib/gcc/pic32mx/4.8.3/../../../../pic32mx/lib/libe.a(_orderdf2.o)
 .mdebug.abi32  0xa00000f4        0x0 /Applications/microchip/xc32/v2.15/bin/bin/../../lib/gcc/pic32mx/4.8.3/../../../../pic32mx/lib/libe.a(_ldexp.o)
 .mdebug.abi32  0xa00000f4        0x0 /Applications/microchip/xc32/v2.15/bin/bin/../../lib/gcc/pic32mx/4.8.3/../../../../pic32mx/lib/libe.a(_ldexpf.o)
 .mdebug.abi32  0xa00000f4        0x0 /Applications/microchip/xc32/v2.15/bin/bin/../../lib/gcc/pic32mx/4.8.3/../../../../pic32mx/lib/libe.a(_fixdfdi.o)
 .mdebug.abi32  0xa00000f4        0x0 /Applications/microchip/xc32/v2.15/bin/bin/../../lib/gcc/pic32mx/4.8.3/libgcc.a(_lshrdi3.o)
 .mdebug.abi32  0xa00000f4        0x0 /Applications/microchip/xc32/v2.15/bin/bin/../../lib/gcc/pic32mx/4.8.3/libgcc.a(_ashldi3.o)
 .mdebug.abi32  0xa00000f4        0x0 /Applications/microchip/xc32/v2.15/bin/bin/../../lib/gcc/pic32mx/4.8.3/libgcc.a(_floatundidf.o)
 .mdebug.abi32  0xa00000f4        0x0 /Applications/microchip/xc32/v2.15/bin/bin/../../lib/gcc/pic32mx/4.8.3/libgcc.a(_udivdi3.o)
 .mdebug.abi32  0xa00000f4        0x0 /Applications/microchip/xc32/v2.15/bin/bin/../../lib/gcc/pic32mx/4.8.3/libgcc.a(_umoddi3.o)
 .mdebug.abi32  0xa00000f4        0x0 /Applications/microchip/xc32/v2.15/bin/bin/../../lib/gcc/pic32mx/4.8.3/libgcc.a(floatunsidf.o)
 .mdebug.abi32  0xa00000f4        0x0 /Applications/microchip/xc32/v2.15/bin/bin/../../lib/gcc/pic32mx/4.8.3/../../../../pic32mx/lib/libpic32.a(sbrk.o)
 .mdebug.abi32  0xa00000f4        0x0 /Applications/microchip/xc32/v2.15/bin/bin/../../lib/gcc/pic32mx/4.8.3/../../../../pic32mx/lib/libpic32.a(read.o)
 .mdebug.abi32  0xa00000f4        0x0 /Applications/microchip/xc32/v2.15/bin/bin/../../lib/gcc/pic32mx/4.8.3/../../../../pic32mx/lib/libpic32.a(write.o)
 .mdebug.abi32  0xa00000f4        0x0 /Applications/microchip/xc32/v2.15/bin/bin/../../lib/gcc/pic32mx/4.8.3/../../../../pic32mx/lib/libpic32.a(xc32_uart.o)
 .mdebug.abi32  0xa00000f4        0x0 /Applications/microchip/xc32/v2.15/bin/bin/../../lib/gcc/pic32mx/4.8.3/../../../../pic32mx/lib/libpic32.a(errno.o)
 .mdebug.abi32  0xa00000f4        0x0 /Applications/microchip/xc32/v2.15/bin/bin/../../lib/gcc/pic32mx/4.8.3/../../../../pic32mx/lib/libpic32.a(isinf.o)
 .mdebug.abi32  0xa00000f4        0x0 /Applications/microchip/xc32/v2.15/bin/bin/../../lib/gcc/pic32mx/4.8.3/../../../../pic32mx/lib/libpic32.a(_mon_putc.o)
 .mdebug.abi32  0xa00000f4        0x0 /Applications/microchip/xc32/v2.15/bin/bin/../../lib/gcc/pic32mx/4.8.3/../../../../pic32mx/lib/libe.a(_unorddf2.o)

.mdebug.abiN32
 *(.mdebug.abiN32)

.mdebug.abi64
 *(.mdebug.abi64)

.mdebug.abiO64
 *(.mdebug.abiO64)

.mdebug.eabi32
 *(.mdebug.eabi32)

.mdebug.eabi64
 *(.mdebug.eabi64)

.gcc_compiled_long32
 *(.gcc_compiled_long32)

.gcc_compiled_long64
 *(.gcc_compiled_long64)

.stab
 *(.stab)

.stabstr
 *(.stabstr)

.stab.excl
 *(.stab.excl)

.stab.exclstr
 *(.stab.exclstr)

.stab.index
 *(.stab.index)

.stab.indexstr
 *(.stab.indexstr)

.comment        0x00000000      0x404
 *(.comment)
 .comment       0x00000000       0x3c build/Board2/production/_ext/1351229741/drv_oc_mapping.o
                                 0x3d (size before relaxing)
 .comment       0x00000000       0x3d build/Board2/production/_ext/1351229741/drv_oc_static.o
 .comment       0x00000000       0x3d build/Board2/production/_ext/1550245252/drv_tmr_static.o
 .comment       0x00000000       0x3d build/Board2/production/_ext/1550245252/drv_tmr_mapping.o
 .comment       0x00000000       0x3d build/Board2/production/_ext/794052624/drv_usart_mapping.o
 .comment       0x00000000       0x3d build/Board2/production/_ext/794052624/drv_usart_static.o
 .comment       0x00000000       0x3d build/Board2/production/_ext/794052624/drv_usart_static_byte_model.o
 .comment       0x00000000       0x3d build/Board2/production/_ext/697674732/sys_clk_pic32mx.o
 .comment       0x00000000       0x3d build/Board2/production/_ext/733479835/sys_devcon.o
 .comment       0x00000000       0x3d build/Board2/production/_ext/733479835/sys_devcon_pic32mx.o
 .comment       0x00000000       0x3d build/Board2/production/_ext/1943101500/sys_ports_static.o
 .comment       0x00000000       0x3d build/Board2/production/_ext/1445490755/system_init.o
 .comment       0x00000000       0x3d build/Board2/production/_ext/1445490755/system_interrupt.o
 .comment       0x00000000       0x3d build/Board2/production/_ext/1445490755/system_exceptions.o
 .comment       0x00000000       0x3d build/Board2/production/_ext/1445490755/system_tasks.o
 .comment       0x00000000       0x3d build/Board2/production/_ext/1445490755/rtos_hooks.o
 .comment       0x00000000       0x3d build/Board2/production/_ext/1360937237/game_app.o
 .comment       0x00000000       0x3d build/Board2/production/_ext/1360937237/wifi_app.o
 .comment       0x00000000       0x3d build/Board2/production/_ext/1360937237/main.o
 .comment       0x00000000       0x3d build/Board2/production/_ext/334398652/cJSON.o
 .comment       0x00000000       0x3d build/Board2/production/_ext/334398652/debug.o
 .comment       0x00000000       0x3d build/Board2/production/_ext/334398652/http.o
 .comment       0x00000000       0x3d build/Board2/production/_ext/334398652/wifi_queue.o
 .comment       0x00000000       0x3d build/Board2/production/_ext/334398652/wifi_state.o
 .comment       0x00000000       0x3d build/Board2/production/_ext/334398652/wifi_timer.o
 .comment       0x00000000       0x3d build/Board2/production/_ext/334398652/game_queue.o
 .comment       0x00000000       0x3d build/Board2/production/_ext/334398652/game_state.o
 .comment       0x00000000       0x3d build/Board2/production/_ext/334398652/game_timer.o
 .comment       0x00000000       0x3d build/Board2/production/_ext/1043444669/osal_freertos.o
 .comment       0x00000000       0x3d build/Board2/production/_ext/249303043/sys_int_pic32.o
 .comment       0x00000000       0x3d build/Board2/production/_ext/905643201/heap_2.o
 .comment       0x00000000       0x3d build/Board2/production/_ext/331515796/port.o
 .comment       0x00000000       0x3d build/Board2/production/_ext/1539584926/croutine.o
 .comment       0x00000000       0x3d build/Board2/production/_ext/1539584926/list.o
 .comment       0x00000000       0x3d build/Board2/production/_ext/1539584926/queue.o
 .comment       0x00000000       0x3d build/Board2/production/_ext/1539584926/tasks.o
 .comment       0x00000000       0x3d build/Board2/production/_ext/1539584926/timers.o
 .comment       0x00000000       0x3d build/Board2/production/_ext/1539584926/event_groups.o
 .comment       0x00000000       0x3d build/Board2/production/_ext/1539584926/stream_buffer.o
 .comment       0x0000003c       0x18 /Applications/microchip/xc32/v2.15/bin/bin/../../lib/gcc/pic32mx/4.8.3/../../../../pic32mx/lib/libpic32.a(memset.o)
                                 0x19 (size before relaxing)
 .comment       0x00000054       0x19 /Applications/microchip/xc32/v2.15/bin/bin/../../lib/gcc/pic32mx/4.8.3/../../../../pic32mx/lib/libpic32.a(strcmp.o)
                                 0x1a (size before relaxing)
 .comment       0x0000006d       0x19 /Applications/microchip/xc32/v2.15/bin/bin/../../lib/gcc/pic32mx/4.8.3/../../../../pic32mx/lib/libpic32.a(strcpy.o)
                                 0x1a (size before relaxing)
 .comment       0x00000086       0x19 /Applications/microchip/xc32/v2.15/bin/bin/../../lib/gcc/pic32mx/4.8.3/../../../../pic32mx/lib/libpic32.a(strlen.o)
                                 0x1a (size before relaxing)
 .comment       0x00000000       0x3d /Applications/microchip/xc32/v2.15/bin/bin/../../lib/gcc/pic32mx/4.8.3/../../../../pic32mx/lib/libpic32.a(default-bootstrap-exception-handler.o)
 .comment       0x00000000       0x3d /Applications/microchip/xc32/v2.15/bin/bin/../../lib/gcc/pic32mx/4.8.3/../../../../pic32mx/lib/libpic32.a(default-on-reset.o)
 .comment       0x00000000       0x3d /Applications/microchip/xc32/v2.15/bin/bin/../../lib/gcc/pic32mx/4.8.3/../../../../pic32mx/lib/libpic32.a(default-on-bootstrap.o)
 .comment       0x00000000       0x3d /Applications/microchip/xc32/v2.15/bin/bin/../../lib/gcc/pic32mx/4.8.3/../../../../pic32mx/lib/libpic32.a(defaultinterrupt.o)
 .comment       0x0000009f       0x4f /Applications/microchip/xc32/v2.15/bin/bin/../../lib/gcc/pic32mx/4.8.3/../../../../pic32mx/lib/libc.a(ctypef.o)
                                 0x8c (size before relaxing)
 .comment       0x00000000       0x3d /Applications/microchip/xc32/v2.15/bin/bin/../../lib/gcc/pic32mx/4.8.3/../../../../pic32mx/lib/libc.a(malloc.o)
 .comment       0x00000000       0x3d /Applications/microchip/xc32/v2.15/bin/bin/../../lib/gcc/pic32mx/4.8.3/../../../../pic32mx/lib/libc.a(strcat.o)
 .comment       0x00000000       0x3d /Applications/microchip/xc32/v2.15/bin/bin/../../lib/gcc/pic32mx/4.8.3/../../../../pic32mx/lib/libc.a(strncmp.o)
 .comment       0x00000000       0x3d /Applications/microchip/xc32/v2.15/bin/bin/../../lib/gcc/pic32mx/4.8.3/../../../../pic32mx/lib/libc.a(strtod.o)
 .comment       0x00000000       0x3d /Applications/microchip/xc32/v2.15/bin/bin/../../lib/gcc/pic32mx/4.8.3/../../../../pic32mx/lib/libc.a(sprintf_cdgGnopuxX.eo)
 .comment       0x00000000       0x3d /Applications/microchip/xc32/v2.15/bin/bin/../../lib/gcc/pic32mx/4.8.3/../../../../pic32mx/lib/libc.a(sscanf_gG.eo)
 .comment       0x000000ee       0x4e /Applications/microchip/xc32/v2.15/bin/bin/../../lib/gcc/pic32mx/4.8.3/../../../../pic32mx/lib/libc.a(ctype.o)
                                 0x8b (size before relaxing)
 .comment       0x00000000       0x3d /Applications/microchip/xc32/v2.15/bin/bin/../../lib/gcc/pic32mx/4.8.3/../../../../pic32mx/lib/libc.a(doprnt_cdgGnopuxX.eo)
 .comment       0x00000000       0x3d /Applications/microchip/xc32/v2.15/bin/bin/../../lib/gcc/pic32mx/4.8.3/../../../../pic32mx/lib/libc.a(doscan_gG.eo)
 .comment       0x00000000       0x3d /Applications/microchip/xc32/v2.15/bin/bin/../../lib/gcc/pic32mx/4.8.3/../../../../pic32mx/lib/libc.a(fgetc.o)
 .comment       0x00000000       0x3d /Applications/microchip/xc32/v2.15/bin/bin/../../lib/gcc/pic32mx/4.8.3/../../../../pic32mx/lib/libc.a(_fputc_simple.o)
 .comment       0x00000000       0x3d /Applications/microchip/xc32/v2.15/bin/bin/../../lib/gcc/pic32mx/4.8.3/../../../../pic32mx/lib/libc.a(atoi.o)
 .comment       0x00000000       0x3d /Applications/microchip/xc32/v2.15/bin/bin/../../lib/gcc/pic32mx/4.8.3/../../../../pic32mx/lib/libc.a(ldpowers.o)
 .comment       0x00000000       0x3d /Applications/microchip/xc32/v2.15/bin/bin/../../lib/gcc/pic32mx/4.8.3/../../../../pic32mx/lib/libc.a(strtof.o)
 .comment       0x00000000       0x3d /Applications/microchip/xc32/v2.15/bin/bin/../../lib/gcc/pic32mx/4.8.3/../../../../pic32mx/lib/libc.a(ungetc.o)
 .comment       0x00000000       0x3d /Applications/microchip/xc32/v2.15/bin/bin/../../lib/gcc/pic32mx/4.8.3/../../../../pic32mx/lib/libc.a(_iob.o)
 .comment       0x00000000       0x3d /Applications/microchip/xc32/v2.15/bin/bin/../../lib/gcc/pic32mx/4.8.3/../../../../pic32mx/lib/libc.a(filbuf.o)
 .comment       0x00000000       0x3d /Applications/microchip/xc32/v2.15/bin/bin/../../lib/gcc/pic32mx/4.8.3/../../../../pic32mx/lib/libc.a(_flsbuf_simple.o)
 .comment       0x00000000       0x3d /Applications/microchip/xc32/v2.15/bin/bin/../../lib/gcc/pic32mx/4.8.3/../../../../pic32mx/lib/libc.a(fflush.o)
 .comment       0x00000000       0x3d /Applications/microchip/xc32/v2.15/bin/bin/../../lib/gcc/pic32mx/4.8.3/../../../../pic32mx/lib/libm.a(w_powf.o)
 .comment       0x0000013c       0x9d /Applications/microchip/xc32/v2.15/bin/bin/../../lib/gcc/pic32mx/4.8.3/../../../../pic32mx/lib/libm.a(__strtod.o)
                                 0xda (size before relaxing)
 .comment       0x000001d9       0x4f /Applications/microchip/xc32/v2.15/bin/bin/../../lib/gcc/pic32mx/4.8.3/../../../../pic32mx/lib/libm.a(__strtof.o)
                                 0xda (size before relaxing)
 .comment       0x00000000       0x3d /Applications/microchip/xc32/v2.15/bin/bin/../../lib/gcc/pic32mx/4.8.3/../../../../pic32mx/lib/libm.a(s_lib_ver.o)
 .comment       0x00000228       0x51 /Applications/microchip/xc32/v2.15/bin/bin/../../lib/gcc/pic32mx/4.8.3/../../../../pic32mx/lib/libe.a(_fixunsdfdi.o)
                                 0xdc (size before relaxing)
 .comment       0x00000279       0x50 /Applications/microchip/xc32/v2.15/bin/bin/../../lib/gcc/pic32mx/4.8.3/../../../../pic32mx/lib/libe.a(_orderdf2.o)
                                 0xdb (size before relaxing)
 .comment       0x000002c9       0x50 /Applications/microchip/xc32/v2.15/bin/bin/../../lib/gcc/pic32mx/4.8.3/../../../../pic32mx/lib/libe.a(_ldexp.o)
                                 0xdb (size before relaxing)
 .comment       0x00000319       0x50 /Applications/microchip/xc32/v2.15/bin/bin/../../lib/gcc/pic32mx/4.8.3/../../../../pic32mx/lib/libe.a(_ldexpf.o)
                                 0xdb (size before relaxing)
 .comment       0x00000369       0x50 /Applications/microchip/xc32/v2.15/bin/bin/../../lib/gcc/pic32mx/4.8.3/../../../../pic32mx/lib/libe.a(_fixdfdi.o)
                                 0xdb (size before relaxing)
 .comment       0x00000000       0x3d /Applications/microchip/xc32/v2.15/bin/bin/../../lib/gcc/pic32mx/4.8.3/libgcc.a(_lshrdi3.o)
 .comment       0x00000000       0x3d /Applications/microchip/xc32/v2.15/bin/bin/../../lib/gcc/pic32mx/4.8.3/libgcc.a(_ashldi3.o)
 .comment       0x00000000       0x3d /Applications/microchip/xc32/v2.15/bin/bin/../../lib/gcc/pic32mx/4.8.3/libgcc.a(_floatundidf.o)
 .comment       0x00000000       0x3d /Applications/microchip/xc32/v2.15/bin/bin/../../lib/gcc/pic32mx/4.8.3/libgcc.a(_udivdi3.o)
 .comment       0x00000000       0x3d /Applications/microchip/xc32/v2.15/bin/bin/../../lib/gcc/pic32mx/4.8.3/libgcc.a(_umoddi3.o)
 .comment       0x00000000       0x3d /Applications/microchip/xc32/v2.15/bin/bin/../../lib/gcc/pic32mx/4.8.3/libgcc.a(floatunsidf.o)
 .comment       0x000003b9       0x4b /Applications/microchip/xc32/v2.15/bin/bin/../../lib/gcc/pic32mx/4.8.3/../../../../pic32mx/lib/libpic32.a(sbrk.o)
                                 0x88 (size before relaxing)
 .comment       0x00000000       0x3d /Applications/microchip/xc32/v2.15/bin/bin/../../lib/gcc/pic32mx/4.8.3/../../../../pic32mx/lib/libpic32.a(read.o)
 .comment       0x00000000       0x3d /Applications/microchip/xc32/v2.15/bin/bin/../../lib/gcc/pic32mx/4.8.3/../../../../pic32mx/lib/libpic32.a(write.o)
 .comment       0x00000000       0x3d /Applications/microchip/xc32/v2.15/bin/bin/../../lib/gcc/pic32mx/4.8.3/../../../../pic32mx/lib/libpic32.a(xc32_uart.o)
 .comment       0x00000000       0x3d /Applications/microchip/xc32/v2.15/bin/bin/../../lib/gcc/pic32mx/4.8.3/../../../../pic32mx/lib/libpic32.a(errno.o)
 .comment       0x00000000       0x3d /Applications/microchip/xc32/v2.15/bin/bin/../../lib/gcc/pic32mx/4.8.3/../../../../pic32mx/lib/libpic32.a(isinf.o)
 .comment       0x00000000       0x3d /Applications/microchip/xc32/v2.15/bin/bin/../../lib/gcc/pic32mx/4.8.3/../../../../pic32mx/lib/libpic32.a(_mon_putc.o)
 .comment       0x00000000       0x8b /Applications/microchip/xc32/v2.15/bin/bin/../../lib/gcc/pic32mx/4.8.3/../../../../pic32mx/lib/libe.a(_unorddf2.o)

.debug
 *(.debug)

.line
 *(.line)

.debug_srcinfo
 *(.debug_srcinfo)

.debug_sfnames
 *(.debug_sfnames)

.debug_aranges  0x00000000     0x19a8
 *(.debug_aranges)
 .debug_aranges
                0x00000000       0x50 build/Board2/production/_ext/1351229741/drv_oc_mapping.o
 .debug_aranges
                0x00000050       0x88 build/Board2/production/_ext/1351229741/drv_oc_static.o
 .debug_aranges
                0x000000d8      0x188 build/Board2/production/_ext/1550245252/drv_tmr_static.o
 .debug_aranges
                0x00000260       0xe8 build/Board2/production/_ext/1550245252/drv_tmr_mapping.o
 .debug_aranges
                0x00000348       0xb0 build/Board2/production/_ext/794052624/drv_usart_mapping.o
 .debug_aranges
                0x000003f8       0x88 build/Board2/production/_ext/794052624/drv_usart_static.o
 .debug_aranges
                0x00000480       0x48 build/Board2/production/_ext/794052624/drv_usart_static_byte_model.o
 .debug_aranges
                0x000004c8       0x50 build/Board2/production/_ext/697674732/sys_clk_pic32mx.o
 .debug_aranges
                0x00000518       0x78 build/Board2/production/_ext/733479835/sys_devcon.o
 .debug_aranges
                0x00000590       0x20 build/Board2/production/_ext/733479835/sys_devcon_pic32mx.o
 .debug_aranges
                0x000005b0      0x148 build/Board2/production/_ext/1943101500/sys_ports_static.o
 .debug_aranges
                0x000006f8       0x20 build/Board2/production/_ext/1445490755/system_init.o
 .debug_aranges
                0x00000718       0x38 build/Board2/production/_ext/1445490755/system_interrupt.o
 .debug_aranges
                0x00000750       0x20 build/Board2/production/_ext/1445490755/system_exceptions.o
 .debug_aranges
                0x00000770       0x38 build/Board2/production/_ext/1445490755/system_tasks.o
 .debug_aranges
                0x000007a8       0x58 build/Board2/production/_ext/1445490755/system_interrupt_a.o
 .debug_aranges
                0x00000800       0x28 build/Board2/production/_ext/1445490755/rtos_hooks.o
 .debug_aranges
                0x00000828       0x28 build/Board2/production/_ext/1360937237/game_app.o
 .debug_aranges
                0x00000850       0x28 build/Board2/production/_ext/1360937237/wifi_app.o
 .debug_aranges
                0x00000878       0x20 build/Board2/production/_ext/1360937237/main.o
 .debug_aranges
                0x00000898      0x2f0 build/Board2/production/_ext/334398652/cJSON.o
 .debug_aranges
                0x00000b88       0x40 build/Board2/production/_ext/334398652/debug.o
 .debug_aranges
                0x00000bc8       0x78 build/Board2/production/_ext/334398652/http.o
 .debug_aranges
                0x00000c40       0x60 build/Board2/production/_ext/334398652/wifi_queue.o
 .debug_aranges
                0x00000ca0       0x38 build/Board2/production/_ext/334398652/wifi_state.o
 .debug_aranges
                0x00000cd8       0x28 build/Board2/production/_ext/334398652/wifi_timer.o
 .debug_aranges
                0x00000d00       0x38 build/Board2/production/_ext/334398652/game_queue.o
 .debug_aranges
                0x00000d38       0x20 build/Board2/production/_ext/334398652/game_state.o
 .debug_aranges
                0x00000d58       0x50 build/Board2/production/_ext/334398652/game_timer.o
 .debug_aranges
                0x00000da8       0x88 build/Board2/production/_ext/1043444669/osal_freertos.o
 .debug_aranges
                0x00000e30       0x48 build/Board2/production/_ext/249303043/sys_int_pic32.o
 .debug_aranges
                0x00000e78       0x38 build/Board2/production/_ext/905643201/heap_2.o
 .debug_aranges
                0x00000eb0       0x58 build/Board2/production/_ext/331515796/port.o
 .debug_aranges
                0x00000f08       0x20 build/Board2/production/_ext/331515796/port_asm.o
 .debug_aranges
                0x00000f28       0x18 build/Board2/production/_ext/1539584926/croutine.o
 .debug_aranges
                0x00000f40       0x40 build/Board2/production/_ext/1539584926/list.o
 .debug_aranges
                0x00000f80       0xd0 build/Board2/production/_ext/1539584926/queue.o
 .debug_aranges
                0x00001050      0x198 build/Board2/production/_ext/1539584926/tasks.o
 .debug_aranges
                0x000011e8       0x88 build/Board2/production/_ext/1539584926/timers.o
 .debug_aranges
                0x00001270       0x60 build/Board2/production/_ext/1539584926/event_groups.o
 .debug_aranges
                0x000012d0       0xb0 build/Board2/production/_ext/1539584926/stream_buffer.o
 .debug_aranges
                0x00001380       0x20 /Applications/microchip/xc32/v2.15/bin/bin/../../lib/gcc/pic32mx/4.8.3/../../../../pic32mx/lib/libpic32.a(default-bootstrap-exception-handler.o)
 .debug_aranges
                0x000013a0       0x20 /Applications/microchip/xc32/v2.15/bin/bin/../../lib/gcc/pic32mx/4.8.3/../../../../pic32mx/lib/libpic32.a(default-on-reset.o)
 .debug_aranges
                0x000013c0       0x20 /Applications/microchip/xc32/v2.15/bin/bin/../../lib/gcc/pic32mx/4.8.3/../../../../pic32mx/lib/libpic32.a(default-on-bootstrap.o)
 .debug_aranges
                0x000013e0       0x20 /Applications/microchip/xc32/v2.15/bin/bin/../../lib/gcc/pic32mx/4.8.3/../../../../pic32mx/lib/libpic32.a(defaultinterrupt.o)
 .debug_aranges
                0x00001400       0xa0 /Applications/microchip/xc32/v2.15/bin/bin/../../lib/gcc/pic32mx/4.8.3/../../../../pic32mx/lib/libc.a(ctypef.o)
 .debug_aranges
                0x000014a0       0x30 /Applications/microchip/xc32/v2.15/bin/bin/../../lib/gcc/pic32mx/4.8.3/../../../../pic32mx/lib/libc.a(malloc.o)
 .debug_aranges
                0x000014d0       0x20 /Applications/microchip/xc32/v2.15/bin/bin/../../lib/gcc/pic32mx/4.8.3/../../../../pic32mx/lib/libc.a(strcat.o)
 .debug_aranges
                0x000014f0       0x20 /Applications/microchip/xc32/v2.15/bin/bin/../../lib/gcc/pic32mx/4.8.3/../../../../pic32mx/lib/libc.a(strncmp.o)
 .debug_aranges
                0x00001510       0x28 /Applications/microchip/xc32/v2.15/bin/bin/../../lib/gcc/pic32mx/4.8.3/../../../../pic32mx/lib/libc.a(strtod.o)
 .debug_aranges
                0x00001538       0x20 /Applications/microchip/xc32/v2.15/bin/bin/../../lib/gcc/pic32mx/4.8.3/../../../../pic32mx/lib/libc.a(sprintf_cdgGnopuxX.eo)
 .debug_aranges
                0x00001558       0x20 /Applications/microchip/xc32/v2.15/bin/bin/../../lib/gcc/pic32mx/4.8.3/../../../../pic32mx/lib/libc.a(sscanf_gG.eo)
 .debug_aranges
                0x00001578       0x30 /Applications/microchip/xc32/v2.15/bin/bin/../../lib/gcc/pic32mx/4.8.3/../../../../pic32mx/lib/libc.a(doprnt_cdgGnopuxX.eo)
 .debug_aranges
                0x000015a8       0x30 /Applications/microchip/xc32/v2.15/bin/bin/../../lib/gcc/pic32mx/4.8.3/../../../../pic32mx/lib/libc.a(doscan_gG.eo)
 .debug_aranges
                0x000015d8       0x20 /Applications/microchip/xc32/v2.15/bin/bin/../../lib/gcc/pic32mx/4.8.3/../../../../pic32mx/lib/libc.a(fgetc.o)
 .debug_aranges
                0x000015f8       0x20 /Applications/microchip/xc32/v2.15/bin/bin/../../lib/gcc/pic32mx/4.8.3/../../../../pic32mx/lib/libc.a(_fputc_simple.o)
 .debug_aranges
                0x00001618       0x20 /Applications/microchip/xc32/v2.15/bin/bin/../../lib/gcc/pic32mx/4.8.3/../../../../pic32mx/lib/libc.a(atoi.o)
 .debug_aranges
                0x00001638       0x28 /Applications/microchip/xc32/v2.15/bin/bin/../../lib/gcc/pic32mx/4.8.3/../../../../pic32mx/lib/libc.a(strtof.o)
 .debug_aranges
                0x00001660       0x20 /Applications/microchip/xc32/v2.15/bin/bin/../../lib/gcc/pic32mx/4.8.3/../../../../pic32mx/lib/libc.a(ungetc.o)
 .debug_aranges
                0x00001680       0x20 /Applications/microchip/xc32/v2.15/bin/bin/../../lib/gcc/pic32mx/4.8.3/../../../../pic32mx/lib/libc.a(filbuf.o)
 .debug_aranges
                0x000016a0       0x20 /Applications/microchip/xc32/v2.15/bin/bin/../../lib/gcc/pic32mx/4.8.3/../../../../pic32mx/lib/libc.a(_flsbuf_simple.o)
 .debug_aranges
                0x000016c0       0x20 /Applications/microchip/xc32/v2.15/bin/bin/../../lib/gcc/pic32mx/4.8.3/../../../../pic32mx/lib/libc.a(fflush.o)
 .debug_aranges
                0x000016e0       0x20 /Applications/microchip/xc32/v2.15/bin/bin/../../lib/gcc/pic32mx/4.8.3/../../../../pic32mx/lib/libm.a(w_powf.o)
 .debug_aranges
                0x00001700       0x20 /Applications/microchip/xc32/v2.15/bin/bin/../../lib/gcc/pic32mx/4.8.3/../../../../pic32mx/lib/libm.a(__strtod.o)
 .debug_aranges
                0x00001720       0x20 /Applications/microchip/xc32/v2.15/bin/bin/../../lib/gcc/pic32mx/4.8.3/../../../../pic32mx/lib/libm.a(__strtof.o)
 .debug_aranges
                0x00001740       0x20 /Applications/microchip/xc32/v2.15/bin/bin/../../lib/gcc/pic32mx/4.8.3/../../../../pic32mx/lib/libe.a(_fixunsdfdi.o)
 .debug_aranges
                0x00001760       0x20 /Applications/microchip/xc32/v2.15/bin/bin/../../lib/gcc/pic32mx/4.8.3/../../../../pic32mx/lib/libe.a(_orderdf2.o)
 .debug_aranges
                0x00001780       0x20 /Applications/microchip/xc32/v2.15/bin/bin/../../lib/gcc/pic32mx/4.8.3/../../../../pic32mx/lib/libe.a(_ldexp.o)
 .debug_aranges
                0x000017a0       0x20 /Applications/microchip/xc32/v2.15/bin/bin/../../lib/gcc/pic32mx/4.8.3/../../../../pic32mx/lib/libe.a(_ldexpf.o)
 .debug_aranges
                0x000017c0       0x20 /Applications/microchip/xc32/v2.15/bin/bin/../../lib/gcc/pic32mx/4.8.3/../../../../pic32mx/lib/libe.a(_fixdfdi.o)
 .debug_aranges
                0x000017e0       0x20 /Applications/microchip/xc32/v2.15/bin/bin/../../lib/gcc/pic32mx/4.8.3/libgcc.a(_lshrdi3.o)
 .debug_aranges
                0x00001800       0x20 /Applications/microchip/xc32/v2.15/bin/bin/../../lib/gcc/pic32mx/4.8.3/libgcc.a(_ashldi3.o)
 .debug_aranges
                0x00001820       0x20 /Applications/microchip/xc32/v2.15/bin/bin/../../lib/gcc/pic32mx/4.8.3/libgcc.a(_floatundidf.o)
 .debug_aranges
                0x00001840       0x20 /Applications/microchip/xc32/v2.15/bin/bin/../../lib/gcc/pic32mx/4.8.3/libgcc.a(_udivdi3.o)
 .debug_aranges
                0x00001860       0x20 /Applications/microchip/xc32/v2.15/bin/bin/../../lib/gcc/pic32mx/4.8.3/libgcc.a(_umoddi3.o)
 .debug_aranges
                0x00001880       0x20 /Applications/microchip/xc32/v2.15/bin/bin/../../lib/gcc/pic32mx/4.8.3/libgcc.a(floatunsidf.o)
 .debug_aranges
                0x000018a0       0x40 /Applications/microchip/xc32/v2.15/bin/bin/../../lib/gcc/pic32mx/4.8.3/../../../../pic32mx/lib/libpic32.a(sbrk.o)
 .debug_aranges
                0x000018e0       0x20 /Applications/microchip/xc32/v2.15/bin/bin/../../lib/gcc/pic32mx/4.8.3/../../../../pic32mx/lib/libpic32.a(read.o)
 .debug_aranges
                0x00001900       0x20 /Applications/microchip/xc32/v2.15/bin/bin/../../lib/gcc/pic32mx/4.8.3/../../../../pic32mx/lib/libpic32.a(write.o)
 .debug_aranges
                0x00001920       0x48 /Applications/microchip/xc32/v2.15/bin/bin/../../lib/gcc/pic32mx/4.8.3/../../../../pic32mx/lib/libpic32.a(isinf.o)
 .debug_aranges
                0x00001968       0x20 /Applications/microchip/xc32/v2.15/bin/bin/../../lib/gcc/pic32mx/4.8.3/../../../../pic32mx/lib/libpic32.a(_mon_putc.o)
 .debug_aranges
                0x00001988       0x20 /Applications/microchip/xc32/v2.15/bin/bin/../../lib/gcc/pic32mx/4.8.3/../../../../pic32mx/lib/libe.a(_unorddf2.o)

.debug_pubnames
 *(.debug_pubnames)

.debug_info     0x00000000    0x3fcc3
 *(.debug_info .gnu.linkonce.wi.*)
 .debug_info    0x00000000     0x10dc build/Board2/production/_ext/1351229741/drv_oc_mapping.o
 .debug_info    0x000010dc     0x12e2 build/Board2/production/_ext/1351229741/drv_oc_static.o
 .debug_info    0x000023be     0x575b build/Board2/production/_ext/1550245252/drv_tmr_static.o
 .debug_info    0x00007b19     0x1d50 build/Board2/production/_ext/1550245252/drv_tmr_mapping.o
 .debug_info    0x00009869     0x1bfb build/Board2/production/_ext/794052624/drv_usart_mapping.o
 .debug_info    0x0000b464     0x3fff build/Board2/production/_ext/794052624/drv_usart_static.o
 .debug_info    0x0000f463     0x234b build/Board2/production/_ext/794052624/drv_usart_static_byte_model.o
 .debug_info    0x000117ae     0x1703 build/Board2/production/_ext/697674732/sys_clk_pic32mx.o
 .debug_info    0x00012eb1     0x160e build/Board2/production/_ext/733479835/sys_devcon.o
 .debug_info    0x000144bf     0x175d build/Board2/production/_ext/733479835/sys_devcon_pic32mx.o
 .debug_info    0x00015c1c     0x40e2 build/Board2/production/_ext/1943101500/sys_ports_static.o
 .debug_info    0x00019cfe     0x19d9 build/Board2/production/_ext/1445490755/system_init.o
 .debug_info    0x0001b6d7     0x2379 build/Board2/production/_ext/1445490755/system_interrupt.o
 .debug_info    0x0001da50      0xbf4 build/Board2/production/_ext/1445490755/system_exceptions.o
 .debug_info    0x0001e644      0xda9 build/Board2/production/_ext/1445490755/system_tasks.o
 .debug_info    0x0001f3ed       0x87 build/Board2/production/_ext/1445490755/system_interrupt_a.o
 .debug_info    0x0001f474      0x23d build/Board2/production/_ext/1445490755/rtos_hooks.o
 .debug_info    0x0001f6b1      0xded build/Board2/production/_ext/1360937237/game_app.o
 .debug_info    0x0002049e      0xded build/Board2/production/_ext/1360937237/wifi_app.o
 .debug_info    0x0002128b      0x196 build/Board2/production/_ext/1360937237/main.o
 .debug_info    0x00021421     0x404f build/Board2/production/_ext/334398652/cJSON.o
 .debug_info    0x00025470     0x1277 build/Board2/production/_ext/334398652/debug.o
 .debug_info    0x000266e7     0x1d9d build/Board2/production/_ext/334398652/http.o
 .debug_info    0x00028484     0x12eb build/Board2/production/_ext/334398652/wifi_queue.o
 .debug_info    0x0002976f     0x2747 build/Board2/production/_ext/334398652/wifi_state.o
 .debug_info    0x0002beb6      0xefe build/Board2/production/_ext/334398652/wifi_timer.o
 .debug_info    0x0002cdb4      0xfb2 build/Board2/production/_ext/334398652/game_queue.o
 .debug_info    0x0002dd66      0xf2c build/Board2/production/_ext/334398652/game_state.o
 .debug_info    0x0002ec92     0x1083 build/Board2/production/_ext/334398652/game_timer.o
 .debug_info    0x0002fd15      0xa23 build/Board2/production/_ext/1043444669/osal_freertos.o
 .debug_info    0x00030738     0x142c build/Board2/production/_ext/249303043/sys_int_pic32.o
 .debug_info    0x00031b64      0x57b build/Board2/production/_ext/905643201/heap_2.o
 .debug_info    0x000320df     0x119b build/Board2/production/_ext/331515796/port.o
 .debug_info    0x0003327a       0xc1 build/Board2/production/_ext/331515796/port_asm.o
 .debug_info    0x0003333b      0x173 build/Board2/production/_ext/1539584926/croutine.o
 .debug_info    0x000334ae      0x476 build/Board2/production/_ext/1539584926/list.o
 .debug_info    0x00033924     0x1ecd build/Board2/production/_ext/1539584926/queue.o
 .debug_info    0x000357f1     0x2b3d build/Board2/production/_ext/1539584926/tasks.o
 .debug_info    0x0003832e     0x15bb build/Board2/production/_ext/1539584926/timers.o
 .debug_info    0x000398e9      0xd49 build/Board2/production/_ext/1539584926/event_groups.o
 .debug_info    0x0003a632     0x16ef build/Board2/production/_ext/1539584926/stream_buffer.o
 .debug_info    0x0003bd21      0x11f /Applications/microchip/xc32/v2.15/bin/bin/../../lib/gcc/pic32mx/4.8.3/../../../../pic32mx/lib/libpic32.a(default-bootstrap-exception-handler.o)
 .debug_info    0x0003be40       0xf8 /Applications/microchip/xc32/v2.15/bin/bin/../../lib/gcc/pic32mx/4.8.3/../../../../pic32mx/lib/libpic32.a(default-on-reset.o)
 .debug_info    0x0003bf38      0x100 /Applications/microchip/xc32/v2.15/bin/bin/../../lib/gcc/pic32mx/4.8.3/../../../../pic32mx/lib/libpic32.a(default-on-bootstrap.o)
 .debug_info    0x0003c038      0x112 /Applications/microchip/xc32/v2.15/bin/bin/../../lib/gcc/pic32mx/4.8.3/../../../../pic32mx/lib/libpic32.a(defaultinterrupt.o)
 .debug_info    0x0003c14a      0x264 /Applications/microchip/xc32/v2.15/bin/bin/../../lib/gcc/pic32mx/4.8.3/../../../../pic32mx/lib/libc.a(ctypef.o)
 .debug_info    0x0003c3ae      0x121 /Applications/microchip/xc32/v2.15/bin/bin/../../lib/gcc/pic32mx/4.8.3/../../../../pic32mx/lib/libc.a(malloc.o)
 .debug_info    0x0003c4cf       0xf0 /Applications/microchip/xc32/v2.15/bin/bin/../../lib/gcc/pic32mx/4.8.3/../../../../pic32mx/lib/libc.a(strcat.o)
 .debug_info    0x0003c5bf       0xf2 /Applications/microchip/xc32/v2.15/bin/bin/../../lib/gcc/pic32mx/4.8.3/../../../../pic32mx/lib/libc.a(strncmp.o)
 .debug_info    0x0003c6b1      0x120 /Applications/microchip/xc32/v2.15/bin/bin/../../lib/gcc/pic32mx/4.8.3/../../../../pic32mx/lib/libc.a(strtod.o)
 .debug_info    0x0003c7d1       0xfe /Applications/microchip/xc32/v2.15/bin/bin/../../lib/gcc/pic32mx/4.8.3/../../../../pic32mx/lib/libc.a(sprintf_cdgGnopuxX.eo)
 .debug_info    0x0003c8cf       0xf4 /Applications/microchip/xc32/v2.15/bin/bin/../../lib/gcc/pic32mx/4.8.3/../../../../pic32mx/lib/libc.a(sscanf_gG.eo)
 .debug_info    0x0003c9c3      0x136 /Applications/microchip/xc32/v2.15/bin/bin/../../lib/gcc/pic32mx/4.8.3/../../../../pic32mx/lib/libc.a(doprnt_cdgGnopuxX.eo)
 .debug_info    0x0003caf9      0x11e /Applications/microchip/xc32/v2.15/bin/bin/../../lib/gcc/pic32mx/4.8.3/../../../../pic32mx/lib/libc.a(doscan_gG.eo)
 .debug_info    0x0003cc17       0xee /Applications/microchip/xc32/v2.15/bin/bin/../../lib/gcc/pic32mx/4.8.3/../../../../pic32mx/lib/libc.a(fgetc.o)
 .debug_info    0x0003cd05       0xee /Applications/microchip/xc32/v2.15/bin/bin/../../lib/gcc/pic32mx/4.8.3/../../../../pic32mx/lib/libc.a(_fputc_simple.o)
 .debug_info    0x0003cdf3       0xec /Applications/microchip/xc32/v2.15/bin/bin/../../lib/gcc/pic32mx/4.8.3/../../../../pic32mx/lib/libc.a(atoi.o)
 .debug_info    0x0003cedf      0x11f /Applications/microchip/xc32/v2.15/bin/bin/../../lib/gcc/pic32mx/4.8.3/../../../../pic32mx/lib/libc.a(strtof.o)
 .debug_info    0x0003cffe       0xf0 /Applications/microchip/xc32/v2.15/bin/bin/../../lib/gcc/pic32mx/4.8.3/../../../../pic32mx/lib/libc.a(ungetc.o)
 .debug_info    0x0003d0ee       0xf1 /Applications/microchip/xc32/v2.15/bin/bin/../../lib/gcc/pic32mx/4.8.3/../../../../pic32mx/lib/libc.a(filbuf.o)
 .debug_info    0x0003d1df       0xf1 /Applications/microchip/xc32/v2.15/bin/bin/../../lib/gcc/pic32mx/4.8.3/../../../../pic32mx/lib/libc.a(_flsbuf_simple.o)
 .debug_info    0x0003d2d0       0xf0 /Applications/microchip/xc32/v2.15/bin/bin/../../lib/gcc/pic32mx/4.8.3/../../../../pic32mx/lib/libc.a(fflush.o)
 .debug_info    0x0003d3c0       0xe7 /Applications/microchip/xc32/v2.15/bin/bin/../../lib/gcc/pic32mx/4.8.3/../../../../pic32mx/lib/libm.a(w_powf.o)
 .debug_info    0x0003d4a7      0x103 /Applications/microchip/xc32/v2.15/bin/bin/../../lib/gcc/pic32mx/4.8.3/../../../../pic32mx/lib/libm.a(__strtod.o)
 .debug_info    0x0003d5aa      0x103 /Applications/microchip/xc32/v2.15/bin/bin/../../lib/gcc/pic32mx/4.8.3/../../../../pic32mx/lib/libm.a(__strtof.o)
 .debug_info    0x0003d6ad       0xf9 /Applications/microchip/xc32/v2.15/bin/bin/../../lib/gcc/pic32mx/4.8.3/../../../../pic32mx/lib/libe.a(_fixunsdfdi.o)
 .debug_info    0x0003d7a6       0xe5 /Applications/microchip/xc32/v2.15/bin/bin/../../lib/gcc/pic32mx/4.8.3/../../../../pic32mx/lib/libe.a(_orderdf2.o)
 .debug_info    0x0003d88b      0x104 /Applications/microchip/xc32/v2.15/bin/bin/../../lib/gcc/pic32mx/4.8.3/../../../../pic32mx/lib/libe.a(_ldexp.o)
 .debug_info    0x0003d98f      0x104 /Applications/microchip/xc32/v2.15/bin/bin/../../lib/gcc/pic32mx/4.8.3/../../../../pic32mx/lib/libe.a(_ldexpf.o)
 .debug_info    0x0003da93       0xe4 /Applications/microchip/xc32/v2.15/bin/bin/../../lib/gcc/pic32mx/4.8.3/../../../../pic32mx/lib/libe.a(_fixdfdi.o)
 .debug_info    0x0003db77      0x37d /Applications/microchip/xc32/v2.15/bin/bin/../../lib/gcc/pic32mx/4.8.3/libgcc.a(_lshrdi3.o)
 .debug_info    0x0003def4      0x380 /Applications/microchip/xc32/v2.15/bin/bin/../../lib/gcc/pic32mx/4.8.3/libgcc.a(_ashldi3.o)
 .debug_info    0x0003e274      0x2b6 /Applications/microchip/xc32/v2.15/bin/bin/../../lib/gcc/pic32mx/4.8.3/libgcc.a(_floatundidf.o)
 .debug_info    0x0003e52a      0x7bc /Applications/microchip/xc32/v2.15/bin/bin/../../lib/gcc/pic32mx/4.8.3/libgcc.a(_udivdi3.o)
 .debug_info    0x0003ece6      0x7f9 /Applications/microchip/xc32/v2.15/bin/bin/../../lib/gcc/pic32mx/4.8.3/libgcc.a(_umoddi3.o)
 .debug_info    0x0003f4df      0x16c /Applications/microchip/xc32/v2.15/bin/bin/../../lib/gcc/pic32mx/4.8.3/libgcc.a(floatunsidf.o)
 .debug_info    0x0003f64b      0x15c /Applications/microchip/xc32/v2.15/bin/bin/../../lib/gcc/pic32mx/4.8.3/../../../../pic32mx/lib/libpic32.a(sbrk.o)
 .debug_info    0x0003f7a7       0xe8 /Applications/microchip/xc32/v2.15/bin/bin/../../lib/gcc/pic32mx/4.8.3/../../../../pic32mx/lib/libpic32.a(read.o)
 .debug_info    0x0003f88f       0xea /Applications/microchip/xc32/v2.15/bin/bin/../../lib/gcc/pic32mx/4.8.3/../../../../pic32mx/lib/libpic32.a(write.o)
 .debug_info    0x0003f979      0x15f /Applications/microchip/xc32/v2.15/bin/bin/../../lib/gcc/pic32mx/4.8.3/../../../../pic32mx/lib/libpic32.a(isinf.o)
 .debug_info    0x0003fad8       0xf2 /Applications/microchip/xc32/v2.15/bin/bin/../../lib/gcc/pic32mx/4.8.3/../../../../pic32mx/lib/libpic32.a(_mon_putc.o)
 .debug_info    0x0003fbca       0xf9 /Applications/microchip/xc32/v2.15/bin/bin/../../lib/gcc/pic32mx/4.8.3/../../../../pic32mx/lib/libe.a(_unorddf2.o)

.debug_abbrev   0x00000000     0x64ff
 *(.debug_abbrev)
 .debug_abbrev  0x00000000      0x1d6 build/Board2/production/_ext/1351229741/drv_oc_mapping.o
 .debug_abbrev  0x000001d6      0x1c2 build/Board2/production/_ext/1351229741/drv_oc_static.o
 .debug_abbrev  0x00000398      0x402 build/Board2/production/_ext/1550245252/drv_tmr_static.o
 .debug_abbrev  0x0000079a      0x2dd build/Board2/production/_ext/1550245252/drv_tmr_mapping.o
 .debug_abbrev  0x00000a77      0x243 build/Board2/production/_ext/794052624/drv_usart_mapping.o
 .debug_abbrev  0x00000cba      0x403 build/Board2/production/_ext/794052624/drv_usart_static.o
 .debug_abbrev  0x000010bd      0x30e build/Board2/production/_ext/794052624/drv_usart_static_byte_model.o
 .debug_abbrev  0x000013cb      0x283 build/Board2/production/_ext/697674732/sys_clk_pic32mx.o
 .debug_abbrev  0x0000164e      0x27b build/Board2/production/_ext/733479835/sys_devcon.o
 .debug_abbrev  0x000018c9      0x20f build/Board2/production/_ext/733479835/sys_devcon_pic32mx.o
 .debug_abbrev  0x00001ad8      0x279 build/Board2/production/_ext/1943101500/sys_ports_static.o
 .debug_abbrev  0x00001d51      0x276 build/Board2/production/_ext/1445490755/system_init.o
 .debug_abbrev  0x00001fc7      0x270 build/Board2/production/_ext/1445490755/system_interrupt.o
 .debug_abbrev  0x00002237      0x114 build/Board2/production/_ext/1445490755/system_exceptions.o
 .debug_abbrev  0x0000234b      0x18e build/Board2/production/_ext/1445490755/system_tasks.o
 .debug_abbrev  0x000024d9       0x12 build/Board2/production/_ext/1445490755/system_interrupt_a.o
 .debug_abbrev  0x000024eb       0x97 build/Board2/production/_ext/1445490755/rtos_hooks.o
 .debug_abbrev  0x00002582      0x19e build/Board2/production/_ext/1360937237/game_app.o
 .debug_abbrev  0x00002720      0x19e build/Board2/production/_ext/1360937237/wifi_app.o
 .debug_abbrev  0x000028be       0x93 build/Board2/production/_ext/1360937237/main.o
 .debug_abbrev  0x00002951      0x4cf build/Board2/production/_ext/334398652/cJSON.o
 .debug_abbrev  0x00002e20      0x260 build/Board2/production/_ext/334398652/debug.o
 .debug_abbrev  0x00003080      0x35d build/Board2/production/_ext/334398652/http.o
 .debug_abbrev  0x000033dd      0x23f build/Board2/production/_ext/334398652/wifi_queue.o
 .debug_abbrev  0x0000361c      0x2ce build/Board2/production/_ext/334398652/wifi_state.o
 .debug_abbrev  0x000038ea      0x1be build/Board2/production/_ext/334398652/wifi_timer.o
 .debug_abbrev  0x00003aa8      0x1e2 build/Board2/production/_ext/334398652/game_queue.o
 .debug_abbrev  0x00003c8a      0x177 build/Board2/production/_ext/334398652/game_state.o
 .debug_abbrev  0x00003e01      0x1c1 build/Board2/production/_ext/334398652/game_timer.o
 .debug_abbrev  0x00003fc2      0x1fe build/Board2/production/_ext/1043444669/osal_freertos.o
 .debug_abbrev  0x000041c0      0x237 build/Board2/production/_ext/249303043/sys_int_pic32.o
 .debug_abbrev  0x000043f7      0x1cc build/Board2/production/_ext/905643201/heap_2.o
 .debug_abbrev  0x000045c3      0x2cf build/Board2/production/_ext/331515796/port.o
 .debug_abbrev  0x00004892       0x14 build/Board2/production/_ext/331515796/port_asm.o
 .debug_abbrev  0x000048a6       0x1b build/Board2/production/_ext/1539584926/croutine.o
 .debug_abbrev  0x000048c1       0xf8 build/Board2/production/_ext/1539584926/list.o
 .debug_abbrev  0x000049b9      0x34a build/Board2/production/_ext/1539584926/queue.o
 .debug_abbrev  0x00004d03      0x3a3 build/Board2/production/_ext/1539584926/tasks.o
 .debug_abbrev  0x000050a6      0x373 build/Board2/production/_ext/1539584926/timers.o
 .debug_abbrev  0x00005419      0x27d build/Board2/production/_ext/1539584926/event_groups.o
 .debug_abbrev  0x00005696      0x2dd build/Board2/production/_ext/1539584926/stream_buffer.o
 .debug_abbrev  0x00005973       0x28 /Applications/microchip/xc32/v2.15/bin/bin/../../lib/gcc/pic32mx/4.8.3/../../../../pic32mx/lib/libpic32.a(default-bootstrap-exception-handler.o)
 .debug_abbrev  0x0000599b       0x28 /Applications/microchip/xc32/v2.15/bin/bin/../../lib/gcc/pic32mx/4.8.3/../../../../pic32mx/lib/libpic32.a(default-on-reset.o)
 .debug_abbrev  0x000059c3       0x28 /Applications/microchip/xc32/v2.15/bin/bin/../../lib/gcc/pic32mx/4.8.3/../../../../pic32mx/lib/libpic32.a(default-on-bootstrap.o)
 .debug_abbrev  0x000059eb       0x28 /Applications/microchip/xc32/v2.15/bin/bin/../../lib/gcc/pic32mx/4.8.3/../../../../pic32mx/lib/libpic32.a(defaultinterrupt.o)
 .debug_abbrev  0x00005a13       0x28 /Applications/microchip/xc32/v2.15/bin/bin/../../lib/gcc/pic32mx/4.8.3/../../../../pic32mx/lib/libc.a(ctypef.o)
 .debug_abbrev  0x00005a3b       0x47 /Applications/microchip/xc32/v2.15/bin/bin/../../lib/gcc/pic32mx/4.8.3/../../../../pic32mx/lib/libc.a(malloc.o)
 .debug_abbrev  0x00005a82       0x28 /Applications/microchip/xc32/v2.15/bin/bin/../../lib/gcc/pic32mx/4.8.3/../../../../pic32mx/lib/libc.a(strcat.o)
 .debug_abbrev  0x00005aaa       0x28 /Applications/microchip/xc32/v2.15/bin/bin/../../lib/gcc/pic32mx/4.8.3/../../../../pic32mx/lib/libc.a(strncmp.o)
 .debug_abbrev  0x00005ad2       0x4f /Applications/microchip/xc32/v2.15/bin/bin/../../lib/gcc/pic32mx/4.8.3/../../../../pic32mx/lib/libc.a(strtod.o)
 .debug_abbrev  0x00005b21       0x28 /Applications/microchip/xc32/v2.15/bin/bin/../../lib/gcc/pic32mx/4.8.3/../../../../pic32mx/lib/libc.a(sprintf_cdgGnopuxX.eo)
 .debug_abbrev  0x00005b49       0x28 /Applications/microchip/xc32/v2.15/bin/bin/../../lib/gcc/pic32mx/4.8.3/../../../../pic32mx/lib/libc.a(sscanf_gG.eo)
 .debug_abbrev  0x00005b71       0x45 /Applications/microchip/xc32/v2.15/bin/bin/../../lib/gcc/pic32mx/4.8.3/../../../../pic32mx/lib/libc.a(doprnt_cdgGnopuxX.eo)
 .debug_abbrev  0x00005bb6       0x3c /Applications/microchip/xc32/v2.15/bin/bin/../../lib/gcc/pic32mx/4.8.3/../../../../pic32mx/lib/libc.a(doscan_gG.eo)
 .debug_abbrev  0x00005bf2       0x28 /Applications/microchip/xc32/v2.15/bin/bin/../../lib/gcc/pic32mx/4.8.3/../../../../pic32mx/lib/libc.a(fgetc.o)
 .debug_abbrev  0x00005c1a       0x28 /Applications/microchip/xc32/v2.15/bin/bin/../../lib/gcc/pic32mx/4.8.3/../../../../pic32mx/lib/libc.a(_fputc_simple.o)
 .debug_abbrev  0x00005c42       0x28 /Applications/microchip/xc32/v2.15/bin/bin/../../lib/gcc/pic32mx/4.8.3/../../../../pic32mx/lib/libc.a(atoi.o)
 .debug_abbrev  0x00005c6a       0x4f /Applications/microchip/xc32/v2.15/bin/bin/../../lib/gcc/pic32mx/4.8.3/../../../../pic32mx/lib/libc.a(strtof.o)
 .debug_abbrev  0x00005cb9       0x28 /Applications/microchip/xc32/v2.15/bin/bin/../../lib/gcc/pic32mx/4.8.3/../../../../pic32mx/lib/libc.a(ungetc.o)
 .debug_abbrev  0x00005ce1       0x28 /Applications/microchip/xc32/v2.15/bin/bin/../../lib/gcc/pic32mx/4.8.3/../../../../pic32mx/lib/libc.a(filbuf.o)
 .debug_abbrev  0x00005d09       0x28 /Applications/microchip/xc32/v2.15/bin/bin/../../lib/gcc/pic32mx/4.8.3/../../../../pic32mx/lib/libc.a(_flsbuf_simple.o)
 .debug_abbrev  0x00005d31       0x28 /Applications/microchip/xc32/v2.15/bin/bin/../../lib/gcc/pic32mx/4.8.3/../../../../pic32mx/lib/libc.a(fflush.o)
 .debug_abbrev  0x00005d59       0x28 /Applications/microchip/xc32/v2.15/bin/bin/../../lib/gcc/pic32mx/4.8.3/../../../../pic32mx/lib/libm.a(w_powf.o)
 .debug_abbrev  0x00005d81       0x35 /Applications/microchip/xc32/v2.15/bin/bin/../../lib/gcc/pic32mx/4.8.3/../../../../pic32mx/lib/libm.a(__strtod.o)
 .debug_abbrev  0x00005db6       0x35 /Applications/microchip/xc32/v2.15/bin/bin/../../lib/gcc/pic32mx/4.8.3/../../../../pic32mx/lib/libm.a(__strtof.o)
 .debug_abbrev  0x00005deb       0x37 /Applications/microchip/xc32/v2.15/bin/bin/../../lib/gcc/pic32mx/4.8.3/../../../../pic32mx/lib/libe.a(_fixunsdfdi.o)
 .debug_abbrev  0x00005e22       0x28 /Applications/microchip/xc32/v2.15/bin/bin/../../lib/gcc/pic32mx/4.8.3/../../../../pic32mx/lib/libe.a(_orderdf2.o)
 .debug_abbrev  0x00005e4a       0x35 /Applications/microchip/xc32/v2.15/bin/bin/../../lib/gcc/pic32mx/4.8.3/../../../../pic32mx/lib/libe.a(_ldexp.o)
 .debug_abbrev  0x00005e7f       0x35 /Applications/microchip/xc32/v2.15/bin/bin/../../lib/gcc/pic32mx/4.8.3/../../../../pic32mx/lib/libe.a(_ldexpf.o)
 .debug_abbrev  0x00005eb4       0x28 /Applications/microchip/xc32/v2.15/bin/bin/../../lib/gcc/pic32mx/4.8.3/../../../../pic32mx/lib/libe.a(_fixdfdi.o)
 .debug_abbrev  0x00005edc       0xd7 /Applications/microchip/xc32/v2.15/bin/bin/../../lib/gcc/pic32mx/4.8.3/libgcc.a(_lshrdi3.o)
 .debug_abbrev  0x00005fb3       0xc8 /Applications/microchip/xc32/v2.15/bin/bin/../../lib/gcc/pic32mx/4.8.3/libgcc.a(_ashldi3.o)
 .debug_abbrev  0x0000607b       0x64 /Applications/microchip/xc32/v2.15/bin/bin/../../lib/gcc/pic32mx/4.8.3/libgcc.a(_floatundidf.o)
 .debug_abbrev  0x000060df      0x138 /Applications/microchip/xc32/v2.15/bin/bin/../../lib/gcc/pic32mx/4.8.3/libgcc.a(_udivdi3.o)
 .debug_abbrev  0x00006217      0x147 /Applications/microchip/xc32/v2.15/bin/bin/../../lib/gcc/pic32mx/4.8.3/libgcc.a(_umoddi3.o)
 .debug_abbrev  0x0000635e       0x62 /Applications/microchip/xc32/v2.15/bin/bin/../../lib/gcc/pic32mx/4.8.3/libgcc.a(floatunsidf.o)
 .debug_abbrev  0x000063c0       0x54 /Applications/microchip/xc32/v2.15/bin/bin/../../lib/gcc/pic32mx/4.8.3/../../../../pic32mx/lib/libpic32.a(sbrk.o)
 .debug_abbrev  0x00006414       0x28 /Applications/microchip/xc32/v2.15/bin/bin/../../lib/gcc/pic32mx/4.8.3/../../../../pic32mx/lib/libpic32.a(read.o)
 .debug_abbrev  0x0000643c       0x28 /Applications/microchip/xc32/v2.15/bin/bin/../../lib/gcc/pic32mx/4.8.3/../../../../pic32mx/lib/libpic32.a(write.o)
 .debug_abbrev  0x00006464       0x3e /Applications/microchip/xc32/v2.15/bin/bin/../../lib/gcc/pic32mx/4.8.3/../../../../pic32mx/lib/libpic32.a(isinf.o)
 .debug_abbrev  0x000064a2       0x28 /Applications/microchip/xc32/v2.15/bin/bin/../../lib/gcc/pic32mx/4.8.3/../../../../pic32mx/lib/libpic32.a(_mon_putc.o)
 .debug_abbrev  0x000064ca       0x35 /Applications/microchip/xc32/v2.15/bin/bin/../../lib/gcc/pic32mx/4.8.3/../../../../pic32mx/lib/libe.a(_unorddf2.o)

.debug_line     0x00000000     0xcb5b
 *(.debug_line)
 .debug_line    0x00000000      0x3cf build/Board2/production/_ext/1351229741/drv_oc_mapping.o
 .debug_line    0x000003cf      0x3f5 build/Board2/production/_ext/1351229741/drv_oc_static.o
 .debug_line    0x000007c4      0xac5 build/Board2/production/_ext/1550245252/drv_tmr_static.o
 .debug_line    0x00001289      0x556 build/Board2/production/_ext/1550245252/drv_tmr_mapping.o
 .debug_line    0x000017df      0x55a build/Board2/production/_ext/794052624/drv_usart_mapping.o
 .debug_line    0x00001d39      0x937 build/Board2/production/_ext/794052624/drv_usart_static.o
 .debug_line    0x00002670      0x590 build/Board2/production/_ext/794052624/drv_usart_static_byte_model.o
 .debug_line    0x00002c00      0x57e build/Board2/production/_ext/697674732/sys_clk_pic32mx.o
 .debug_line    0x0000317e      0x68c build/Board2/production/_ext/733479835/sys_devcon.o
 .debug_line    0x0000380a      0x4bc build/Board2/production/_ext/733479835/sys_devcon_pic32mx.o
 .debug_line    0x00003cc6      0x76e build/Board2/production/_ext/1943101500/sys_ports_static.o
 .debug_line    0x00004434      0x67b build/Board2/production/_ext/1445490755/system_init.o
 .debug_line    0x00004aaf      0x4eb build/Board2/production/_ext/1445490755/system_interrupt.o
 .debug_line    0x00004f9a      0x271 build/Board2/production/_ext/1445490755/system_exceptions.o
 .debug_line    0x0000520b      0x348 build/Board2/production/_ext/1445490755/system_tasks.o
 .debug_line    0x00005553       0xf9 build/Board2/production/_ext/1445490755/system_interrupt_a.o
 .debug_line    0x0000564c      0x134 build/Board2/production/_ext/1445490755/rtos_hooks.o
 .debug_line    0x00005780      0x269 build/Board2/production/_ext/1360937237/game_app.o
 .debug_line    0x000059e9      0x265 build/Board2/production/_ext/1360937237/wifi_app.o
 .debug_line    0x00005c4e       0xb3 build/Board2/production/_ext/1360937237/main.o
 .debug_line    0x00005d01      0xd53 build/Board2/production/_ext/334398652/cJSON.o
 .debug_line    0x00006a54      0x429 build/Board2/production/_ext/334398652/debug.o
 .debug_line    0x00006e7d      0x442 build/Board2/production/_ext/334398652/http.o
 .debug_line    0x000072bf      0x35d build/Board2/production/_ext/334398652/wifi_queue.o
 .debug_line    0x0000761c      0x504 build/Board2/production/_ext/334398652/wifi_state.o
 .debug_line    0x00007b20      0x2ec build/Board2/production/_ext/334398652/wifi_timer.o
 .debug_line    0x00007e0c      0x2f3 build/Board2/production/_ext/334398652/game_queue.o
 .debug_line    0x000080ff      0x2a4 build/Board2/production/_ext/334398652/game_state.o
 .debug_line    0x000083a3      0x344 build/Board2/production/_ext/334398652/game_timer.o
 .debug_line    0x000086e7      0x305 build/Board2/production/_ext/1043444669/osal_freertos.o
 .debug_line    0x000089ec      0x2eb build/Board2/production/_ext/249303043/sys_int_pic32.o
 .debug_line    0x00008cd7      0x24a build/Board2/production/_ext/905643201/heap_2.o
 .debug_line    0x00008f21      0x23e build/Board2/production/_ext/331515796/port.o
 .debug_line    0x0000915f      0x119 build/Board2/production/_ext/331515796/port_asm.o
 .debug_line    0x00009278       0x1d build/Board2/production/_ext/1539584926/croutine.o
 .debug_line    0x00009295      0x1f3 build/Board2/production/_ext/1539584926/list.o
 .debug_line    0x00009488      0x555 build/Board2/production/_ext/1539584926/queue.o
 .debug_line    0x000099dd      0x853 build/Board2/production/_ext/1539584926/tasks.o
 .debug_line    0x0000a230      0x3d9 build/Board2/production/_ext/1539584926/timers.o
 .debug_line    0x0000a609      0x332 build/Board2/production/_ext/1539584926/event_groups.o
 .debug_line    0x0000a93b      0x425 build/Board2/production/_ext/1539584926/stream_buffer.o
 .debug_line    0x0000ad60       0xd1 /Applications/microchip/xc32/v2.15/bin/bin/../../lib/gcc/pic32mx/4.8.3/../../../../pic32mx/lib/libpic32.a(default-bootstrap-exception-handler.o)
 .debug_line    0x0000ae31       0xbe /Applications/microchip/xc32/v2.15/bin/bin/../../lib/gcc/pic32mx/4.8.3/../../../../pic32mx/lib/libpic32.a(default-on-reset.o)
 .debug_line    0x0000aeef       0xc2 /Applications/microchip/xc32/v2.15/bin/bin/../../lib/gcc/pic32mx/4.8.3/../../../../pic32mx/lib/libpic32.a(default-on-bootstrap.o)
 .debug_line    0x0000afb1       0xd0 /Applications/microchip/xc32/v2.15/bin/bin/../../lib/gcc/pic32mx/4.8.3/../../../../pic32mx/lib/libpic32.a(defaultinterrupt.o)
 .debug_line    0x0000b081       0xaa /Applications/microchip/xc32/v2.15/bin/bin/../../lib/gcc/pic32mx/4.8.3/../../../../pic32mx/lib/libc.a(ctypef.o)
 .debug_line    0x0000b12b       0xaa /Applications/microchip/xc32/v2.15/bin/bin/../../lib/gcc/pic32mx/4.8.3/../../../../pic32mx/lib/libc.a(malloc.o)
 .debug_line    0x0000b1d5       0xaa /Applications/microchip/xc32/v2.15/bin/bin/../../lib/gcc/pic32mx/4.8.3/../../../../pic32mx/lib/libc.a(strcat.o)
 .debug_line    0x0000b27f       0xab /Applications/microchip/xc32/v2.15/bin/bin/../../lib/gcc/pic32mx/4.8.3/../../../../pic32mx/lib/libc.a(strncmp.o)
 .debug_line    0x0000b32a       0xaa /Applications/microchip/xc32/v2.15/bin/bin/../../lib/gcc/pic32mx/4.8.3/../../../../pic32mx/lib/libc.a(strtod.o)
 .debug_line    0x0000b3d4       0xab /Applications/microchip/xc32/v2.15/bin/bin/../../lib/gcc/pic32mx/4.8.3/../../../../pic32mx/lib/libc.a(sprintf_cdgGnopuxX.eo)
 .debug_line    0x0000b47f       0xaa /Applications/microchip/xc32/v2.15/bin/bin/../../lib/gcc/pic32mx/4.8.3/../../../../pic32mx/lib/libc.a(sscanf_gG.eo)
 .debug_line    0x0000b529        0x0 /Applications/microchip/xc32/v2.15/bin/bin/../../lib/gcc/pic32mx/4.8.3/../../../../pic32mx/lib/libc.a(ctype.o)
 .debug_line    0x0000b529       0xaa /Applications/microchip/xc32/v2.15/bin/bin/../../lib/gcc/pic32mx/4.8.3/../../../../pic32mx/lib/libc.a(doprnt_cdgGnopuxX.eo)
 .debug_line    0x0000b5d3       0xaa /Applications/microchip/xc32/v2.15/bin/bin/../../lib/gcc/pic32mx/4.8.3/../../../../pic32mx/lib/libc.a(doscan_gG.eo)
 .debug_line    0x0000b67d       0xa9 /Applications/microchip/xc32/v2.15/bin/bin/../../lib/gcc/pic32mx/4.8.3/../../../../pic32mx/lib/libc.a(fgetc.o)
 .debug_line    0x0000b726       0xa9 /Applications/microchip/xc32/v2.15/bin/bin/../../lib/gcc/pic32mx/4.8.3/../../../../pic32mx/lib/libc.a(_fputc_simple.o)
 .debug_line    0x0000b7cf       0xa8 /Applications/microchip/xc32/v2.15/bin/bin/../../lib/gcc/pic32mx/4.8.3/../../../../pic32mx/lib/libc.a(atoi.o)
 .debug_line    0x0000b877        0x0 /Applications/microchip/xc32/v2.15/bin/bin/../../lib/gcc/pic32mx/4.8.3/../../../../pic32mx/lib/libc.a(ldpowers.o)
 .debug_line    0x0000b877       0xaa /Applications/microchip/xc32/v2.15/bin/bin/../../lib/gcc/pic32mx/4.8.3/../../../../pic32mx/lib/libc.a(strtof.o)
 .debug_line    0x0000b921       0xaa /Applications/microchip/xc32/v2.15/bin/bin/../../lib/gcc/pic32mx/4.8.3/../../../../pic32mx/lib/libc.a(ungetc.o)
 .debug_line    0x0000b9cb        0x0 /Applications/microchip/xc32/v2.15/bin/bin/../../lib/gcc/pic32mx/4.8.3/../../../../pic32mx/lib/libc.a(_iob.o)
 .debug_line    0x0000b9cb       0xaa /Applications/microchip/xc32/v2.15/bin/bin/../../lib/gcc/pic32mx/4.8.3/../../../../pic32mx/lib/libc.a(filbuf.o)
 .debug_line    0x0000ba75       0xaa /Applications/microchip/xc32/v2.15/bin/bin/../../lib/gcc/pic32mx/4.8.3/../../../../pic32mx/lib/libc.a(_flsbuf_simple.o)
 .debug_line    0x0000bb1f       0xaa /Applications/microchip/xc32/v2.15/bin/bin/../../lib/gcc/pic32mx/4.8.3/../../../../pic32mx/lib/libc.a(fflush.o)
 .debug_line    0x0000bbc9       0xb1 /Applications/microchip/xc32/v2.15/bin/bin/../../lib/gcc/pic32mx/4.8.3/../../../../pic32mx/lib/libm.a(w_powf.o)
 .debug_line    0x0000bc7a       0xb3 /Applications/microchip/xc32/v2.15/bin/bin/../../lib/gcc/pic32mx/4.8.3/../../../../pic32mx/lib/libm.a(__strtod.o)
 .debug_line    0x0000bd2d       0xb3 /Applications/microchip/xc32/v2.15/bin/bin/../../lib/gcc/pic32mx/4.8.3/../../../../pic32mx/lib/libm.a(__strtof.o)
 .debug_line    0x0000bde0        0x0 /Applications/microchip/xc32/v2.15/bin/bin/../../lib/gcc/pic32mx/4.8.3/../../../../pic32mx/lib/libm.a(s_lib_ver.o)
 .debug_line    0x0000bde0       0xad /Applications/microchip/xc32/v2.15/bin/bin/../../lib/gcc/pic32mx/4.8.3/../../../../pic32mx/lib/libe.a(_fixunsdfdi.o)
 .debug_line    0x0000be8d       0xac /Applications/microchip/xc32/v2.15/bin/bin/../../lib/gcc/pic32mx/4.8.3/../../../../pic32mx/lib/libe.a(_orderdf2.o)
 .debug_line    0x0000bf39       0xcd /Applications/microchip/xc32/v2.15/bin/bin/../../lib/gcc/pic32mx/4.8.3/../../../../pic32mx/lib/libe.a(_ldexp.o)
 .debug_line    0x0000c006       0xcd /Applications/microchip/xc32/v2.15/bin/bin/../../lib/gcc/pic32mx/4.8.3/../../../../pic32mx/lib/libe.a(_ldexpf.o)
 .debug_line    0x0000c0d3       0xac /Applications/microchip/xc32/v2.15/bin/bin/../../lib/gcc/pic32mx/4.8.3/../../../../pic32mx/lib/libe.a(_fixdfdi.o)
 .debug_line    0x0000c17f       0xd5 /Applications/microchip/xc32/v2.15/bin/bin/../../lib/gcc/pic32mx/4.8.3/libgcc.a(_lshrdi3.o)
 .debug_line    0x0000c254       0xd5 /Applications/microchip/xc32/v2.15/bin/bin/../../lib/gcc/pic32mx/4.8.3/libgcc.a(_ashldi3.o)
 .debug_line    0x0000c329       0xd5 /Applications/microchip/xc32/v2.15/bin/bin/../../lib/gcc/pic32mx/4.8.3/libgcc.a(_floatundidf.o)
 .debug_line    0x0000c3fe      0x127 /Applications/microchip/xc32/v2.15/bin/bin/../../lib/gcc/pic32mx/4.8.3/libgcc.a(_udivdi3.o)
 .debug_line    0x0000c525      0x139 /Applications/microchip/xc32/v2.15/bin/bin/../../lib/gcc/pic32mx/4.8.3/libgcc.a(_umoddi3.o)
 .debug_line    0x0000c65e       0xc3 /Applications/microchip/xc32/v2.15/bin/bin/../../lib/gcc/pic32mx/4.8.3/libgcc.a(floatunsidf.o)
 .debug_line    0x0000c721       0xb2 /Applications/microchip/xc32/v2.15/bin/bin/../../lib/gcc/pic32mx/4.8.3/../../../../pic32mx/lib/libpic32.a(sbrk.o)
 .debug_line    0x0000c7d3       0xb2 /Applications/microchip/xc32/v2.15/bin/bin/../../lib/gcc/pic32mx/4.8.3/../../../../pic32mx/lib/libpic32.a(read.o)
 .debug_line    0x0000c885       0xb3 /Applications/microchip/xc32/v2.15/bin/bin/../../lib/gcc/pic32mx/4.8.3/../../../../pic32mx/lib/libpic32.a(write.o)
 .debug_line    0x0000c938        0x0 /Applications/microchip/xc32/v2.15/bin/bin/../../lib/gcc/pic32mx/4.8.3/../../../../pic32mx/lib/libpic32.a(xc32_uart.o)
 .debug_line    0x0000c938        0x0 /Applications/microchip/xc32/v2.15/bin/bin/../../lib/gcc/pic32mx/4.8.3/../../../../pic32mx/lib/libpic32.a(errno.o)
 .debug_line    0x0000c938       0xb3 /Applications/microchip/xc32/v2.15/bin/bin/../../lib/gcc/pic32mx/4.8.3/../../../../pic32mx/lib/libpic32.a(isinf.o)
 .debug_line    0x0000c9eb       0xb7 /Applications/microchip/xc32/v2.15/bin/bin/../../lib/gcc/pic32mx/4.8.3/../../../../pic32mx/lib/libpic32.a(_mon_putc.o)
 .debug_line    0x0000caa2       0xb9 /Applications/microchip/xc32/v2.15/bin/bin/../../lib/gcc/pic32mx/4.8.3/../../../../pic32mx/lib/libe.a(_unorddf2.o)

.debug_frame    0x00000000     0x3760
 *(.debug_frame)
 .debug_frame   0x00000000       0xa8 build/Board2/production/_ext/1351229741/drv_oc_mapping.o
 .debug_frame   0x000000a8       0xf0 build/Board2/production/_ext/1351229741/drv_oc_static.o
 .debug_frame   0x00000198      0x31c build/Board2/production/_ext/1550245252/drv_tmr_static.o
 .debug_frame   0x000004b4      0x218 build/Board2/production/_ext/1550245252/drv_tmr_mapping.o
 .debug_frame   0x000006cc      0x258 build/Board2/production/_ext/794052624/drv_usart_mapping.o
 .debug_frame   0x00000924      0x120 build/Board2/production/_ext/794052624/drv_usart_static.o
 .debug_frame   0x00000a44       0x80 build/Board2/production/_ext/794052624/drv_usart_static_byte_model.o
 .debug_frame   0x00000ac4       0xa0 build/Board2/production/_ext/697674732/sys_clk_pic32mx.o
 .debug_frame   0x00000b64       0xe8 build/Board2/production/_ext/733479835/sys_devcon.o
 .debug_frame   0x00000c4c       0x28 build/Board2/production/_ext/733479835/sys_devcon_pic32mx.o
 .debug_frame   0x00000c74      0x270 build/Board2/production/_ext/1943101500/sys_ports_static.o
 .debug_frame   0x00000ee4       0x28 build/Board2/production/_ext/1445490755/system_init.o
 .debug_frame   0x00000f0c       0x58 build/Board2/production/_ext/1445490755/system_interrupt.o
 .debug_frame   0x00000f64       0x28 build/Board2/production/_ext/1445490755/system_exceptions.o
 .debug_frame   0x00000f8c       0x68 build/Board2/production/_ext/1445490755/system_tasks.o
 .debug_frame   0x00000ff4       0x40 build/Board2/production/_ext/1445490755/rtos_hooks.o
 .debug_frame   0x00001034       0x40 build/Board2/production/_ext/1360937237/game_app.o
 .debug_frame   0x00001074       0x40 build/Board2/production/_ext/1360937237/wifi_app.o
 .debug_frame   0x000010b4       0x28 build/Board2/production/_ext/1360937237/main.o
 .debug_frame   0x000010dc      0x950 build/Board2/production/_ext/334398652/cJSON.o
 .debug_frame   0x00001a2c       0x78 build/Board2/production/_ext/334398652/debug.o
 .debug_frame   0x00001aa4      0x178 build/Board2/production/_ext/334398652/http.o
 .debug_frame   0x00001c1c       0xec build/Board2/production/_ext/334398652/wifi_queue.o
 .debug_frame   0x00001d08       0x84 build/Board2/production/_ext/334398652/wifi_state.o
 .debug_frame   0x00001d8c       0x40 build/Board2/production/_ext/334398652/wifi_timer.o
 .debug_frame   0x00001dcc       0x70 build/Board2/production/_ext/334398652/game_queue.o
 .debug_frame   0x00001e3c       0x2c build/Board2/production/_ext/334398652/game_state.o
 .debug_frame   0x00001e68       0xb8 build/Board2/production/_ext/334398652/game_timer.o
 .debug_frame   0x00001f20      0x150 build/Board2/production/_ext/1043444669/osal_freertos.o
 .debug_frame   0x00002070       0x90 build/Board2/production/_ext/249303043/sys_int_pic32.o
 .debug_frame   0x00002100       0x64 build/Board2/production/_ext/905643201/heap_2.o
 .debug_frame   0x00002164       0xc0 build/Board2/production/_ext/331515796/port.o
 .debug_frame   0x00002224       0x60 build/Board2/production/_ext/1539584926/list.o
 .debug_frame   0x00002284      0x28c build/Board2/production/_ext/1539584926/queue.o
 .debug_frame   0x00002510      0x4b8 build/Board2/production/_ext/1539584926/tasks.o
 .debug_frame   0x000029c8      0x164 build/Board2/production/_ext/1539584926/timers.o
 .debug_frame   0x00002b2c      0x108 build/Board2/production/_ext/1539584926/event_groups.o
 .debug_frame   0x00002c34      0x218 build/Board2/production/_ext/1539584926/stream_buffer.o
 .debug_frame   0x00002e4c       0x2c /Applications/microchip/xc32/v2.15/bin/bin/../../lib/gcc/pic32mx/4.8.3/../../../../pic32mx/lib/libpic32.a(default-bootstrap-exception-handler.o)
 .debug_frame   0x00002e78       0x20 /Applications/microchip/xc32/v2.15/bin/bin/../../lib/gcc/pic32mx/4.8.3/../../../../pic32mx/lib/libpic32.a(default-on-reset.o)
 .debug_frame   0x00002e98       0x20 /Applications/microchip/xc32/v2.15/bin/bin/../../lib/gcc/pic32mx/4.8.3/../../../../pic32mx/lib/libpic32.a(default-on-bootstrap.o)
 .debug_frame   0x00002eb8       0x20 /Applications/microchip/xc32/v2.15/bin/bin/../../lib/gcc/pic32mx/4.8.3/../../../../pic32mx/lib/libpic32.a(defaultinterrupt.o)
 .debug_frame   0x00002ed8      0x120 /Applications/microchip/xc32/v2.15/bin/bin/../../lib/gcc/pic32mx/4.8.3/../../../../pic32mx/lib/libc.a(ctypef.o)
 .debug_frame   0x00002ff8       0x68 /Applications/microchip/xc32/v2.15/bin/bin/../../lib/gcc/pic32mx/4.8.3/../../../../pic32mx/lib/libc.a(malloc.o)
 .debug_frame   0x00003060       0x20 /Applications/microchip/xc32/v2.15/bin/bin/../../lib/gcc/pic32mx/4.8.3/../../../../pic32mx/lib/libc.a(strcat.o)
 .debug_frame   0x00003080       0x20 /Applications/microchip/xc32/v2.15/bin/bin/../../lib/gcc/pic32mx/4.8.3/../../../../pic32mx/lib/libc.a(strncmp.o)
 .debug_frame   0x000030a0       0x40 /Applications/microchip/xc32/v2.15/bin/bin/../../lib/gcc/pic32mx/4.8.3/../../../../pic32mx/lib/libc.a(strtod.o)
 .debug_frame   0x000030e0       0x28 /Applications/microchip/xc32/v2.15/bin/bin/../../lib/gcc/pic32mx/4.8.3/../../../../pic32mx/lib/libc.a(sprintf_cdgGnopuxX.eo)
 .debug_frame   0x00003108       0x28 /Applications/microchip/xc32/v2.15/bin/bin/../../lib/gcc/pic32mx/4.8.3/../../../../pic32mx/lib/libc.a(sscanf_gG.eo)
 .debug_frame   0x00003130       0x74 /Applications/microchip/xc32/v2.15/bin/bin/../../lib/gcc/pic32mx/4.8.3/../../../../pic32mx/lib/libc.a(doprnt_cdgGnopuxX.eo)
 .debug_frame   0x000031a4       0x70 /Applications/microchip/xc32/v2.15/bin/bin/../../lib/gcc/pic32mx/4.8.3/../../../../pic32mx/lib/libc.a(doscan_gG.eo)
 .debug_frame   0x00003214       0x2c /Applications/microchip/xc32/v2.15/bin/bin/../../lib/gcc/pic32mx/4.8.3/../../../../pic32mx/lib/libc.a(fgetc.o)
 .debug_frame   0x00003240       0x2c /Applications/microchip/xc32/v2.15/bin/bin/../../lib/gcc/pic32mx/4.8.3/../../../../pic32mx/lib/libc.a(_fputc_simple.o)
 .debug_frame   0x0000326c       0x20 /Applications/microchip/xc32/v2.15/bin/bin/../../lib/gcc/pic32mx/4.8.3/../../../../pic32mx/lib/libc.a(atoi.o)
 .debug_frame   0x0000328c       0x40 /Applications/microchip/xc32/v2.15/bin/bin/../../lib/gcc/pic32mx/4.8.3/../../../../pic32mx/lib/libc.a(strtof.o)
 .debug_frame   0x000032cc       0x20 /Applications/microchip/xc32/v2.15/bin/bin/../../lib/gcc/pic32mx/4.8.3/../../../../pic32mx/lib/libc.a(ungetc.o)
 .debug_frame   0x000032ec       0x30 /Applications/microchip/xc32/v2.15/bin/bin/../../lib/gcc/pic32mx/4.8.3/../../../../pic32mx/lib/libc.a(filbuf.o)
 .debug_frame   0x0000331c       0x28 /Applications/microchip/xc32/v2.15/bin/bin/../../lib/gcc/pic32mx/4.8.3/../../../../pic32mx/lib/libc.a(_flsbuf_simple.o)
 .debug_frame   0x00003344       0x28 /Applications/microchip/xc32/v2.15/bin/bin/../../lib/gcc/pic32mx/4.8.3/../../../../pic32mx/lib/libc.a(fflush.o)
 .debug_frame   0x0000336c       0x2c /Applications/microchip/xc32/v2.15/bin/bin/../../lib/gcc/pic32mx/4.8.3/../../../../pic32mx/lib/libm.a(w_powf.o)
 .debug_frame   0x00003398       0x38 /Applications/microchip/xc32/v2.15/bin/bin/../../lib/gcc/pic32mx/4.8.3/../../../../pic32mx/lib/libm.a(__strtod.o)
 .debug_frame   0x000033d0       0x38 /Applications/microchip/xc32/v2.15/bin/bin/../../lib/gcc/pic32mx/4.8.3/../../../../pic32mx/lib/libm.a(__strtof.o)
 .debug_frame   0x00003408       0x2c /Applications/microchip/xc32/v2.15/bin/bin/../../lib/gcc/pic32mx/4.8.3/../../../../pic32mx/lib/libe.a(_fixunsdfdi.o)
 .debug_frame   0x00003434       0x20 /Applications/microchip/xc32/v2.15/bin/bin/../../lib/gcc/pic32mx/4.8.3/../../../../pic32mx/lib/libe.a(_orderdf2.o)
 .debug_frame   0x00003454       0x2c /Applications/microchip/xc32/v2.15/bin/bin/../../lib/gcc/pic32mx/4.8.3/../../../../pic32mx/lib/libe.a(_ldexp.o)
 .debug_frame   0x00003480       0x20 /Applications/microchip/xc32/v2.15/bin/bin/../../lib/gcc/pic32mx/4.8.3/../../../../pic32mx/lib/libe.a(_ldexpf.o)
 .debug_frame   0x000034a0       0x20 /Applications/microchip/xc32/v2.15/bin/bin/../../lib/gcc/pic32mx/4.8.3/../../../../pic32mx/lib/libe.a(_fixdfdi.o)
 .debug_frame   0x000034c0       0x20 /Applications/microchip/xc32/v2.15/bin/bin/../../lib/gcc/pic32mx/4.8.3/libgcc.a(_lshrdi3.o)
 .debug_frame   0x000034e0       0x20 /Applications/microchip/xc32/v2.15/bin/bin/../../lib/gcc/pic32mx/4.8.3/libgcc.a(_ashldi3.o)
 .debug_frame   0x00003500       0x28 /Applications/microchip/xc32/v2.15/bin/bin/../../lib/gcc/pic32mx/4.8.3/libgcc.a(_floatundidf.o)
 .debug_frame   0x00003528       0x20 /Applications/microchip/xc32/v2.15/bin/bin/../../lib/gcc/pic32mx/4.8.3/libgcc.a(_udivdi3.o)
 .debug_frame   0x00003548       0x20 /Applications/microchip/xc32/v2.15/bin/bin/../../lib/gcc/pic32mx/4.8.3/libgcc.a(_umoddi3.o)
 .debug_frame   0x00003568       0x28 /Applications/microchip/xc32/v2.15/bin/bin/../../lib/gcc/pic32mx/4.8.3/libgcc.a(floatunsidf.o)
 .debug_frame   0x00003590       0x84 /Applications/microchip/xc32/v2.15/bin/bin/../../lib/gcc/pic32mx/4.8.3/../../../../pic32mx/lib/libpic32.a(sbrk.o)
 .debug_frame   0x00003614       0x2c /Applications/microchip/xc32/v2.15/bin/bin/../../lib/gcc/pic32mx/4.8.3/../../../../pic32mx/lib/libpic32.a(read.o)
 .debug_frame   0x00003640       0x38 /Applications/microchip/xc32/v2.15/bin/bin/../../lib/gcc/pic32mx/4.8.3/../../../../pic32mx/lib/libpic32.a(write.o)
 .debug_frame   0x00003678       0xa0 /Applications/microchip/xc32/v2.15/bin/bin/../../lib/gcc/pic32mx/4.8.3/../../../../pic32mx/lib/libpic32.a(isinf.o)
 .debug_frame   0x00003718       0x28 /Applications/microchip/xc32/v2.15/bin/bin/../../lib/gcc/pic32mx/4.8.3/../../../../pic32mx/lib/libpic32.a(_mon_putc.o)
 .debug_frame   0x00003740       0x20 /Applications/microchip/xc32/v2.15/bin/bin/../../lib/gcc/pic32mx/4.8.3/../../../../pic32mx/lib/libe.a(_unorddf2.o)

.debug_str      0x00000000      0xc36
 *(.debug_str)
 .debug_str     0x00000000       0x13 build/Board2/production/_ext/1351229741/drv_oc_mapping.o
 .debug_str     0x00000013       0x1f build/Board2/production/_ext/1351229741/drv_oc_static.o
 .debug_str     0x00000032       0x99 build/Board2/production/_ext/1550245252/drv_tmr_static.o
 .debug_str     0x000000cb        0xe build/Board2/production/_ext/1550245252/drv_tmr_mapping.o
 .debug_str     0x000000d9       0x23 build/Board2/production/_ext/794052624/drv_usart_mapping.o
 .debug_str     0x000000fc       0xe8 build/Board2/production/_ext/794052624/drv_usart_static.o
 .debug_str     0x000001e4       0x18 build/Board2/production/_ext/794052624/drv_usart_static_byte_model.o
 .debug_str     0x000001fc       0x39 build/Board2/production/_ext/697674732/sys_clk_pic32mx.o
 .debug_str     0x00000235       0x16 build/Board2/production/_ext/733479835/sys_devcon.o
 .debug_str     0x0000024b        0x6 build/Board2/production/_ext/733479835/sys_devcon_pic32mx.o
 .debug_str     0x00000251       0x55 build/Board2/production/_ext/1943101500/sys_ports_static.o
 .debug_str     0x000002a6       0x2b build/Board2/production/_ext/1445490755/system_init.o
 .debug_str     0x000002d1        0xd build/Board2/production/_ext/1445490755/system_interrupt.o
 .debug_str     0x000002de        0x0 build/Board2/production/_ext/1445490755/system_exceptions.o
 .debug_str     0x000002de        0x0 build/Board2/production/_ext/1445490755/system_tasks.o
 .debug_str     0x000002de        0x9 build/Board2/production/_ext/1445490755/rtos_hooks.o
 .debug_str     0x000002e7       0x26 build/Board2/production/_ext/1360937237/game_app.o
 .debug_str     0x0000030d       0x10 build/Board2/production/_ext/1360937237/wifi_app.o
 .debug_str     0x0000031d        0x0 build/Board2/production/_ext/1360937237/main.o
 .debug_str     0x0000031d      0x141 build/Board2/production/_ext/334398652/cJSON.o
 .debug_str     0x0000045e       0x1e build/Board2/production/_ext/334398652/debug.o
 .debug_str     0x0000047c       0xab build/Board2/production/_ext/334398652/http.o
 .debug_str     0x00000527       0x1c build/Board2/production/_ext/334398652/wifi_queue.o
 .debug_str     0x00000543       0x2d build/Board2/production/_ext/334398652/wifi_state.o
 .debug_str     0x00000570        0x0 build/Board2/production/_ext/334398652/wifi_timer.o
 .debug_str     0x00000570        0x0 build/Board2/production/_ext/334398652/game_queue.o
 .debug_str     0x00000570        0x0 build/Board2/production/_ext/334398652/game_state.o
 .debug_str     0x00000570        0x0 build/Board2/production/_ext/334398652/game_timer.o
 .debug_str     0x00000570       0x40 build/Board2/production/_ext/1043444669/osal_freertos.o
 .debug_str     0x000005b0       0x1d build/Board2/production/_ext/249303043/sys_int_pic32.o
 .debug_str     0x000005cd       0x33 build/Board2/production/_ext/905643201/heap_2.o
 .debug_str     0x00000600       0x37 build/Board2/production/_ext/331515796/port.o
 .debug_str     0x00000637        0x0 build/Board2/production/_ext/1539584926/croutine.o
 .debug_str     0x00000637       0x2b build/Board2/production/_ext/1539584926/list.o
 .debug_str     0x00000662      0x131 build/Board2/production/_ext/1539584926/queue.o
 .debug_str     0x00000793      0x19c build/Board2/production/_ext/1539584926/tasks.o
 .debug_str     0x0000092f       0xd2 build/Board2/production/_ext/1539584926/timers.o
 .debug_str     0x00000a01       0xe6 build/Board2/production/_ext/1539584926/event_groups.o
 .debug_str     0x00000ae7      0x13d build/Board2/production/_ext/1539584926/stream_buffer.o
 .debug_str     0x00000c24        0x0 /Applications/microchip/xc32/v2.15/bin/bin/../../lib/gcc/pic32mx/4.8.3/../../../../pic32mx/lib/libpic32.a(default-bootstrap-exception-handler.o)
 .debug_str     0x00000c24        0x0 /Applications/microchip/xc32/v2.15/bin/bin/../../lib/gcc/pic32mx/4.8.3/../../../../pic32mx/lib/libpic32.a(default-on-reset.o)
 .debug_str     0x00000c24        0x0 /Applications/microchip/xc32/v2.15/bin/bin/../../lib/gcc/pic32mx/4.8.3/../../../../pic32mx/lib/libpic32.a(default-on-bootstrap.o)
 .debug_str     0x00000c24        0x0 /Applications/microchip/xc32/v2.15/bin/bin/../../lib/gcc/pic32mx/4.8.3/../../../../pic32mx/lib/libpic32.a(defaultinterrupt.o)
 .debug_str     0x00000c24        0x0 /Applications/microchip/xc32/v2.15/bin/bin/../../lib/gcc/pic32mx/4.8.3/../../../../pic32mx/lib/libc.a(ctypef.o)
 .debug_str     0x00000c24        0x0 /Applications/microchip/xc32/v2.15/bin/bin/../../lib/gcc/pic32mx/4.8.3/../../../../pic32mx/lib/libc.a(malloc.o)
 .debug_str     0x00000c24        0x0 /Applications/microchip/xc32/v2.15/bin/bin/../../lib/gcc/pic32mx/4.8.3/../../../../pic32mx/lib/libc.a(strcat.o)
 .debug_str     0x00000c24        0x0 /Applications/microchip/xc32/v2.15/bin/bin/../../lib/gcc/pic32mx/4.8.3/../../../../pic32mx/lib/libc.a(strncmp.o)
 .debug_str     0x00000c24        0x9 /Applications/microchip/xc32/v2.15/bin/bin/../../lib/gcc/pic32mx/4.8.3/../../../../pic32mx/lib/libc.a(strtod.o)
 .debug_str     0x00000c2d        0x0 /Applications/microchip/xc32/v2.15/bin/bin/../../lib/gcc/pic32mx/4.8.3/../../../../pic32mx/lib/libc.a(sprintf_cdgGnopuxX.eo)
 .debug_str     0x00000c2d        0x0 /Applications/microchip/xc32/v2.15/bin/bin/../../lib/gcc/pic32mx/4.8.3/../../../../pic32mx/lib/libc.a(sscanf_gG.eo)
 .debug_str     0x00000c2d        0x0 /Applications/microchip/xc32/v2.15/bin/bin/../../lib/gcc/pic32mx/4.8.3/../../../../pic32mx/lib/libc.a(ctype.o)
 .debug_str     0x00000c2d        0x0 /Applications/microchip/xc32/v2.15/bin/bin/../../lib/gcc/pic32mx/4.8.3/../../../../pic32mx/lib/libc.a(doprnt_cdgGnopuxX.eo)
 .debug_str     0x00000c2d        0x0 /Applications/microchip/xc32/v2.15/bin/bin/../../lib/gcc/pic32mx/4.8.3/../../../../pic32mx/lib/libc.a(doscan_gG.eo)
 .debug_str     0x00000c2d        0x0 /Applications/microchip/xc32/v2.15/bin/bin/../../lib/gcc/pic32mx/4.8.3/../../../../pic32mx/lib/libc.a(fgetc.o)
 .debug_str     0x00000c2d        0x0 /Applications/microchip/xc32/v2.15/bin/bin/../../lib/gcc/pic32mx/4.8.3/../../../../pic32mx/lib/libc.a(_fputc_simple.o)
 .debug_str     0x00000c2d        0x0 /Applications/microchip/xc32/v2.15/bin/bin/../../lib/gcc/pic32mx/4.8.3/../../../../pic32mx/lib/libc.a(atoi.o)
 .debug_str     0x00000c2d        0x0 /Applications/microchip/xc32/v2.15/bin/bin/../../lib/gcc/pic32mx/4.8.3/../../../../pic32mx/lib/libc.a(ldpowers.o)
 .debug_str     0x00000c2d        0x9 /Applications/microchip/xc32/v2.15/bin/bin/../../lib/gcc/pic32mx/4.8.3/../../../../pic32mx/lib/libc.a(strtof.o)
 .debug_str     0x00000c36        0x0 /Applications/microchip/xc32/v2.15/bin/bin/../../lib/gcc/pic32mx/4.8.3/../../../../pic32mx/lib/libc.a(ungetc.o)
 .debug_str     0x00000c36        0x0 /Applications/microchip/xc32/v2.15/bin/bin/../../lib/gcc/pic32mx/4.8.3/../../../../pic32mx/lib/libc.a(_iob.o)
 .debug_str     0x00000c36        0x0 /Applications/microchip/xc32/v2.15/bin/bin/../../lib/gcc/pic32mx/4.8.3/../../../../pic32mx/lib/libc.a(filbuf.o)
 .debug_str     0x00000c36        0x0 /Applications/microchip/xc32/v2.15/bin/bin/../../lib/gcc/pic32mx/4.8.3/../../../../pic32mx/lib/libc.a(_flsbuf_simple.o)
 .debug_str     0x00000c36        0x0 /Applications/microchip/xc32/v2.15/bin/bin/../../lib/gcc/pic32mx/4.8.3/../../../../pic32mx/lib/libc.a(fflush.o)
 .debug_str     0x00000c36        0x0 /Applications/microchip/xc32/v2.15/bin/bin/../../lib/gcc/pic32mx/4.8.3/../../../../pic32mx/lib/libm.a(w_powf.o)
 .debug_str     0x00000c36        0x0 /Applications/microchip/xc32/v2.15/bin/bin/../../lib/gcc/pic32mx/4.8.3/../../../../pic32mx/lib/libm.a(__strtod.o)
 .debug_str     0x00000c36        0x0 /Applications/microchip/xc32/v2.15/bin/bin/../../lib/gcc/pic32mx/4.8.3/../../../../pic32mx/lib/libm.a(__strtof.o)
 .debug_str     0x00000c36        0x0 /Applications/microchip/xc32/v2.15/bin/bin/../../lib/gcc/pic32mx/4.8.3/../../../../pic32mx/lib/libm.a(s_lib_ver.o)
 .debug_str     0x00000c36        0x0 /Applications/microchip/xc32/v2.15/bin/bin/../../lib/gcc/pic32mx/4.8.3/../../../../pic32mx/lib/libe.a(_fixunsdfdi.o)
 .debug_str     0x00000c36        0x0 /Applications/microchip/xc32/v2.15/bin/bin/../../lib/gcc/pic32mx/4.8.3/../../../../pic32mx/lib/libe.a(_orderdf2.o)
 .debug_str     0x00000c36        0x0 /Applications/microchip/xc32/v2.15/bin/bin/../../lib/gcc/pic32mx/4.8.3/../../../../pic32mx/lib/libe.a(_ldexp.o)
 .debug_str     0x00000c36        0x0 /Applications/microchip/xc32/v2.15/bin/bin/../../lib/gcc/pic32mx/4.8.3/../../../../pic32mx/lib/libe.a(_ldexpf.o)
 .debug_str     0x00000c36        0x0 /Applications/microchip/xc32/v2.15/bin/bin/../../lib/gcc/pic32mx/4.8.3/../../../../pic32mx/lib/libe.a(_fixdfdi.o)
 .debug_str     0x00000c36        0x0 /Applications/microchip/xc32/v2.15/bin/bin/../../lib/gcc/pic32mx/4.8.3/libgcc.a(_lshrdi3.o)
 .debug_str     0x00000c36        0x0 /Applications/microchip/xc32/v2.15/bin/bin/../../lib/gcc/pic32mx/4.8.3/libgcc.a(_ashldi3.o)
 .debug_str     0x00000c36        0x0 /Applications/microchip/xc32/v2.15/bin/bin/../../lib/gcc/pic32mx/4.8.3/libgcc.a(_floatundidf.o)
 .debug_str     0x00000c36        0x0 /Applications/microchip/xc32/v2.15/bin/bin/../../lib/gcc/pic32mx/4.8.3/libgcc.a(_udivdi3.o)
 .debug_str     0x00000c36        0x0 /Applications/microchip/xc32/v2.15/bin/bin/../../lib/gcc/pic32mx/4.8.3/libgcc.a(_umoddi3.o)
 .debug_str     0x00000c36        0x0 /Applications/microchip/xc32/v2.15/bin/bin/../../lib/gcc/pic32mx/4.8.3/libgcc.a(floatunsidf.o)
 .debug_str     0x00000c36        0x0 /Applications/microchip/xc32/v2.15/bin/bin/../../lib/gcc/pic32mx/4.8.3/../../../../pic32mx/lib/libpic32.a(sbrk.o)
 .debug_str     0x00000c36        0x0 /Applications/microchip/xc32/v2.15/bin/bin/../../lib/gcc/pic32mx/4.8.3/../../../../pic32mx/lib/libpic32.a(read.o)
 .debug_str     0x00000c36        0x0 /Applications/microchip/xc32/v2.15/bin/bin/../../lib/gcc/pic32mx/4.8.3/../../../../pic32mx/lib/libpic32.a(write.o)
 .debug_str     0x00000c36        0x0 /Applications/microchip/xc32/v2.15/bin/bin/../../lib/gcc/pic32mx/4.8.3/../../../../pic32mx/lib/libpic32.a(xc32_uart.o)
 .debug_str     0x00000c36        0x0 /Applications/microchip/xc32/v2.15/bin/bin/../../lib/gcc/pic32mx/4.8.3/../../../../pic32mx/lib/libpic32.a(errno.o)
 .debug_str     0x00000c36        0x0 /Applications/microchip/xc32/v2.15/bin/bin/../../lib/gcc/pic32mx/4.8.3/../../../../pic32mx/lib/libpic32.a(isinf.o)
 .debug_str     0x00000c36        0x0 /Applications/microchip/xc32/v2.15/bin/bin/../../lib/gcc/pic32mx/4.8.3/../../../../pic32mx/lib/libpic32.a(_mon_putc.o)
 .debug_str     0x00000c36        0x0 /Applications/microchip/xc32/v2.15/bin/bin/../../lib/gcc/pic32mx/4.8.3/../../../../pic32mx/lib/libe.a(_unorddf2.o)

.debug_loc      0x00000000     0xdfd9
 *(.debug_loc)
 .debug_loc     0x00000000      0x26b build/Board2/production/_ext/1351229741/drv_oc_mapping.o
 .debug_loc     0x0000026b       0x42 build/Board2/production/_ext/1351229741/drv_oc_static.o
 .debug_loc     0x000002ad      0x775 build/Board2/production/_ext/1550245252/drv_tmr_static.o
 .debug_loc     0x00000a22      0x5d2 build/Board2/production/_ext/1550245252/drv_tmr_mapping.o
 .debug_loc     0x00000ff4      0x739 build/Board2/production/_ext/794052624/drv_usart_mapping.o
 .debug_loc     0x0000172d      0x638 build/Board2/production/_ext/794052624/drv_usart_static.o
 .debug_loc     0x00001d65       0x5f build/Board2/production/_ext/794052624/drv_usart_static_byte_model.o
 .debug_loc     0x00001dc4       0x49 build/Board2/production/_ext/697674732/sys_clk_pic32mx.o
 .debug_loc     0x00001e0d       0xf0 build/Board2/production/_ext/733479835/sys_devcon.o
 .debug_loc     0x00001efd       0xda build/Board2/production/_ext/733479835/sys_devcon_pic32mx.o
 .debug_loc     0x00001fd7      0x74e build/Board2/production/_ext/1943101500/sys_ports_static.o
 .debug_loc     0x00002725       0x21 build/Board2/production/_ext/1445490755/system_init.o
 .debug_loc     0x00002746       0xc8 build/Board2/production/_ext/1445490755/system_interrupt.o
 .debug_loc     0x0000280e       0x4a build/Board2/production/_ext/1445490755/rtos_hooks.o
 .debug_loc     0x00002858     0x37b7 build/Board2/production/_ext/334398652/cJSON.o
 .debug_loc     0x0000600f       0xe4 build/Board2/production/_ext/334398652/debug.o
 .debug_loc     0x000060f3      0xd44 build/Board2/production/_ext/334398652/http.o
 .debug_loc     0x00006e37      0x118 build/Board2/production/_ext/334398652/wifi_queue.o
 .debug_loc     0x00006f4f      0x360 build/Board2/production/_ext/334398652/wifi_state.o
 .debug_loc     0x000072af       0x21 build/Board2/production/_ext/334398652/wifi_timer.o
 .debug_loc     0x000072d0       0x5c build/Board2/production/_ext/334398652/game_queue.o
 .debug_loc     0x0000732c      0x1d9 build/Board2/production/_ext/334398652/game_state.o
 .debug_loc     0x00007505       0x42 build/Board2/production/_ext/334398652/game_timer.o
 .debug_loc     0x00007547      0x3e6 build/Board2/production/_ext/1043444669/osal_freertos.o
 .debug_loc     0x0000792d       0x7c build/Board2/production/_ext/249303043/sys_int_pic32.o
 .debug_loc     0x000079a9      0x20d build/Board2/production/_ext/905643201/heap_2.o
 .debug_loc     0x00007bb6       0xf5 build/Board2/production/_ext/331515796/port.o
 .debug_loc     0x00007cab       0x44 build/Board2/production/_ext/1539584926/list.o
 .debug_loc     0x00007cef     0x11c7 build/Board2/production/_ext/1539584926/queue.o
 .debug_loc     0x00008eb6     0x16ba build/Board2/production/_ext/1539584926/tasks.o
 .debug_loc     0x0000a570      0x820 build/Board2/production/_ext/1539584926/timers.o
 .debug_loc     0x0000ad90      0x90a build/Board2/production/_ext/1539584926/event_groups.o
 .debug_loc     0x0000b69a     0x1076 build/Board2/production/_ext/1539584926/stream_buffer.o
 .debug_loc     0x0000c710       0x2c /Applications/microchip/xc32/v2.15/bin/bin/../../lib/gcc/pic32mx/4.8.3/../../../../pic32mx/lib/libpic32.a(default-bootstrap-exception-handler.o)
 .debug_loc     0x0000c73c       0x20 /Applications/microchip/xc32/v2.15/bin/bin/../../lib/gcc/pic32mx/4.8.3/../../../../pic32mx/lib/libm.a(w_powf.o)
 .debug_loc     0x0000c75c       0x20 /Applications/microchip/xc32/v2.15/bin/bin/../../lib/gcc/pic32mx/4.8.3/../../../../pic32mx/lib/libm.a(__strtod.o)
 .debug_loc     0x0000c77c       0x20 /Applications/microchip/xc32/v2.15/bin/bin/../../lib/gcc/pic32mx/4.8.3/../../../../pic32mx/lib/libm.a(__strtof.o)
 .debug_loc     0x0000c79c       0x20 /Applications/microchip/xc32/v2.15/bin/bin/../../lib/gcc/pic32mx/4.8.3/../../../../pic32mx/lib/libe.a(_fixunsdfdi.o)
 .debug_loc     0x0000c7bc       0x20 /Applications/microchip/xc32/v2.15/bin/bin/../../lib/gcc/pic32mx/4.8.3/../../../../pic32mx/lib/libe.a(_ldexp.o)
 .debug_loc     0x0000c7dc       0xbb /Applications/microchip/xc32/v2.15/bin/bin/../../lib/gcc/pic32mx/4.8.3/libgcc.a(_lshrdi3.o)
 .debug_loc     0x0000c897       0x82 /Applications/microchip/xc32/v2.15/bin/bin/../../lib/gcc/pic32mx/4.8.3/libgcc.a(_ashldi3.o)
 .debug_loc     0x0000c919       0x41 /Applications/microchip/xc32/v2.15/bin/bin/../../lib/gcc/pic32mx/4.8.3/libgcc.a(_floatundidf.o)
 .debug_loc     0x0000c95a      0xa6a /Applications/microchip/xc32/v2.15/bin/bin/../../lib/gcc/pic32mx/4.8.3/libgcc.a(_udivdi3.o)
 .debug_loc     0x0000d3c4      0xa3d /Applications/microchip/xc32/v2.15/bin/bin/../../lib/gcc/pic32mx/4.8.3/libgcc.a(_umoddi3.o)
 .debug_loc     0x0000de01       0x80 /Applications/microchip/xc32/v2.15/bin/bin/../../lib/gcc/pic32mx/4.8.3/libgcc.a(floatunsidf.o)
 .debug_loc     0x0000de81       0x60 /Applications/microchip/xc32/v2.15/bin/bin/../../lib/gcc/pic32mx/4.8.3/../../../../pic32mx/lib/libpic32.a(sbrk.o)
 .debug_loc     0x0000dee1       0x20 /Applications/microchip/xc32/v2.15/bin/bin/../../lib/gcc/pic32mx/4.8.3/../../../../pic32mx/lib/libpic32.a(read.o)
 .debug_loc     0x0000df01       0x38 /Applications/microchip/xc32/v2.15/bin/bin/../../lib/gcc/pic32mx/4.8.3/../../../../pic32mx/lib/libpic32.a(write.o)
 .debug_loc     0x0000df39       0x80 /Applications/microchip/xc32/v2.15/bin/bin/../../lib/gcc/pic32mx/4.8.3/../../../../pic32mx/lib/libpic32.a(isinf.o)
 .debug_loc     0x0000dfb9       0x20 /Applications/microchip/xc32/v2.15/bin/bin/../../lib/gcc/pic32mx/4.8.3/../../../../pic32mx/lib/libpic32.a(_mon_putc.o)

.debug_macinfo
 *(.debug_macinfo)

.debug_weaknames
 *(.debug_weaknames)

.debug_funcnames
 *(.debug_funcnames)

.debug_typenames
 *(.debug_typenames)

.debug_varnames
 *(.debug_varnames)

.debug_pubtypes
 *(.debug_pubtypes)

.debug_ranges   0x00000000     0x1a00
 *(.debug_ranges)
 .debug_ranges  0x00000000       0x40 build/Board2/production/_ext/1351229741/drv_oc_mapping.o
 .debug_ranges  0x00000040       0x78 build/Board2/production/_ext/1351229741/drv_oc_static.o
 .debug_ranges  0x000000b8      0x178 build/Board2/production/_ext/1550245252/drv_tmr_static.o
 .debug_ranges  0x00000230       0xd8 build/Board2/production/_ext/1550245252/drv_tmr_mapping.o
 .debug_ranges  0x00000308       0xa0 build/Board2/production/_ext/794052624/drv_usart_mapping.o
 .debug_ranges  0x000003a8       0xa8 build/Board2/production/_ext/794052624/drv_usart_static.o
 .debug_ranges  0x00000450       0x38 build/Board2/production/_ext/794052624/drv_usart_static_byte_model.o
 .debug_ranges  0x00000488       0x40 build/Board2/production/_ext/697674732/sys_clk_pic32mx.o
 .debug_ranges  0x000004c8       0x68 build/Board2/production/_ext/733479835/sys_devcon.o
 .debug_ranges  0x00000530       0x10 build/Board2/production/_ext/733479835/sys_devcon_pic32mx.o
 .debug_ranges  0x00000540      0x138 build/Board2/production/_ext/1943101500/sys_ports_static.o
 .debug_ranges  0x00000678       0x10 build/Board2/production/_ext/1445490755/system_init.o
 .debug_ranges  0x00000688       0x28 build/Board2/production/_ext/1445490755/system_interrupt.o
 .debug_ranges  0x000006b0       0x10 build/Board2/production/_ext/1445490755/system_exceptions.o
 .debug_ranges  0x000006c0       0x28 build/Board2/production/_ext/1445490755/system_tasks.o
 .debug_ranges  0x000006e8       0x50 build/Board2/production/_ext/1445490755/system_interrupt_a.o
 .debug_ranges  0x00000738       0x18 build/Board2/production/_ext/1445490755/rtos_hooks.o
 .debug_ranges  0x00000750       0x18 build/Board2/production/_ext/1360937237/game_app.o
 .debug_ranges  0x00000768       0x18 build/Board2/production/_ext/1360937237/wifi_app.o
 .debug_ranges  0x00000780       0x10 build/Board2/production/_ext/1360937237/main.o
 .debug_ranges  0x00000790      0x4e8 build/Board2/production/_ext/334398652/cJSON.o
 .debug_ranges  0x00000c78       0x30 build/Board2/production/_ext/334398652/debug.o
 .debug_ranges  0x00000ca8       0x68 build/Board2/production/_ext/334398652/http.o
 .debug_ranges  0x00000d10       0x50 build/Board2/production/_ext/334398652/wifi_queue.o
 .debug_ranges  0x00000d60       0x28 build/Board2/production/_ext/334398652/wifi_state.o
 .debug_ranges  0x00000d88       0x18 build/Board2/production/_ext/334398652/wifi_timer.o
 .debug_ranges  0x00000da0       0x28 build/Board2/production/_ext/334398652/game_queue.o
 .debug_ranges  0x00000dc8       0x10 build/Board2/production/_ext/334398652/game_state.o
 .debug_ranges  0x00000dd8       0x40 build/Board2/production/_ext/334398652/game_timer.o
 .debug_ranges  0x00000e18       0x78 build/Board2/production/_ext/1043444669/osal_freertos.o
 .debug_ranges  0x00000e90       0x50 build/Board2/production/_ext/249303043/sys_int_pic32.o
 .debug_ranges  0x00000ee0       0x58 build/Board2/production/_ext/905643201/heap_2.o
 .debug_ranges  0x00000f38       0x48 build/Board2/production/_ext/331515796/port.o
 .debug_ranges  0x00000f80       0x30 build/Board2/production/_ext/1539584926/list.o
 .debug_ranges  0x00000fb0      0x150 build/Board2/production/_ext/1539584926/queue.o
 .debug_ranges  0x00001100      0x1e8 build/Board2/production/_ext/1539584926/tasks.o
 .debug_ranges  0x000012e8      0x120 build/Board2/production/_ext/1539584926/timers.o
 .debug_ranges  0x00001408       0x98 build/Board2/production/_ext/1539584926/event_groups.o
 .debug_ranges  0x000014a0       0xb8 build/Board2/production/_ext/1539584926/stream_buffer.o
 .debug_ranges  0x00001558       0x10 /Applications/microchip/xc32/v2.15/bin/bin/../../lib/gcc/pic32mx/4.8.3/../../../../pic32mx/lib/libpic32.a(default-bootstrap-exception-handler.o)
 .debug_ranges  0x00001568       0x10 /Applications/microchip/xc32/v2.15/bin/bin/../../lib/gcc/pic32mx/4.8.3/../../../../pic32mx/lib/libpic32.a(default-on-reset.o)
 .debug_ranges  0x00001578       0x10 /Applications/microchip/xc32/v2.15/bin/bin/../../lib/gcc/pic32mx/4.8.3/../../../../pic32mx/lib/libpic32.a(default-on-bootstrap.o)
 .debug_ranges  0x00001588       0x10 /Applications/microchip/xc32/v2.15/bin/bin/../../lib/gcc/pic32mx/4.8.3/../../../../pic32mx/lib/libpic32.a(defaultinterrupt.o)
 .debug_ranges  0x00001598       0x90 /Applications/microchip/xc32/v2.15/bin/bin/../../lib/gcc/pic32mx/4.8.3/../../../../pic32mx/lib/libc.a(ctypef.o)
 .debug_ranges  0x00001628       0x20 /Applications/microchip/xc32/v2.15/bin/bin/../../lib/gcc/pic32mx/4.8.3/../../../../pic32mx/lib/libc.a(malloc.o)
 .debug_ranges  0x00001648       0x10 /Applications/microchip/xc32/v2.15/bin/bin/../../lib/gcc/pic32mx/4.8.3/../../../../pic32mx/lib/libc.a(strcat.o)
 .debug_ranges  0x00001658       0x10 /Applications/microchip/xc32/v2.15/bin/bin/../../lib/gcc/pic32mx/4.8.3/../../../../pic32mx/lib/libc.a(strncmp.o)
 .debug_ranges  0x00001668       0x18 /Applications/microchip/xc32/v2.15/bin/bin/../../lib/gcc/pic32mx/4.8.3/../../../../pic32mx/lib/libc.a(strtod.o)
 .debug_ranges  0x00001680       0x10 /Applications/microchip/xc32/v2.15/bin/bin/../../lib/gcc/pic32mx/4.8.3/../../../../pic32mx/lib/libc.a(sprintf_cdgGnopuxX.eo)
 .debug_ranges  0x00001690       0x10 /Applications/microchip/xc32/v2.15/bin/bin/../../lib/gcc/pic32mx/4.8.3/../../../../pic32mx/lib/libc.a(sscanf_gG.eo)
 .debug_ranges  0x000016a0       0x20 /Applications/microchip/xc32/v2.15/bin/bin/../../lib/gcc/pic32mx/4.8.3/../../../../pic32mx/lib/libc.a(doprnt_cdgGnopuxX.eo)
 .debug_ranges  0x000016c0       0x20 /Applications/microchip/xc32/v2.15/bin/bin/../../lib/gcc/pic32mx/4.8.3/../../../../pic32mx/lib/libc.a(doscan_gG.eo)
 .debug_ranges  0x000016e0       0x10 /Applications/microchip/xc32/v2.15/bin/bin/../../lib/gcc/pic32mx/4.8.3/../../../../pic32mx/lib/libc.a(fgetc.o)
 .debug_ranges  0x000016f0       0x10 /Applications/microchip/xc32/v2.15/bin/bin/../../lib/gcc/pic32mx/4.8.3/../../../../pic32mx/lib/libc.a(_fputc_simple.o)
 .debug_ranges  0x00001700       0x10 /Applications/microchip/xc32/v2.15/bin/bin/../../lib/gcc/pic32mx/4.8.3/../../../../pic32mx/lib/libc.a(atoi.o)
 .debug_ranges  0x00001710       0x18 /Applications/microchip/xc32/v2.15/bin/bin/../../lib/gcc/pic32mx/4.8.3/../../../../pic32mx/lib/libc.a(strtof.o)
 .debug_ranges  0x00001728       0x10 /Applications/microchip/xc32/v2.15/bin/bin/../../lib/gcc/pic32mx/4.8.3/../../../../pic32mx/lib/libc.a(ungetc.o)
 .debug_ranges  0x00001738       0x10 /Applications/microchip/xc32/v2.15/bin/bin/../../lib/gcc/pic32mx/4.8.3/../../../../pic32mx/lib/libc.a(filbuf.o)
 .debug_ranges  0x00001748       0x10 /Applications/microchip/xc32/v2.15/bin/bin/../../lib/gcc/pic32mx/4.8.3/../../../../pic32mx/lib/libc.a(_flsbuf_simple.o)
 .debug_ranges  0x00001758       0x10 /Applications/microchip/xc32/v2.15/bin/bin/../../lib/gcc/pic32mx/4.8.3/../../../../pic32mx/lib/libc.a(fflush.o)
 .debug_ranges  0x00001768       0x10 /Applications/microchip/xc32/v2.15/bin/bin/../../lib/gcc/pic32mx/4.8.3/../../../../pic32mx/lib/libm.a(w_powf.o)
 .debug_ranges  0x00001778       0x10 /Applications/microchip/xc32/v2.15/bin/bin/../../lib/gcc/pic32mx/4.8.3/../../../../pic32mx/lib/libm.a(__strtod.o)
 .debug_ranges  0x00001788       0x10 /Applications/microchip/xc32/v2.15/bin/bin/../../lib/gcc/pic32mx/4.8.3/../../../../pic32mx/lib/libm.a(__strtof.o)
 .debug_ranges  0x00001798       0x10 /Applications/microchip/xc32/v2.15/bin/bin/../../lib/gcc/pic32mx/4.8.3/../../../../pic32mx/lib/libe.a(_fixunsdfdi.o)
 .debug_ranges  0x000017a8       0x10 /Applications/microchip/xc32/v2.15/bin/bin/../../lib/gcc/pic32mx/4.8.3/../../../../pic32mx/lib/libe.a(_orderdf2.o)
 .debug_ranges  0x000017b8       0x10 /Applications/microchip/xc32/v2.15/bin/bin/../../lib/gcc/pic32mx/4.8.3/../../../../pic32mx/lib/libe.a(_ldexp.o)
 .debug_ranges  0x000017c8       0x10 /Applications/microchip/xc32/v2.15/bin/bin/../../lib/gcc/pic32mx/4.8.3/../../../../pic32mx/lib/libe.a(_ldexpf.o)
 .debug_ranges  0x000017d8       0x10 /Applications/microchip/xc32/v2.15/bin/bin/../../lib/gcc/pic32mx/4.8.3/../../../../pic32mx/lib/libe.a(_fixdfdi.o)
 .debug_ranges  0x000017e8       0x98 /Applications/microchip/xc32/v2.15/bin/bin/../../lib/gcc/pic32mx/4.8.3/libgcc.a(_udivdi3.o)
 .debug_ranges  0x00001880       0xd8 /Applications/microchip/xc32/v2.15/bin/bin/../../lib/gcc/pic32mx/4.8.3/libgcc.a(_umoddi3.o)
 .debug_ranges  0x00001958       0x30 /Applications/microchip/xc32/v2.15/bin/bin/../../lib/gcc/pic32mx/4.8.3/../../../../pic32mx/lib/libpic32.a(sbrk.o)
 .debug_ranges  0x00001988       0x10 /Applications/microchip/xc32/v2.15/bin/bin/../../lib/gcc/pic32mx/4.8.3/../../../../pic32mx/lib/libpic32.a(read.o)
 .debug_ranges  0x00001998       0x10 /Applications/microchip/xc32/v2.15/bin/bin/../../lib/gcc/pic32mx/4.8.3/../../../../pic32mx/lib/libpic32.a(write.o)
 .debug_ranges  0x000019a8       0x38 /Applications/microchip/xc32/v2.15/bin/bin/../../lib/gcc/pic32mx/4.8.3/../../../../pic32mx/lib/libpic32.a(isinf.o)
 .debug_ranges  0x000019e0       0x10 /Applications/microchip/xc32/v2.15/bin/bin/../../lib/gcc/pic32mx/4.8.3/../../../../pic32mx/lib/libpic32.a(_mon_putc.o)
 .debug_ranges  0x000019f0       0x10 /Applications/microchip/xc32/v2.15/bin/bin/../../lib/gcc/pic32mx/4.8.3/../../../../pic32mx/lib/libe.a(_unorddf2.o)

.gnu.attributes
                0x00000000       0x10
 *(.gnu.attributes)
 .gnu.attributes
                0x00000000       0x10 build/Board2/production/_ext/1351229741/drv_oc_mapping.o
 .gnu.attributes
                0x00000010       0x10 build/Board2/production/_ext/1351229741/drv_oc_static.o
 .gnu.attributes
                0x00000020       0x10 build/Board2/production/_ext/1550245252/drv_tmr_static.o
 .gnu.attributes
                0x00000030       0x10 build/Board2/production/_ext/1550245252/drv_tmr_mapping.o
 .gnu.attributes
                0x00000040       0x10 build/Board2/production/_ext/794052624/drv_usart_mapping.o
 .gnu.attributes
                0x00000050       0x10 build/Board2/production/_ext/794052624/drv_usart_static.o
 .gnu.attributes
                0x00000060       0x10 build/Board2/production/_ext/794052624/drv_usart_static_byte_model.o
 .gnu.attributes
                0x00000070       0x10 build/Board2/production/_ext/697674732/sys_clk_pic32mx.o
 .gnu.attributes
                0x00000080       0x10 build/Board2/production/_ext/733479835/sys_devcon.o
 .gnu.attributes
                0x00000090       0x10 build/Board2/production/_ext/733479835/sys_devcon_pic32mx.o
 .gnu.attributes
                0x000000a0       0x10 build/Board2/production/_ext/1943101500/sys_ports_static.o
 .gnu.attributes
                0x000000b0       0x10 build/Board2/production/_ext/1445490755/system_init.o
 .gnu.attributes
                0x000000c0       0x10 build/Board2/production/_ext/1445490755/system_interrupt.o
 .gnu.attributes
                0x000000d0       0x10 build/Board2/production/_ext/1445490755/system_exceptions.o
 .gnu.attributes
                0x000000e0       0x10 build/Board2/production/_ext/1445490755/system_tasks.o
 .gnu.attributes
                0x000000f0       0x10 build/Board2/production/_ext/1445490755/rtos_hooks.o
 .gnu.attributes
                0x00000100       0x10 build/Board2/production/_ext/1360937237/game_app.o
 .gnu.attributes
                0x00000110       0x10 build/Board2/production/_ext/1360937237/wifi_app.o
 .gnu.attributes
                0x00000120       0x10 build/Board2/production/_ext/1360937237/main.o
 .gnu.attributes
                0x00000130       0x10 build/Board2/production/_ext/334398652/cJSON.o
 .gnu.attributes
                0x00000140       0x10 build/Board2/production/_ext/334398652/debug.o
 .gnu.attributes
                0x00000150       0x10 build/Board2/production/_ext/334398652/http.o
 .gnu.attributes
                0x00000160       0x10 build/Board2/production/_ext/334398652/wifi_queue.o
 .gnu.attributes
                0x00000170       0x10 build/Board2/production/_ext/334398652/wifi_state.o
 .gnu.attributes
                0x00000180       0x10 build/Board2/production/_ext/334398652/wifi_timer.o
 .gnu.attributes
                0x00000190       0x10 build/Board2/production/_ext/334398652/game_queue.o
 .gnu.attributes
                0x000001a0       0x10 build/Board2/production/_ext/334398652/game_state.o
 .gnu.attributes
                0x000001b0       0x10 build/Board2/production/_ext/334398652/game_timer.o
 .gnu.attributes
                0x000001c0       0x10 build/Board2/production/_ext/1043444669/osal_freertos.o
 .gnu.attributes
                0x000001d0       0x10 build/Board2/production/_ext/249303043/sys_int_pic32.o
 .gnu.attributes
                0x000001e0       0x10 build/Board2/production/_ext/905643201/heap_2.o
 .gnu.attributes
                0x000001f0       0x10 build/Board2/production/_ext/331515796/port.o
 .gnu.attributes
                0x00000200       0x10 build/Board2/production/_ext/1539584926/croutine.o
 .gnu.attributes
                0x00000210       0x10 build/Board2/production/_ext/1539584926/list.o
 .gnu.attributes
                0x00000220       0x10 build/Board2/production/_ext/1539584926/queue.o
 .gnu.attributes
                0x00000230       0x10 build/Board2/production/_ext/1539584926/tasks.o
 .gnu.attributes
                0x00000240       0x10 build/Board2/production/_ext/1539584926/timers.o
 .gnu.attributes
                0x00000250       0x10 build/Board2/production/_ext/1539584926/event_groups.o
 .gnu.attributes
                0x00000260       0x10 build/Board2/production/_ext/1539584926/stream_buffer.o
 .gnu.attributes
                0x00000270       0x10 /Applications/microchip/xc32/v2.15/bin/bin/../../lib/gcc/pic32mx/4.8.3/../../../../pic32mx/lib/libpic32.a(default-bootstrap-exception-handler.o)
 .gnu.attributes
                0x00000280       0x10 /Applications/microchip/xc32/v2.15/bin/bin/../../lib/gcc/pic32mx/4.8.3/../../../../pic32mx/lib/libpic32.a(default-on-reset.o)
 .gnu.attributes
                0x00000290       0x10 /Applications/microchip/xc32/v2.15/bin/bin/../../lib/gcc/pic32mx/4.8.3/../../../../pic32mx/lib/libpic32.a(default-on-bootstrap.o)
 .gnu.attributes
                0x000002a0       0x10 /Applications/microchip/xc32/v2.15/bin/bin/../../lib/gcc/pic32mx/4.8.3/../../../../pic32mx/lib/libpic32.a(defaultinterrupt.o)
 .gnu.attributes
                0x000002b0       0x10 /Applications/microchip/xc32/v2.15/bin/bin/../../lib/gcc/pic32mx/4.8.3/../../../../pic32mx/lib/libc.a(ctypef.o)
 .gnu.attributes
                0x000002c0       0x10 /Applications/microchip/xc32/v2.15/bin/bin/../../lib/gcc/pic32mx/4.8.3/../../../../pic32mx/lib/libc.a(malloc.o)
 .gnu.attributes
                0x000002d0       0x10 /Applications/microchip/xc32/v2.15/bin/bin/../../lib/gcc/pic32mx/4.8.3/../../../../pic32mx/lib/libc.a(strcat.o)
 .gnu.attributes
                0x000002e0       0x10 /Applications/microchip/xc32/v2.15/bin/bin/../../lib/gcc/pic32mx/4.8.3/../../../../pic32mx/lib/libc.a(strncmp.o)
 .gnu.attributes
                0x000002f0       0x10 /Applications/microchip/xc32/v2.15/bin/bin/../../lib/gcc/pic32mx/4.8.3/../../../../pic32mx/lib/libc.a(strtod.o)
 .gnu.attributes
                0x00000300       0x10 /Applications/microchip/xc32/v2.15/bin/bin/../../lib/gcc/pic32mx/4.8.3/../../../../pic32mx/lib/libc.a(sprintf_cdgGnopuxX.eo)
 .gnu.attributes
                0x00000310       0x10 /Applications/microchip/xc32/v2.15/bin/bin/../../lib/gcc/pic32mx/4.8.3/../../../../pic32mx/lib/libc.a(sscanf_gG.eo)
 .gnu.attributes
                0x00000320       0x10 /Applications/microchip/xc32/v2.15/bin/bin/../../lib/gcc/pic32mx/4.8.3/../../../../pic32mx/lib/libc.a(ctype.o)
 .gnu.attributes
                0x00000330       0x10 /Applications/microchip/xc32/v2.15/bin/bin/../../lib/gcc/pic32mx/4.8.3/../../../../pic32mx/lib/libc.a(doprnt_cdgGnopuxX.eo)
 .gnu.attributes
                0x00000340       0x10 /Applications/microchip/xc32/v2.15/bin/bin/../../lib/gcc/pic32mx/4.8.3/../../../../pic32mx/lib/libc.a(doscan_gG.eo)
 .gnu.attributes
                0x00000350       0x10 /Applications/microchip/xc32/v2.15/bin/bin/../../lib/gcc/pic32mx/4.8.3/../../../../pic32mx/lib/libc.a(fgetc.o)
 .gnu.attributes
                0x00000360       0x10 /Applications/microchip/xc32/v2.15/bin/bin/../../lib/gcc/pic32mx/4.8.3/../../../../pic32mx/lib/libc.a(_fputc_simple.o)
 .gnu.attributes
                0x00000370       0x10 /Applications/microchip/xc32/v2.15/bin/bin/../../lib/gcc/pic32mx/4.8.3/../../../../pic32mx/lib/libc.a(atoi.o)
 .gnu.attributes
                0x00000380       0x10 /Applications/microchip/xc32/v2.15/bin/bin/../../lib/gcc/pic32mx/4.8.3/../../../../pic32mx/lib/libc.a(ldpowers.o)
 .gnu.attributes
                0x00000390       0x10 /Applications/microchip/xc32/v2.15/bin/bin/../../lib/gcc/pic32mx/4.8.3/../../../../pic32mx/lib/libc.a(strtof.o)
 .gnu.attributes
                0x000003a0       0x10 /Applications/microchip/xc32/v2.15/bin/bin/../../lib/gcc/pic32mx/4.8.3/../../../../pic32mx/lib/libc.a(ungetc.o)
 .gnu.attributes
                0x000003b0       0x10 /Applications/microchip/xc32/v2.15/bin/bin/../../lib/gcc/pic32mx/4.8.3/../../../../pic32mx/lib/libc.a(_iob.o)
 .gnu.attributes
                0x000003c0       0x10 /Applications/microchip/xc32/v2.15/bin/bin/../../lib/gcc/pic32mx/4.8.3/../../../../pic32mx/lib/libc.a(filbuf.o)
 .gnu.attributes
                0x000003d0       0x10 /Applications/microchip/xc32/v2.15/bin/bin/../../lib/gcc/pic32mx/4.8.3/../../../../pic32mx/lib/libc.a(_flsbuf_simple.o)
 .gnu.attributes
                0x000003e0       0x10 /Applications/microchip/xc32/v2.15/bin/bin/../../lib/gcc/pic32mx/4.8.3/../../../../pic32mx/lib/libc.a(fflush.o)
 .gnu.attributes
                0x000003f0       0x10 /Applications/microchip/xc32/v2.15/bin/bin/../../lib/gcc/pic32mx/4.8.3/../../../../pic32mx/lib/libm.a(w_powf.o)
 .gnu.attributes
                0x00000400       0x10 /Applications/microchip/xc32/v2.15/bin/bin/../../lib/gcc/pic32mx/4.8.3/../../../../pic32mx/lib/libm.a(__strtod.o)
 .gnu.attributes
                0x00000410       0x10 /Applications/microchip/xc32/v2.15/bin/bin/../../lib/gcc/pic32mx/4.8.3/../../../../pic32mx/lib/libm.a(__strtof.o)
 .gnu.attributes
                0x00000420       0x10 /Applications/microchip/xc32/v2.15/bin/bin/../../lib/gcc/pic32mx/4.8.3/../../../../pic32mx/lib/libm.a(s_lib_ver.o)
 .gnu.attributes
                0x00000430       0x10 /Applications/microchip/xc32/v2.15/bin/bin/../../lib/gcc/pic32mx/4.8.3/../../../../pic32mx/lib/libe.a(_fixunsdfdi.o)
 .gnu.attributes
                0x00000440       0x10 /Applications/microchip/xc32/v2.15/bin/bin/../../lib/gcc/pic32mx/4.8.3/../../../../pic32mx/lib/libe.a(_orderdf2.o)
 .gnu.attributes
                0x00000450       0x10 /Applications/microchip/xc32/v2.15/bin/bin/../../lib/gcc/pic32mx/4.8.3/../../../../pic32mx/lib/libe.a(_ldexp.o)
 .gnu.attributes
                0x00000460       0x10 /Applications/microchip/xc32/v2.15/bin/bin/../../lib/gcc/pic32mx/4.8.3/../../../../pic32mx/lib/libe.a(_ldexpf.o)
 .gnu.attributes
                0x00000470       0x10 /Applications/microchip/xc32/v2.15/bin/bin/../../lib/gcc/pic32mx/4.8.3/../../../../pic32mx/lib/libe.a(_fixdfdi.o)
 .gnu.attributes
                0x00000480       0x10 /Applications/microchip/xc32/v2.15/bin/bin/../../lib/gcc/pic32mx/4.8.3/libgcc.a(_lshrdi3.o)
 .gnu.attributes
                0x00000490       0x10 /Applications/microchip/xc32/v2.15/bin/bin/../../lib/gcc/pic32mx/4.8.3/libgcc.a(_ashldi3.o)
 .gnu.attributes
                0x000004a0       0x10 /Applications/microchip/xc32/v2.15/bin/bin/../../lib/gcc/pic32mx/4.8.3/libgcc.a(_floatundidf.o)
 .gnu.attributes
                0x000004b0       0x10 /Applications/microchip/xc32/v2.15/bin/bin/../../lib/gcc/pic32mx/4.8.3/libgcc.a(_udivdi3.o)
 .gnu.attributes
                0x000004c0       0x10 /Applications/microchip/xc32/v2.15/bin/bin/../../lib/gcc/pic32mx/4.8.3/libgcc.a(_umoddi3.o)
 .gnu.attributes
                0x000004d0       0x10 /Applications/microchip/xc32/v2.15/bin/bin/../../lib/gcc/pic32mx/4.8.3/libgcc.a(floatunsidf.o)
 .gnu.attributes
                0x000004e0       0x10 /Applications/microchip/xc32/v2.15/bin/bin/../../lib/gcc/pic32mx/4.8.3/../../../../pic32mx/lib/libpic32.a(sbrk.o)
 .gnu.attributes
                0x000004f0       0x10 /Applications/microchip/xc32/v2.15/bin/bin/../../lib/gcc/pic32mx/4.8.3/../../../../pic32mx/lib/libpic32.a(read.o)
 .gnu.attributes
                0x00000500       0x10 /Applications/microchip/xc32/v2.15/bin/bin/../../lib/gcc/pic32mx/4.8.3/../../../../pic32mx/lib/libpic32.a(write.o)
 .gnu.attributes
                0x00000510       0x10 /Applications/microchip/xc32/v2.15/bin/bin/../../lib/gcc/pic32mx/4.8.3/../../../../pic32mx/lib/libpic32.a(xc32_uart.o)
 .gnu.attributes
                0x00000520       0x10 /Applications/microchip/xc32/v2.15/bin/bin/../../lib/gcc/pic32mx/4.8.3/../../../../pic32mx/lib/libpic32.a(errno.o)
 .gnu.attributes
                0x00000530       0x10 /Applications/microchip/xc32/v2.15/bin/bin/../../lib/gcc/pic32mx/4.8.3/../../../../pic32mx/lib/libpic32.a(isinf.o)
 .gnu.attributes
                0x00000540       0x10 /Applications/microchip/xc32/v2.15/bin/bin/../../lib/gcc/pic32mx/4.8.3/../../../../pic32mx/lib/libpic32.a(_mon_putc.o)
 .gnu.attributes
                0x00000550       0x10 /Applications/microchip/xc32/v2.15/bin/bin/../../lib/gcc/pic32mx/4.8.3/../../../../pic32mx/lib/libe.a(_unorddf2.o)
LOAD /Applications/microchip/xc32/v2.15/bin/bin/../../lib/gcc/pic32mx/4.8.3/libgcc.a
START GROUP
LOAD /Applications/microchip/xc32/v2.15/bin/bin/../../lib/gcc/pic32mx/4.8.3/../../../../pic32mx/lib/libpic32.a
LOAD /Applications/microchip/xc32/v2.15/bin/bin/../../lib/gcc/pic32mx/4.8.3/../../../../pic32mx/lib/libdebug.a
LOAD /Applications/microchip/xc32/v2.15/bin/bin/../../lib/gcc/pic32mx/4.8.3/../../../../pic32mx/lib/libpic32.a
LOAD /Applications/microchip/xc32/v2.15/bin/bin/../../lib/gcc/pic32mx/4.8.3/../../../../pic32mx/lib/libc.a
LOAD /Applications/microchip/xc32/v2.15/bin/bin/../../lib/gcc/pic32mx/4.8.3/../../../../pic32mx/lib/libc.a
LOAD /Applications/microchip/xc32/v2.15/bin/bin/../../lib/gcc/pic32mx/4.8.3/../../../../pic32mx/lib/libm.a
LOAD /Applications/microchip/xc32/v2.15/bin/bin/../../lib/gcc/pic32mx/4.8.3/../../../../pic32mx/lib/libe.a
LOAD /Applications/microchip/xc32/v2.15/bin/bin/../../lib/gcc/pic32mx/4.8.3/../../../../pic32mx/lib/libdsp.a
LOAD /Applications/microchip/xc32/v2.15/bin/bin/../../lib/gcc/pic32mx/4.8.3/libgcc.a
LOAD /Applications/microchip/xc32/v2.15/bin/bin/../../lib/gcc/pic32mx/4.8.3/../../../../pic32mx/lib/libpic32.a
END GROUP
LOAD /Applications/microchip/xc32/v2.15/bin/bin/../../lib/gcc/pic32mx/4.8.3/libgcc.a
OUTPUT(dist/Board2/production/Board2.X.production.elf elf32-tradlittlemips)
LOAD stack
LOAD data_init

.reginfo        0x00000000       0x18
 .reginfo       0x00000000       0x18 /Applications/microchip/xc32/v2.15/bin/bin/../../lib/gcc/pic32mx/4.8.3/../../../../pic32mx/lib/debug-exception-return.o

.stack          0xa0014dc0      0x400
 .stack         0xa0014dc0      0x400 stack

.bss            0xa00000f4    0x14000
 .bss           0xa00000f4    0x14000 build/Board2/production/_ext/905643201/heap_2.o

.bss            0xa00140f8      0x948
 .bss           0xa00140f8      0x640 build/Board2/production/_ext/331515796/port.o
                0xa00140f8                xISRStack
 .bss           0xa0014738      0x308 build/Board2/production/_ext/334398652/wifi_state.o

.bss            0xa0014a40      0x194
 .bss           0xa0014a40       0xcc build/Board2/production/_ext/334398652/http.o
 .bss           0xa0014b0c       0xc8 build/Board2/production/_ext/1539584926/tasks.o

.data           0xa0014bd4      0x130
 .data          0xa0014bd4       0xa4 /Applications/microchip/xc32/v2.15/bin/bin/../../lib/gcc/pic32mx/4.8.3/../../../../pic32mx/lib/libc.a(_iob.o)
                0xa0014bd4                _Files
                0xa0014bd8                _iob
 .data          0xa0014c78       0x8c /Applications/microchip/xc32/v2.15/bin/bin/../../lib/gcc/pic32mx/4.8.3/../../../../pic32mx/lib/libm.a(fpexlog.o)

.bss            0xa0014d04       0x6c
 .bss           0xa0014d04       0x44 /Applications/microchip/xc32/v2.15/bin/bin/../../lib/gcc/pic32mx/4.8.3/../../../../pic32mx/lib/libc.a(_iob.o)
                0xa0014d04                _sobuf
                0xa0014d24                _sibuf
                0xa0014d44                _outdone
 .bss           0xa0014d48       0x28 build/Board2/production/_ext/1539584926/timers.o

.data           0xa0014d70       0x28
 .data          0xa0014d70       0x1c /Applications/microchip/xc32/v2.15/bin/bin/../../lib/gcc/pic32mx/4.8.3/../../../../pic32mx/lib/libm.a(fpexp32.o)
 .data          0xa0014d8c        0xc build/Board2/production/_ext/334398652/cJSON.o

.bss            0xa00140f4        0x4
 .bss           0xa00140f4        0x4 /Applications/microchip/xc32/v2.15/bin/bin/../../lib/gcc/pic32mx/4.8.3/../../../../pic32mx/lib/libc.a(doscan_gG.eo)

.data.math_errhandling_flag
                0xa0014d98        0x4
 .data.math_errhandling_flag
                0xa0014d98        0x4 /Applications/microchip/xc32/v2.15/bin/bin/../../lib/gcc/pic32mx/4.8.3/../../../../pic32mx/lib/libm.a(s_lib_ver.o)
                0xa0014d98                math_errhandling

.bss.errno      0xa0014d9c        0x4
 .bss.errno     0xa0014d9c        0x4 /Applications/microchip/xc32/v2.15/bin/bin/../../lib/gcc/pic32mx/4.8.3/../../../../pic32mx/lib/libpic32.a(errno.o)
                0xa0014d9c                errno

._debug_exception
                0xbfc00480       0x2c
 ._debug_exception
                0xbfc00480       0x2c /Applications/microchip/xc32/v2.15/bin/bin/../../lib/gcc/pic32mx/4.8.3/../../../../pic32mx/lib/debug-exception-return.o
                0xbfc00480                __DbgExecReturn

.text._vfprintf_cdgGnopuxX
                0x9d000000     0x1c44
 .text._vfprintf_cdgGnopuxX
                0x9d000000     0x1c44 /Applications/microchip/xc32/v2.15/bin/bin/../../lib/gcc/pic32mx/4.8.3/../../../../pic32mx/lib/libc.a(doprnt_cdgGnopuxX.eo)
                0x9d000000                _vfprintf_cdnopuxX
                0x9d000000                _vfprintf_cdgGnopuxX

.text._vfscanf_gG
                0x9d001c44      0xb98
 .text._vfscanf_gG
                0x9d001c44      0xb98 /Applications/microchip/xc32/v2.15/bin/bin/../../lib/gcc/pic32mx/4.8.3/../../../../pic32mx/lib/libc.a(doscan_gG.eo)
                0x9d001c44                _vfscanf_gG

.text.parse_value
                0x9d0027dc      0x740
 .text.parse_value
                0x9d0027dc      0x740 build/Board2/production/_ext/334398652/cJSON.o

.text.print_value
                0x9d002f1c      0x67c
 .text.print_value
                0x9d002f1c      0x67c build/Board2/production/_ext/334398652/cJSON.o

.text.parse_string
                0x9d003598      0x530
 .text.parse_string
                0x9d003598      0x530 build/Board2/production/_ext/334398652/cJSON.o

.text.dp32mul   0x9d003ac8      0x4b8
 .text.dp32mul  0x9d003ac8      0x4b8 /Applications/microchip/xc32/v2.15/bin/bin/../../lib/gcc/pic32mx/4.8.3/../../../../pic32mx/lib/libm.a(dp32div.o)
                0x9d003ac8                __divdf3
                0x9d003ac8                dpdiv

.text           0x9d003f80      0x8bc
 .text          0x9d003f80      0x464 /Applications/microchip/xc32/v2.15/bin/bin/../../lib/gcc/pic32mx/4.8.3/libgcc.a(_umoddi3.o)
                0x9d003f80                __umoddi3
 .text          0x9d0043e4      0x458 /Applications/microchip/xc32/v2.15/bin/bin/../../lib/gcc/pic32mx/4.8.3/libgcc.a(_udivdi3.o)
                0x9d0043e4                __udivdi3

.text           0x9d00483c      0x454
 .text          0x9d00483c      0x454 build/Board2/production/_ext/331515796/port_asm.o
                0x9d00483c                vPortTickInterruptHandler
                0x9d0049e8                vPortStartFirstTask
                0x9d004ab0                vPortYieldISR

.text.dp32subadd
                0x9d004c90      0x430
 .text.dp32subadd
                0x9d004c90      0x430 /Applications/microchip/xc32/v2.15/bin/bin/../../lib/gcc/pic32mx/4.8.3/../../../../pic32mx/lib/libm.a(dp32subadd.o)
                0x9d004c90                dpsub
                0x9d004c90                __subdf3
                0x9d004c98                dpadd
                0x9d004c98                __adddf3

.text.libm      0x9d0050c0      0x408
 .text.libm     0x9d0050c0      0x408 /Applications/microchip/xc32/v2.15/bin/bin/../../lib/gcc/pic32mx/4.8.3/../../../../pic32mx/lib/libm.a(fppow32.o)
                0x9d0050c0                fppow
                0x9d0050c0                __mchp_powf

.text.__strtod  0x9d0054c8      0x3d0
 .text.__strtod
                0x9d0054c8      0x3d0 /Applications/microchip/xc32/v2.15/bin/bin/../../lib/gcc/pic32mx/4.8.3/../../../../pic32mx/lib/libm.a(__strtod.o)
                0x9d0054c8                __strtod

.text.GameStateMachine
                0x9d005898      0x358
 .text.GameStateMachine
                0x9d005898      0x358 build/Board2/production/_ext/334398652/game_state.o
                0x9d005898                GameStateMachine

.text.__strtof  0x9d005bf0      0x358
 .text.__strtof
                0x9d005bf0      0x358 /Applications/microchip/xc32/v2.15/bin/bin/../../lib/gcc/pic32mx/4.8.3/../../../../pic32mx/lib/libm.a(__strtof.o)
                0x9d005bf0                __strtof

.text.dp32mul   0x9d005f48      0x32c
 .text.dp32mul  0x9d005f48      0x32c /Applications/microchip/xc32/v2.15/bin/bin/../../lib/gcc/pic32mx/4.8.3/../../../../pic32mx/lib/libm.a(dp32mul.o)
                0x9d005f48                dpmul
                0x9d005f48                __muldf3

.text.xTaskCreate
                0x9d006274      0x2c8
 .text.xTaskCreate
                0x9d006274      0x2c8 build/Board2/production/_ext/1539584926/tasks.o
                0x9d006274                xTaskCreate

.dinit          0x9d00653c      0x2c0
 .dinit         0x9d00653c      0x2c0 data_init

.text.libm      0x9d0067fc      0x2b4
 .text.libm     0x9d0067fc      0x2b4 /Applications/microchip/xc32/v2.15/bin/bin/../../lib/gcc/pic32mx/4.8.3/../../../../pic32mx/lib/libm.a(fpexlog.o)
                0x9d0067fc                fpexlog

.text.print_string_ptr
                0x9d006ab0      0x2a8
 .text.print_string_ptr
                0x9d006ab0      0x2a8 build/Board2/production/_ext/334398652/cJSON.o

.text.fpsubadd  0x9d006d58      0x278
 .text.fpsubadd
                0x9d006d58      0x278 /Applications/microchip/xc32/v2.15/bin/bin/../../lib/gcc/pic32mx/4.8.3/../../../../pic32mx/lib/libm.a(fp32subadd.o)
                0x9d006d58                fpsub
                0x9d006d58                __subsf3
                0x9d006d60                fpadd
                0x9d006d60                __addsf3

.text.prvTimerTask
                0x9d006fd0      0x270
 .text.prvTimerTask
                0x9d006fd0      0x270 build/Board2/production/_ext/1539584926/timers.o

.text.scale     0x9d007240      0x23c
 .text.scale    0x9d007240      0x23c /Applications/microchip/xc32/v2.15/bin/bin/../../lib/gcc/pic32mx/4.8.3/../../../../pic32mx/lib/libc.a(doprnt_cdgGnopuxX.eo)

.text.fp32div   0x9d00747c      0x230
 .text.fp32div  0x9d00747c      0x230 /Applications/microchip/xc32/v2.15/bin/bin/../../lib/gcc/pic32mx/4.8.3/../../../../pic32mx/lib/libm.a(fp32div.o)
                0x9d00747c                __divsf3
                0x9d00747c                fpdiv

.text.jsonDecode
                0x9d0076ac      0x22c
 .text.jsonDecode
                0x9d0076ac      0x22c build/Board2/production/_ext/334398652/http.o
                0x9d0076ac                jsonDecode

.text.xQueueGenericSend
                0x9d0078d8      0x20c
 .text.xQueueGenericSend
                0x9d0078d8      0x20c build/Board2/production/_ext/1539584926/queue.o
                0x9d0078d8                xQueueGenericSend

.text           0x9d007ae4      0x204
 .text          0x9d007ae4      0x204 /Applications/microchip/xc32/v2.15/bin/bin/../../lib/gcc/pic32mx/4.8.3/../../../../pic32mx/lib/libm.a(fpexp32.o)
                0x9d007ae4                fpexexp
                0x9d007bfc                __mchp_expf
                0x9d007bfc                fpexp

.text.UART_Proxy
                0x9d007ce8      0x1cc
 .text.UART_Proxy
                0x9d007ce8      0x1cc build/Board2/production/_ext/334398652/wifi_state.o
                0x9d007ce8                UART_Proxy

.text.fround    0x9d007eb4      0x1cc
 .text.fround   0x9d007eb4      0x1cc /Applications/microchip/xc32/v2.15/bin/bin/../../lib/gcc/pic32mx/4.8.3/../../../../pic32mx/lib/libc.a(doprnt_cdgGnopuxX.eo)

.text.xQueueReceive
                0x9d008080      0x1c0
 .text.xQueueReceive
                0x9d008080      0x1c0 build/Board2/production/_ext/1539584926/queue.o
                0x9d008080                xQueueReceive

.text.cJSON_ParseWithOpts
                0x9d008240      0x1bc
 .text.cJSON_ParseWithOpts
                0x9d008240      0x1bc build/Board2/production/_ext/334398652/cJSON.o
                0x9d008240                cJSON_ParseWithOpts

.text.fp32mul   0x9d0083fc      0x1bc
 .text.fp32mul  0x9d0083fc      0x1bc /Applications/microchip/xc32/v2.15/bin/bin/../../lib/gcc/pic32mx/4.8.3/../../../../pic32mx/lib/libm.a(fp32mul.o)
                0x9d0083fc                fpmul
                0x9d0083fc                __mulsf3

.DrvTmrInstance1_vector_text
                0x9d0085b8      0x1b4
 .DrvTmrInstance1_vector_text
                0x9d0085b8      0x1b4 build/Board2/production/_ext/1445490755/system_interrupt_a.o

.DrvTmrInstance2_vector_text
                0x9d00876c      0x1b4
 .DrvTmrInstance2_vector_text
                0x9d00876c      0x1b4 build/Board2/production/_ext/1445490755/system_interrupt_a.o

.DrvTmrInstance3_vector_text
                0x9d008920      0x1b4
 .DrvTmrInstance3_vector_text
                0x9d008920      0x1b4 build/Board2/production/_ext/1445490755/system_interrupt_a.o

.DrvUsartInstance0_vector_text
                0x9d008ad4      0x1b4
 .DrvUsartInstance0_vector_text
                0x9d008ad4      0x1b4 build/Board2/production/_ext/1445490755/system_interrupt_a.o

.text.__ldexp   0x9d008c88      0x1a8
 .text.__ldexp  0x9d008c88      0x1a8 /Applications/microchip/xc32/v2.15/bin/bin/../../lib/gcc/pic32mx/4.8.3/../../../../pic32mx/lib/libe.a(_ldexp.o)
                0x9d008c88                __ldexp

.text           0x9d008e30      0x1a0
 .text          0x9d008e30      0x1a0 /Applications/microchip/xc32/v2.15/bin/bin/../../lib/gcc/pic32mx/4.8.3/../../../../pic32mx/lib/libpic32.a(strcpy.o)
                0x9d008e30                strcpy

.text.xTaskIncrementTick
                0x9d008fd0      0x198
 .text.xTaskIncrementTick
                0x9d008fd0      0x198 build/Board2/production/_ext/1539584926/tasks.o
                0x9d008fd0                xTaskIncrementTick

.rodata         0x9d009168      0x190
 .rodata        0x9d009168      0x190 build/Board2/production/_ext/334398652/http.o

.text.DRV_USART0_Initialize
                0x9d0092f8      0x18c
 .text.DRV_USART0_Initialize
                0x9d0092f8      0x18c build/Board2/production/_ext/794052624/drv_usart_static.o
                0x9d0092f8                DRV_USART0_Initialize

.text._filbuf   0x9d009484      0x188
 .text._filbuf  0x9d009484      0x188 /Applications/microchip/xc32/v2.15/bin/bin/../../lib/gcc/pic32mx/4.8.3/../../../../pic32mx/lib/libc.a(filbuf.o)
                0x9d009484                _filbuf

.text.GETnumHelpFunc
                0x9d00960c      0x17c
 .text.GETnumHelpFunc
                0x9d00960c      0x17c build/Board2/production/_ext/334398652/http.o
                0x9d00960c                GETnumHelpFunc

.text.print     0x9d009788      0x168
 .text.print    0x9d009788      0x168 build/Board2/production/_ext/334398652/cJSON.o

.text           0x9d0098f0      0x2d0
 .text          0x9d0098f0      0x168 /Applications/microchip/xc32/v2.15/bin/bin/../../lib/gcc/pic32mx/4.8.3/../../../../pic32mx/lib/libpic32.a(memcpy.o)
                0x9d0098f0                memcpy
 .text          0x9d009a58      0x168 /Applications/microchip/xc32/v2.15/bin/bin/../../lib/gcc/pic32mx/4.8.3/../../../../pic32mx/lib/libpic32.a(strlen.o)
                0x9d009a58                strlen

.rodata         0x9d009bc0      0x160
 .rodata        0x9d009bc0      0x160 /Applications/microchip/xc32/v2.15/bin/bin/../../lib/gcc/pic32mx/4.8.3/../../../../pic32mx/lib/libc.a(ldpowers.o)
                0x9d009bc0                _npowers_
                0x9d009c70                _powers_

.text.pvPortMalloc
                0x9d009d20      0x15c
 .text.pvPortMalloc
                0x9d009d20      0x15c build/Board2/production/_ext/905643201/heap_2.o
                0x9d009d20                pvPortMalloc

.text.read      0x9d009e7c      0x158
 .text.read     0x9d009e7c      0x158 /Applications/microchip/xc32/v2.15/bin/bin/../../lib/gcc/pic32mx/4.8.3/../../../../pic32mx/lib/libpic32.a(read.o)
                0x9d009e7c                read

.text.ensure    0x9d009fd4      0x154
 .text.ensure   0x9d009fd4      0x154 build/Board2/production/_ext/334398652/cJSON.o

.text.xTaskResumeAll
                0x9d00a128      0x148
 .text.xTaskResumeAll
                0x9d00a128      0x148 build/Board2/production/_ext/1539584926/tasks.o
                0x9d00a128                xTaskResumeAll

.text.powf      0x9d00a270      0x148
 .text.powf     0x9d00a270      0x148 /Applications/microchip/xc32/v2.15/bin/bin/../../lib/gcc/pic32mx/4.8.3/../../../../pic32mx/lib/libm.a(w_powf.o)
                0x9d00a270                powf

.text.Game_PUT_construct_Helper
                0x9d00a3b8      0x144
 .text.Game_PUT_construct_Helper
                0x9d00a3b8      0x144 build/Board2/production/_ext/334398652/http.o
                0x9d00a3b8                Game_PUT_construct_Helper

.text.stat_http_construct
                0x9d00a4fc      0x144
 .text.stat_http_construct
                0x9d00a4fc      0x144 build/Board2/production/_ext/334398652/http.o
                0x9d00a4fc                stat_http_construct

.text.fputc     0x9d00a640      0x144
 .text.fputc    0x9d00a640      0x144 /Applications/microchip/xc32/v2.15/bin/bin/../../lib/gcc/pic32mx/4.8.3/../../../../pic32mx/lib/libc.a(_fputc_simple.o)
                0x9d00a640                fputc

.text.http_parse
                0x9d00a784      0x140
 .text.http_parse
                0x9d00a784      0x140 build/Board2/production/_ext/334398652/http.o
                0x9d00a784                http_parse

.text.get_object_item
                0x9d00a8c4      0x130
 .text.get_object_item
                0x9d00a8c4      0x130 build/Board2/production/_ext/334398652/cJSON.o

.text.GETrecieveHelpFunc
                0x9d00a9f4      0x130
 .text.GETrecieveHelpFunc
                0x9d00a9f4      0x130 build/Board2/production/_ext/334398652/http.o
                0x9d00a9f4                GETrecieveHelpFunc

.text._flsbuf   0x9d00ab24      0x12c
 .text._flsbuf  0x9d00ab24      0x12c /Applications/microchip/xc32/v2.15/bin/bin/../../lib/gcc/pic32mx/4.8.3/../../../../pic32mx/lib/libc.a(_flsbuf_simple.o)
                0x9d00ab24                _flsbuf

.text.dpcmp     0x9d00ac50      0x12c
 .text.dpcmp    0x9d00ac50      0x12c /Applications/microchip/xc32/v2.15/bin/bin/../../lib/gcc/pic32mx/4.8.3/../../../../pic32mx/lib/libm.a(dpcmp.o)
                0x9d00ac50                __gtdf2
                0x9d00ac50                __ltdf2
                0x9d00ac50                __gedf2
                0x9d00ac50                dpcmp
                0x9d00ac50                __ledf2
                0x9d00ac50                __nedf2
                0x9d00ac50                __eqdf2

.text.IntHandlerDrvUsartInstance0
                0x9d00ad7c      0x128
 .text.IntHandlerDrvUsartInstance0
                0x9d00ad7c      0x128 build/Board2/production/_ext/1445490755/system_interrupt.o
                0x9d00ad7c                IntHandlerDrvUsartInstance0

.rodata         0x9d00aea4      0x128
 .rodata        0x9d00aea4      0x128 build/Board2/production/_ext/1445490755/system_exceptions.o

.text           0x9d00afcc      0x120
 .text          0x9d00afcc      0x120 /Applications/microchip/xc32/v2.15/bin/bin/../../lib/gcc/pic32mx/4.8.3/../../../../pic32mx/lib/libpic32.a(strcmp.o)
                0x9d00afcc                strcmp

.text.isHttp    0x9d00b0ec      0x11c
 .text.isHttp   0x9d00b0ec      0x11c build/Board2/production/_ext/334398652/http.o
                0x9d00b0ec                isHttp

.text.GET_construct_Helper
                0x9d00b208      0x118
 .text.GET_construct_Helper
                0x9d00b208      0x118 build/Board2/production/_ext/334398652/http.o
                0x9d00b208                GET_construct_Helper

.text.GETcontentHelpFunc
                0x9d00b320      0x110
 .text.GETcontentHelpFunc
                0x9d00b320      0x110 build/Board2/production/_ext/334398652/http.o
                0x9d00b320                GETcontentHelpFunc

.text.prvSampleTimeNow
                0x9d00b430      0x104
 .text.prvSampleTimeNow
                0x9d00b430      0x104 build/Board2/production/_ext/1539584926/timers.o

.rodata         0x9d00b534      0x104
 .rodata        0x9d00b534      0x104 /Applications/microchip/xc32/v2.15/bin/bin/../../lib/gcc/pic32mx/4.8.3/../../../../pic32mx/lib/libc.a(ctype.o)
                0x9d00b534                _ctype

.text.fgetc     0x9d00b638      0x104
 .text.fgetc    0x9d00b638      0x104 /Applications/microchip/xc32/v2.15/bin/bin/../../lib/gcc/pic32mx/4.8.3/../../../../pic32mx/lib/libc.a(fgetc.o)
                0x9d00b638                fgetc

.text.__ldexpf  0x9d00b73c      0x104
 .text.__ldexpf
                0x9d00b73c      0x104 /Applications/microchip/xc32/v2.15/bin/bin/../../lib/gcc/pic32mx/4.8.3/../../../../pic32mx/lib/libe.a(_ldexpf.o)
                0x9d00b73c                __ldexpf

.text.prvUnlockQueue
                0x9d00b840      0x100
 .text.prvUnlockQueue
                0x9d00b840      0x100 build/Board2/production/_ext/1539584926/queue.o

.text.dptofp    0x9d00b940      0x100
 .text.dptofp   0x9d00b940      0x100 /Applications/microchip/xc32/v2.15/bin/bin/../../lib/gcc/pic32mx/4.8.3/../../../../pic32mx/lib/libm.a(dptofp.o)
                0x9d00b940                dptofp
                0x9d00b940                __truncdfsf2

.text.xTaskPriorityDisinherit
                0x9d00ba40       0xf8
 .text.xTaskPriorityDisinherit
                0x9d00ba40       0xf8 build/Board2/production/_ext/1539584926/tasks.o
                0x9d00ba40                xTaskPriorityDisinherit

.rodata         0x9d00bb38       0xf8
 .rodata        0x9d00bb38       0xf8 /Applications/microchip/xc32/v2.15/bin/bin/../../lib/gcc/pic32mx/4.8.3/../../../../pic32mx/lib/libc.a(doprnt_cdgGnopuxX.eo)

.text.prvCopyDataToQueue
                0x9d00bc30       0xf4
 .text.prvCopyDataToQueue
                0x9d00bc30       0xf4 build/Board2/production/_ext/1539584926/queue.o

.text.xQueueGenericSendFromISR
                0x9d00bd24       0xf0
 .text.xQueueGenericSendFromISR
                0x9d00bd24       0xf0 build/Board2/production/_ext/1539584926/queue.o
                0x9d00bd24                xQueueGenericSendFromISR

.text.__fixdfdi
                0x9d00be14       0xe8
 .text.__fixdfdi
                0x9d00be14       0xe8 /Applications/microchip/xc32/v2.15/bin/bin/../../lib/gcc/pic32mx/4.8.3/../../../../pic32mx/lib/libe.a(_fixdfdi.o)
                0x9d00be14                __fixdfdi

.text.add_item_to_object
                0x9d00befc       0xe4
 .text.add_item_to_object
                0x9d00befc       0xe4 build/Board2/production/_ext/334398652/cJSON.o

.text.prvAddCurrentTaskToDelayedList
                0x9d00bfe0       0xe4
 .text.prvAddCurrentTaskToDelayedList
                0x9d00bfe0       0xe4 build/Board2/production/_ext/1539584926/tasks.o

.text.SYS_DEVCON_PerformanceConfig
                0x9d00c0c4       0xe0
 .text.SYS_DEVCON_PerformanceConfig
                0x9d00c0c4       0xe0 build/Board2/production/_ext/733479835/sys_devcon_pic32mx.o
                0x9d00c0c4                SYS_DEVCON_PerformanceConfig

.text.xQueueReceiveFromISR
                0x9d00c1a4       0xe0
 .text.xQueueReceiveFromISR
                0x9d00c1a4       0xe0 build/Board2/production/_ext/1539584926/queue.o
                0x9d00c1a4                xQueueReceiveFromISR

.text.vTaskSwitchContext
                0x9d00c284       0xe0
 .text.vTaskSwitchContext
                0x9d00c284       0xe0 build/Board2/production/_ext/1539584926/tasks.o
                0x9d00c284                vTaskSwitchContext

.text.general_exception
                0x9d00c364       0xdc
 .text.general_exception
                0x9d00c364       0xdc /Applications/microchip/xc32/v2.15/bin/bin/../../lib/gcc/pic32mx/4.8.3/../../../../pic32mx/lib/libpic32.a(general-exception.o)
                0x9d00c364                _general_exception_context

.text.Uart_tx_queue_Recv
                0x9d00c440       0xd4
 .text.Uart_tx_queue_Recv
                0x9d00c440       0xd4 build/Board2/production/_ext/334398652/wifi_queue.o
                0x9d00c440                Uart_tx_queue_Recv

.text.libm      0x9d00c514       0xd4
 .text.libm     0x9d00c514       0xd4 /Applications/microchip/xc32/v2.15/bin/bin/../../lib/gcc/pic32mx/4.8.3/../../../../pic32mx/lib/libm.a(fpmodf.o)
                0x9d00c514                fpmodf
                0x9d00c514                modff

.text._mon_putc
                0x9d00c5e8       0xd4
 .text._mon_putc
                0x9d00c5e8       0xd4 /Applications/microchip/xc32/v2.15/bin/bin/../../lib/gcc/pic32mx/4.8.3/../../../../pic32mx/lib/libpic32.a(_mon_putc.o)
                0x9d00c5e8                _mon_putc

.text.SYS_Initialize
                0x9d00c6bc       0xd0
 .text.SYS_Initialize
                0x9d00c6bc       0xd0 build/Board2/production/_ext/1445490755/system_init.o
                0x9d00c6bc                SYS_Initialize

.text.Step_1_handler
                0x9d00c78c       0xcc
 .text.Step_1_handler
                0x9d00c78c       0xcc build/Board2/production/_ext/334398652/wifi_state.o
                0x9d00c78c                Step_1_handler

.text.cJSON_Delete
                0x9d00c858       0xc0
 .text.cJSON_Delete
                0x9d00c858       0xc0 build/Board2/production/_ext/334398652/cJSON.o
                0x9d00c858                cJSON_Delete

.text.xQueueGenericReset
                0x9d00c918       0xc0
 .text.xQueueGenericReset
                0x9d00c918       0xc0 build/Board2/production/_ext/1539584926/queue.o
                0x9d00c918                xQueueGenericReset

.text.xTaskRemoveFromEventList
                0x9d00c9d8       0xbc
 .text.xTaskRemoveFromEventList
                0x9d00c9d8       0xbc build/Board2/production/_ext/1539584926/tasks.o
                0x9d00c9d8                xTaskRemoveFromEventList

.text.SYS_PORTS_Initialize
                0x9d00ca94       0xb0
 .text.SYS_PORTS_Initialize
                0x9d00ca94       0xb0 build/Board2/production/_ext/1943101500/sys_ports_static.o
                0x9d00ca94                SYS_PORTS_Initialize

.text.Step_2_handler
                0x9d00cb44       0xb0
 .text.Step_2_handler
                0x9d00cb44       0xb0 build/Board2/production/_ext/334398652/wifi_state.o
                0x9d00cb44                Step_2_handler

.text.fptodp    0x9d00cbf4       0xac
 .text.fptodp   0x9d00cbf4       0xac /Applications/microchip/xc32/v2.15/bin/bin/../../lib/gcc/pic32mx/4.8.3/../../../../pic32mx/lib/libm.a(fptodp.o)
                0x9d00cbf4                __extendsfdf2
                0x9d00cbf4                fptodp

.text           0x9d00cca0       0xa8
 .text          0x9d00cca0       0xa8 /Applications/microchip/xc32/v2.15/bin/bin/../../lib/gcc/pic32mx/4.8.3/../../../../pic32mx/lib/libpic32.a(memset.o)
                0x9d00cca0                memset

.text.range     0x9d00cd48       0xa8
 .text.range    0x9d00cd48       0xa8 /Applications/microchip/xc32/v2.15/bin/bin/../../lib/gcc/pic32mx/4.8.3/../../../../pic32mx/lib/libc.a(doscan_gG.eo)

.text.atoi      0x9d00cdf0       0xa8
 .text.atoi     0x9d00cdf0       0xa8 /Applications/microchip/xc32/v2.15/bin/bin/../../lib/gcc/pic32mx/4.8.3/../../../../pic32mx/lib/libc.a(atoi.o)
                0x9d00cdf0                atoi

.text.libm      0x9d00ce98       0xa8
 .text.libm     0x9d00ce98       0xa8 /Applications/microchip/xc32/v2.15/bin/bin/../../lib/gcc/pic32mx/4.8.3/../../../../pic32mx/lib/libm.a(dpfrexp.o)
                0x9d00ce98                frexp
                0x9d00ce98                dpfrexp
                0x9d00ce98                frexpl

.text.buffer_skip_whitespace
                0x9d00cf40       0xa4
 .text.buffer_skip_whitespace
                0x9d00cf40       0xa4 build/Board2/production/_ext/334398652/cJSON.o

.text.xTaskCheckForTimeOut
                0x9d00cfe4       0xa4
 .text.xTaskCheckForTimeOut
                0x9d00cfe4       0xa4 build/Board2/production/_ext/1539584926/tasks.o
                0x9d00cfe4                xTaskCheckForTimeOut

.text.prvIdleTask
                0x9d00d088       0xa0
 .text.prvIdleTask
                0x9d00d088       0xa0 build/Board2/production/_ext/1539584926/tasks.o

.text.fflush    0x9d00d128       0xa0
 .text.fflush   0x9d00d128       0xa0 /Applications/microchip/xc32/v2.15/bin/bin/../../lib/gcc/pic32mx/4.8.3/../../../../pic32mx/lib/libc.a(fflush.o)
                0x9d00d128                fflush

.text.cJSON_CreateNumber
                0x9d00d1c8       0x9c
 .text.cJSON_CreateNumber
                0x9d00d1c8       0x9c build/Board2/production/_ext/334398652/cJSON.o
                0x9d00d1c8                cJSON_CreateNumber

.text.recieveHelpFunc
                0x9d00d264       0x9c
 .text.recieveHelpFunc
                0x9d00d264       0x9c build/Board2/production/_ext/334398652/http.o
                0x9d00d264                recieveHelpFunc

.text.fpcmp     0x9d00d300       0x9c
 .text.fpcmp    0x9d00d300       0x9c /Applications/microchip/xc32/v2.15/bin/bin/../../lib/gcc/pic32mx/4.8.3/../../../../pic32mx/lib/libm.a(fpcmp.o)
                0x9d00d300                __ltsf2
                0x9d00d300                __eqsf2
                0x9d00d300                __lesf2
                0x9d00d300                __gtsf2
                0x9d00d300                __nesf2
                0x9d00d300                fpcmp
                0x9d00d300                __gesf2

.text.write     0x9d00d39c       0x9c
 .text.write    0x9d00d39c       0x9c /Applications/microchip/xc32/v2.15/bin/bin/../../lib/gcc/pic32mx/4.8.3/../../../../pic32mx/lib/libpic32.a(write.o)
                0x9d00d39c                write

.text.SYS_Tasks
                0x9d00d438       0x94
 .text.SYS_Tasks
                0x9d00d438       0x94 build/Board2/production/_ext/1445490755/system_tasks.o
                0x9d00d438                SYS_Tasks

.text.WIFI_QUEUE_Recv
                0x9d00d4cc       0x94
 .text.WIFI_QUEUE_Recv
                0x9d00d4cc       0x94 build/Board2/production/_ext/334398652/wifi_queue.o
                0x9d00d4cc                WIFI_QUEUE_Recv

.text.popGameQueue
                0x9d00d560       0x94
 .text.popGameQueue
                0x9d00d560       0x94 build/Board2/production/_ext/334398652/game_queue.o
                0x9d00d560                popGameQueue

.text.xQueueGenericCreate
                0x9d00d5f4       0x94
 .text.xQueueGenericCreate
                0x9d00d5f4       0x94 build/Board2/production/_ext/1539584926/queue.o
                0x9d00d5f4                xQueueGenericCreate

.text.xTimerGenericCommand
                0x9d00d688       0x94
 .text.xTimerGenericCommand
                0x9d00d688       0x94 build/Board2/production/_ext/1539584926/timers.o
                0x9d00d688                xTimerGenericCommand

.text.parse_hex4
                0x9d00d71c       0x8c
 .text.parse_hex4
                0x9d00d71c       0x8c build/Board2/production/_ext/334398652/cJSON.o

.text.Game_LEDTimer_Init
                0x9d00d7a8       0x8c
 .text.Game_LEDTimer_Init
                0x9d00d7a8       0x8c build/Board2/production/_ext/334398652/game_timer.o
                0x9d00d7a8                Game_LEDTimer_Init

.text.vQueueWaitForMessageRestricted
                0x9d00d834       0x8c
 .text.vQueueWaitForMessageRestricted
                0x9d00d834       0x8c build/Board2/production/_ext/1539584926/queue.o
                0x9d00d834                vQueueWaitForMessageRestricted

.text.vTaskStartScheduler
                0x9d00d8c0       0x8c
 .text.vTaskStartScheduler
                0x9d00d8c0       0x8c build/Board2/production/_ext/1539584926/tasks.o
                0x9d00d8c0                vTaskStartScheduler

.text.dptoul    0x9d00d94c       0x8c
 .text.dptoul   0x9d00d94c       0x8c /Applications/microchip/xc32/v2.15/bin/bin/../../lib/gcc/pic32mx/4.8.3/../../../../pic32mx/lib/libm.a(dptoul.o)
                0x9d00d94c                __fixunsdfsi
                0x9d00d94c                dptoul

.text.__orderdf2
                0x9d00d9d8       0x8c
 .text.__orderdf2
                0x9d00d9d8       0x8c /Applications/microchip/xc32/v2.15/bin/bin/../../lib/gcc/pic32mx/4.8.3/../../../../pic32mx/lib/libe.a(_orderdf2.o)
                0x9d00d9d8                __orderdf2

.text.xTimerCreate
                0x9d00da64       0x88
 .text.xTimerCreate
                0x9d00da64       0x88 build/Board2/production/_ext/1539584926/timers.o
                0x9d00da64                xTimerCreate

.text.Game_ReqTimer_Start
                0x9d00daec       0x84
 .text.Game_ReqTimer_Start
                0x9d00daec       0x84 build/Board2/production/_ext/334398652/game_timer.o
                0x9d00daec                Game_ReqTimer_Start

.text           0x9d00db70       0x84
 .text          0x9d00db70       0x84 /Applications/microchip/xc32/v2.15/bin/bin/../../lib/gcc/pic32mx/4.8.3/../../../../pic32mx/lib/libpic32.a(pic32_data_init.o)
                0x9d00db70                __pic32_data_init

.text.fptoli    0x9d00dbf4       0x80
 .text.fptoli   0x9d00dbf4       0x80 /Applications/microchip/xc32/v2.15/bin/bin/../../lib/gcc/pic32mx/4.8.3/../../../../pic32mx/lib/libm.a(fptoli.o)
                0x9d00dbf4                __fixsfsi
                0x9d00dbf4                fptoli
                0x9d00dbf4                fptosi

.text.__fixunsdfdi
                0x9d00dc74       0x80
 .text.__fixunsdfdi
                0x9d00dc74       0x80 /Applications/microchip/xc32/v2.15/bin/bin/../../lib/gcc/pic32mx/4.8.3/../../../../pic32mx/lib/libe.a(_fixunsdfdi.o)
                0x9d00dc74                __fixunsdfdi

.text.DRV_TMR1_Initialize
                0x9d00dcf4       0x7c
 .text.DRV_TMR1_Initialize
                0x9d00dcf4       0x7c build/Board2/production/_ext/1550245252/drv_tmr_static.o
                0x9d00dcf4                DRV_TMR1_Initialize

.text.GAME_APP_Tasks
                0x9d00dd70       0x78
 .text.GAME_APP_Tasks
                0x9d00dd70       0x78 build/Board2/production/_ext/1360937237/game_app.o
                0x9d00dd70                GAME_APP_Tasks

.text.litodp    0x9d00dde8       0x78
 .text.litodp   0x9d00dde8       0x78 /Applications/microchip/xc32/v2.15/bin/bin/../../lib/gcc/pic32mx/4.8.3/../../../../pic32mx/lib/libm.a(litodp.o)
                0x9d00dde8                litodp
                0x9d00dde8                __floatsidf

.text.DRV_TMR2_Initialize
                0x9d00de60       0x74
 .text.DRV_TMR2_Initialize
                0x9d00de60       0x74 build/Board2/production/_ext/1550245252/drv_tmr_static.o
                0x9d00de60                DRV_TMR2_Initialize

.text.DRV_TMR3_Initialize
                0x9d00ded4       0x74
 .text.DRV_TMR3_Initialize
                0x9d00ded4       0x74 build/Board2/production/_ext/1550245252/drv_tmr_static.o
                0x9d00ded4                DRV_TMR3_Initialize

.text.cJSON_strdup
                0x9d00df48       0x74
 .text.cJSON_strdup
                0x9d00df48       0x74 build/Board2/production/_ext/334398652/cJSON.o

.text.cJSON_CreateString
                0x9d00dfbc       0x74
 .text.cJSON_CreateString
                0x9d00dfbc       0x74 build/Board2/production/_ext/334398652/cJSON.o
                0x9d00dfbc                cJSON_CreateString

.text.xQueuePeekFromISR
                0x9d00e030       0x74
 .text.xQueuePeekFromISR
                0x9d00e030       0x74 build/Board2/production/_ext/1539584926/queue.o
                0x9d00e030                xQueuePeekFromISR

.text.prvInsertTimerInActiveList
                0x9d00e0a4       0x74
 .text.prvInsertTimerInActiveList
                0x9d00e0a4       0x74 build/Board2/production/_ext/1539584926/timers.o

.text.prvCheckForValidListAndQueue
                0x9d00e118       0x74
 .text.prvCheckForValidListAndQueue
                0x9d00e118       0x74 build/Board2/production/_ext/1539584926/timers.o

.text.ungetc    0x9d00e18c       0x74
 .text.ungetc   0x9d00e18c       0x74 /Applications/microchip/xc32/v2.15/bin/bin/../../lib/gcc/pic32mx/4.8.3/../../../../pic32mx/lib/libc.a(ungetc.o)
                0x9d00e18c                ungetc

.text.Tx_isr_fsm
                0x9d00e200       0x70
 .text.Tx_isr_fsm
                0x9d00e200       0x70 build/Board2/production/_ext/334398652/wifi_state.o
                0x9d00e200                Tx_isr_fsm

.text.Stat_Timer_Init
                0x9d00e270       0x70
 .text.Stat_Timer_Init
                0x9d00e270       0x70 build/Board2/production/_ext/334398652/wifi_timer.o
                0x9d00e270                Stat_Timer_Init

.text.vPortFree
                0x9d00e2e0       0x70
 .text.vPortFree
                0x9d00e2e0       0x70 build/Board2/production/_ext/905643201/heap_2.o
                0x9d00e2e0                vPortFree

.text.strncmp   0x9d00e350       0x70
 .text.strncmp  0x9d00e350       0x70 /Applications/microchip/xc32/v2.15/bin/bin/../../lib/gcc/pic32mx/4.8.3/../../../../pic32mx/lib/libc.a(strncmp.o)
                0x9d00e350                strncmp

.text.vApplicationSetupTickTimerInterrupt
                0x9d00e3c0       0x6c
 .text.vApplicationSetupTickTimerInterrupt
                0x9d00e3c0       0x6c build/Board2/production/_ext/331515796/port.o
                0x9d00e3c0                vApplicationSetupTickTimerInterrupt

.text.WIFI_APP_Tasks
                0x9d00e42c       0x68
 .text.WIFI_APP_Tasks
                0x9d00e42c       0x68 build/Board2/production/_ext/1360937237/wifi_app.o
                0x9d00e42c                WIFI_APP_Tasks

.text.pushGameQueue
                0x9d00e494       0x68
 .text.pushGameQueue
                0x9d00e494       0x68 build/Board2/production/_ext/334398652/game_queue.o
                0x9d00e494                pushGameQueue

.text._sprintf_cdgGnopuxX
                0x9d00e4fc       0x68
 .text._sprintf_cdgGnopuxX
                0x9d00e4fc       0x68 /Applications/microchip/xc32/v2.15/bin/bin/../../lib/gcc/pic32mx/4.8.3/../../../../pic32mx/lib/libc.a(sprintf_cdgGnopuxX.eo)
                0x9d00e4fc                _sprintf_cdnopuxX
                0x9d00e4fc                _sprintf_cdgGnopuxX

.text           0x9d00e564       0x64
 .text          0x9d00e564       0x64 /Applications/microchip/xc32/v2.15/bin/bin/../../lib/gcc/pic32mx/4.8.3/libgcc.a(_floatundidf.o)
                0x9d00e564                __floatundidf

.text.dbgOutputLoc
                0x9d00e5c8       0x60
 .text.dbgOutputLoc
                0x9d00e5c8       0x60 build/Board2/production/_ext/334398652/debug.o
                0x9d00e5c8                dbgOutputLoc

.text.dbgOutputVal
                0x9d00e628       0x60
 .text.dbgOutputVal
                0x9d00e628       0x60 build/Board2/production/_ext/334398652/debug.o
                0x9d00e628                dbgOutputVal

.text.vListInsert
                0x9d00e688       0x60
 .text.vListInsert
                0x9d00e688       0x60 build/Board2/production/_ext/1539584926/list.o
                0x9d00e688                vListInsert

.text.vTaskExitCritical
                0x9d00e6e8       0x60
 .text.vTaskExitCritical
                0x9d00e6e8       0x60 build/Board2/production/_ext/1539584926/tasks.o
                0x9d00e6e8                vTaskExitCritical

.text.wspace    0x9d00e748       0x60
 .text.wspace   0x9d00e748       0x60 /Applications/microchip/xc32/v2.15/bin/bin/../../lib/gcc/pic32mx/4.8.3/../../../../pic32mx/lib/libc.a(doscan_gG.eo)

.text.sitofp    0x9d00e7a8       0x60
 .text.sitofp   0x9d00e7a8       0x60 /Applications/microchip/xc32/v2.15/bin/bin/../../lib/gcc/pic32mx/4.8.3/../../../../pic32mx/lib/libm.a(sitofp.o)
                0x9d00e7a8                __floatsisf
                0x9d00e7a8                sitofp
                0x9d00e7a8                litofp

.text.xPortStartScheduler
                0x9d00e808       0x5c
 .text.xPortStartScheduler
                0x9d00e808       0x5c build/Board2/production/_ext/331515796/port.o
                0x9d00e808                xPortStartScheduler

.text.xTimerCreateTimerTask
                0x9d00e864       0x5c
 .text.xTimerCreateTimerTask
                0x9d00e864       0x5c build/Board2/production/_ext/1539584926/timers.o
                0x9d00e864                xTimerCreateTimerTask

.text.SYS_DEVCON_SystemUnlock
                0x9d00e8c0       0x58
 .text.SYS_DEVCON_SystemUnlock
                0x9d00e8c0       0x58 build/Board2/production/_ext/733479835/sys_devcon.o
                0x9d00e8c0                SYS_DEVCON_SystemUnlock

.text.add_item_to_array
                0x9d00e918       0x58
 .text.add_item_to_array
                0x9d00e918       0x58 build/Board2/production/_ext/334398652/cJSON.o

.text.send_2_WIFI_QUEUE
                0x9d00e970       0x58
 .text.send_2_WIFI_QUEUE
                0x9d00e970       0x58 build/Board2/production/_ext/334398652/wifi_queue.o
                0x9d00e970                send_2_WIFI_QUEUE

.text.send_2_WIFI_QUEUE_from_isr
                0x9d00e9c8       0x58
 .text.send_2_WIFI_QUEUE_from_isr
                0x9d00e9c8       0x58 build/Board2/production/_ext/334398652/wifi_queue.o
                0x9d00e9c8                send_2_WIFI_QUEUE_from_isr

.text.send_2_Tx_queue
                0x9d00ea20       0x58
 .text.send_2_Tx_queue
                0x9d00ea20       0x58 build/Board2/production/_ext/334398652/wifi_queue.o
                0x9d00ea20                send_2_Tx_queue

.text.xQueueCreateMutex
                0x9d00ea78       0x58
 .text.xQueueCreateMutex
                0x9d00ea78       0x58 build/Board2/production/_ext/1539584926/queue.o
                0x9d00ea78                xQueueCreateMutex

.text.init_WIFI_queue
                0x9d00ead0       0x54
 .text.init_WIFI_queue
                0x9d00ead0       0x54 build/Board2/production/_ext/334398652/wifi_queue.o
                0x9d00ead0                init_WIFI_queue

.text.pxPortInitialiseStack
                0x9d00eb24       0x54
 .text.pxPortInitialiseStack
                0x9d00eb24       0x54 build/Board2/production/_ext/331515796/port.o
                0x9d00eb24                pxPortInitialiseStack

.text.vPortIncrementTick
                0x9d00eb78       0x54
 .text.vPortIncrementTick
                0x9d00eb78       0x54 build/Board2/production/_ext/331515796/port.o
                0x9d00eb78                vPortIncrementTick

.text.main_entry
                0x9d00ebcc       0x54
 .text.main_entry
                0x9d00ebcc       0x54 /var/folders/d5/v4194pgj4rldzq4h08l7349w0000gn/T//ccciZ2NH.o
                0x9d00ec00                __crt0_exit

.text._sscanf_gG
                0x9d00ec20       0x54
 .text._sscanf_gG
                0x9d00ec20       0x54 /Applications/microchip/xc32/v2.15/bin/bin/../../lib/gcc/pic32mx/4.8.3/../../../../pic32mx/lib/libc.a(sscanf_gG.eo)
                0x9d00ec20                _sscanf_gG

.text.http_construct
                0x9d00ec74       0x50
 .text.http_construct
                0x9d00ec74       0x50 build/Board2/production/_ext/334398652/http.o
                0x9d00ec74                http_construct

.text.Game_ReqTimer_Init
                0x9d00ecc4       0x50
 .text.Game_ReqTimer_Init
                0x9d00ecc4       0x50 build/Board2/production/_ext/334398652/game_timer.o
                0x9d00ecc4                Game_ReqTimer_Init

.text.prvCopyDataFromQueue
                0x9d00ed14       0x50
 .text.prvCopyDataFromQueue
                0x9d00ed14       0x50 build/Board2/production/_ext/1539584926/queue.o

.text.update_offset
                0x9d00ed64       0x4c
 .text.update_offset
                0x9d00ed64       0x4c build/Board2/production/_ext/334398652/cJSON.o

.rodata         0x9d00edb0       0x4c
 .rodata        0x9d00edb0       0x4c build/Board2/production/_ext/334398652/cJSON.o

.text.uxListRemove
                0x9d00edfc       0x4c
 .text.uxListRemove
                0x9d00edfc       0x4c build/Board2/production/_ext/1539584926/list.o
                0x9d00edfc                uxListRemove

.text.SYS_DEVCON_SystemLock
                0x9d00ee48       0x48
 .text.SYS_DEVCON_SystemLock
                0x9d00ee48       0x48 build/Board2/production/_ext/733479835/sys_devcon.o
                0x9d00ee48                SYS_DEVCON_SystemLock

.text.vTaskPlaceOnEventListRestricted
                0x9d00ee90       0x48
 .text.vTaskPlaceOnEventListRestricted
                0x9d00ee90       0x48 build/Board2/production/_ext/1539584926/tasks.o
                0x9d00ee90                vTaskPlaceOnEventListRestricted

.text.vTaskEnterCritical
                0x9d00eed8       0x48
 .text.vTaskEnterCritical
                0x9d00eed8       0x48 build/Board2/production/_ext/1539584926/tasks.o
                0x9d00eed8                vTaskEnterCritical

.text._bootstrap_exception_handler
                0x9d00ef20       0x48
 .text._bootstrap_exception_handler
                0x9d00ef20       0x48 /Applications/microchip/xc32/v2.15/bin/bin/../../lib/gcc/pic32mx/4.8.3/../../../../pic32mx/lib/libpic32.a(default-bootstrap-exception-handler.o)
                0x9d00ef20                _bootstrap_exception_handler

.vector_default
                0x9d00ef68       0x48
 .vector_default
                0x9d00ef68       0x48 /Applications/microchip/xc32/v2.15/bin/bin/../../lib/gcc/pic32mx/4.8.3/../../../../pic32mx/lib/libpic32.a(defaultinterrupt.o)
                0x9d00ef68                _DefaultInterrupt

.rodata         0x9d00efb0       0x48
 .rodata        0x9d00efb0       0x48 /Applications/microchip/xc32/v2.15/bin/bin/../../lib/gcc/pic32mx/4.8.3/../../../../pic32mx/lib/libm.a(__strtod.o)

.text.SYS_CLK_Initialize
                0x9d00eff8       0x44
 .text.SYS_CLK_Initialize
                0x9d00eff8       0x44 build/Board2/production/_ext/697674732/sys_clk_pic32mx.o
                0x9d00eff8                SYS_CLK_Initialize

.text.cJSON_New_Item
                0x9d00f03c       0x44
 .text.cJSON_New_Item
                0x9d00f03c       0x44 build/Board2/production/_ext/334398652/cJSON.o

.text           0x9d00f080       0x44
 .text          0x9d00f080       0x44 /Applications/microchip/xc32/v2.15/bin/bin/../../lib/gcc/pic32mx/4.8.3/../../../../pic32mx/lib/pic32_software_reset.o
                0x9d00f080                __pic32_software_reset

.text.strcat    0x9d00f0c4       0x44
 .text.strcat   0x9d00f0c4       0x44 /Applications/microchip/xc32/v2.15/bin/bin/../../lib/gcc/pic32mx/4.8.3/../../../../pic32mx/lib/libc.a(strcat.o)
                0x9d00f0c4                strcat

.text           0x9d00f108       0x44
 .text          0x9d00f108       0x44 /Applications/microchip/xc32/v2.15/bin/bin/../../lib/gcc/pic32mx/4.8.3/libgcc.a(floatunsidf.o)
                0x9d00f108                __floatunsidf

.text._general_exception_handler
                0x9d00f14c       0x40
 .text._general_exception_handler
                0x9d00f14c       0x40 build/Board2/production/_ext/1445490755/system_exceptions.o
                0x9d00f14c                _general_exception_handler

.text.Stat_CallBack
                0x9d00f18c       0x40
 .text.Stat_CallBack
                0x9d00f18c       0x40 build/Board2/production/_ext/334398652/wifi_timer.o
                0x9d00f18c                Stat_CallBack

.text           0x9d00f1cc       0x80
 .text          0x9d00f1cc       0x40 /Applications/microchip/xc32/v2.15/bin/bin/../../lib/gcc/pic32mx/4.8.3/libgcc.a(_lshrdi3.o)
                0x9d00f1cc                __lshrdi3
 .text          0x9d00f20c       0x40 /Applications/microchip/xc32/v2.15/bin/bin/../../lib/gcc/pic32mx/4.8.3/libgcc.a(_ashldi3.o)
                0x9d00f20c                __ashldi3

.text.DRV_OC0_Initialize
                0x9d00f24c       0x3c
 .text.DRV_OC0_Initialize
                0x9d00f24c       0x3c build/Board2/production/_ext/1351229741/drv_oc_static.o
                0x9d00f24c                DRV_OC0_Initialize

.text.DRV_OC1_Initialize
                0x9d00f288       0x3c
 .text.DRV_OC1_Initialize
                0x9d00f288       0x3c build/Board2/production/_ext/1351229741/drv_oc_static.o
                0x9d00f288                DRV_OC1_Initialize

.text.OSAL_MUTEX_Create
                0x9d00f2c4       0x3c
 .text.OSAL_MUTEX_Create
                0x9d00f2c4       0x3c build/Board2/production/_ext/1043444669/osal_freertos.o
                0x9d00f2c4                OSAL_MUTEX_Create

.text.uxPortSetInterruptMaskFromISR
                0x9d00f300       0x3c
 .text.uxPortSetInterruptMaskFromISR
                0x9d00f300       0x3c build/Board2/production/_ext/331515796/port.o
                0x9d00f300                uxPortSetInterruptMaskFromISR

.text.game_Send_Data
                0x9d00f33c       0x38
 .text.game_Send_Data
                0x9d00f33c       0x38 build/Board2/production/_ext/334398652/wifi_queue.o
                0x9d00f33c                game_Send_Data

.text.game_send_GET
                0x9d00f374       0x38
 .text.game_send_GET
                0x9d00f374       0x38 build/Board2/production/_ext/334398652/wifi_queue.o
                0x9d00f374                game_send_GET

.text.prvResetNextTaskUnblockTime
                0x9d00f3ac       0x38
 .text.prvResetNextTaskUnblockTime
                0x9d00f3ac       0x38 build/Board2/production/_ext/1539584926/tasks.o

.text.vTaskPlaceOnEventList
                0x9d00f3e4       0x38
 .text.vTaskPlaceOnEventList
                0x9d00f3e4       0x38 build/Board2/production/_ext/1539584926/tasks.o
                0x9d00f3e4                vTaskPlaceOnEventList

.text.gameQueue_init
                0x9d00f41c       0x34
 .text.gameQueue_init
                0x9d00f41c       0x34 build/Board2/production/_ext/334398652/game_queue.o
                0x9d00f41c                gameQueue_init

.text.vListInsertEnd
                0x9d00f450       0x34
 .text.vListInsertEnd
                0x9d00f450       0x34 build/Board2/production/_ext/1539584926/list.o
                0x9d00f450                vListInsertEnd

.text.prvIsQueueEmpty
                0x9d00f484       0x34
 .text.prvIsQueueEmpty
                0x9d00f484       0x34 build/Board2/production/_ext/1539584926/queue.o

.text.DRV_USART_Initialize
                0x9d00f4b8       0x30
 .text.DRV_USART_Initialize
                0x9d00f4b8       0x30 build/Board2/production/_ext/794052624/drv_usart_mapping.o
                0x9d00f4b8                DRV_USART_Initialize

.rodata         0x9d00f4e8       0x2c
 .rodata        0x9d00f4e8       0x2c build/Board2/production/_ext/1445490755/system_tasks.o

.text.GAME_APP_Initialize
                0x9d00f514       0x2c
 .text.GAME_APP_Initialize
                0x9d00f514       0x2c build/Board2/production/_ext/1360937237/game_app.o
                0x9d00f514                GAME_APP_Initialize

.text.cJSON_CreateObject
                0x9d00f540       0x2c
 .text.cJSON_CreateObject
                0x9d00f540       0x2c build/Board2/production/_ext/334398652/cJSON.o
                0x9d00f540                cJSON_CreateObject

.text.everythingStop
                0x9d00f56c       0x2c
 .text.everythingStop
                0x9d00f56c       0x2c build/Board2/production/_ext/334398652/debug.o
                0x9d00f56c                everythingStop

.text.tx_queue_empty_from_isr
                0x9d00f598       0x28
 .text.tx_queue_empty_from_isr
                0x9d00f598       0x28 build/Board2/production/_ext/334398652/wifi_queue.o
                0x9d00f598                tx_queue_empty_from_isr

.text.strtod    0x9d00f5c0       0x28
 .text.strtod   0x9d00f5c0       0x28 /Applications/microchip/xc32/v2.15/bin/bin/../../lib/gcc/pic32mx/4.8.3/../../../../pic32mx/lib/libc.a(strtod.o)
                0x9d00f5c0                strtod

.text.isinfl    0x9d00f5e8       0x28
 .text.isinfl   0x9d00f5e8       0x28 /Applications/microchip/xc32/v2.15/bin/bin/../../lib/gcc/pic32mx/4.8.3/../../../../pic32mx/lib/libpic32.a(isinf.o)
                0x9d00f5e8                isinfl

.text.vApplicationStackOverflowHook
                0x9d00f610       0x24
 .text.vApplicationStackOverflowHook
                0x9d00f610       0x24 build/Board2/production/_ext/1445490755/rtos_hooks.o
                0x9d00f610                vApplicationStackOverflowHook

.text.vApplicationMallocFailedHook
                0x9d00f634       0x24
 .text.vApplicationMallocFailedHook
                0x9d00f634       0x24 build/Board2/production/_ext/1445490755/rtos_hooks.o
                0x9d00f634                vApplicationMallocFailedHook

.text.WIFI_APP_Initialize
                0x9d00f658       0x24
 .text.WIFI_APP_Initialize
                0x9d00f658       0x24 build/Board2/production/_ext/1360937237/wifi_app.o
                0x9d00f658                WIFI_APP_Initialize

.text.cJSON_PrintUnformatted
                0x9d00f67c       0x24
 .text.cJSON_PrintUnformatted
                0x9d00f67c       0x24 build/Board2/production/_ext/334398652/cJSON.o
                0x9d00f67c                cJSON_PrintUnformatted

.text.cJSON_AddItemToObject
                0x9d00f6a0       0x24
 .text.cJSON_AddItemToObject
                0x9d00f6a0       0x24 build/Board2/production/_ext/334398652/cJSON.o
                0x9d00f6a0                cJSON_AddItemToObject

.text.Game_LEDTimerCallback
                0x9d00f6c4       0x24
 .text.Game_LEDTimerCallback
                0x9d00f6c4       0x24 build/Board2/production/_ext/334398652/game_timer.o
                0x9d00f6c4                Game_LEDTimerCallback

.text.Game_ReqTimerCallback
                0x9d00f6e8       0x24
 .text.Game_ReqTimerCallback
                0x9d00f6e8       0x24 build/Board2/production/_ext/334398652/game_timer.o
                0x9d00f6e8                Game_ReqTimerCallback

.text.prvTaskExitError
                0x9d00f70c       0x24
 .text.prvTaskExitError
                0x9d00f70c       0x24 build/Board2/production/_ext/331515796/port.o

.text.vListInitialise
                0x9d00f730       0x24
 .text.vListInitialise
                0x9d00f730       0x24 build/Board2/production/_ext/1539584926/list.o
                0x9d00f730                vListInitialise

.text.tolower   0x9d00f754       0x24
 .text.tolower  0x9d00f754       0x24 /Applications/microchip/xc32/v2.15/bin/bin/../../lib/gcc/pic32mx/4.8.3/../../../../pic32mx/lib/libc.a(ctypef.o)
                0x9d00f754                tolower

.text.main      0x9d00f778       0x20
 .text.main     0x9d00f778       0x20 build/Board2/production/_ext/1360937237/main.o
                0x9d00f778                main

.text.cJSON_Parse
                0x9d00f798       0x20
 .text.cJSON_Parse
                0x9d00f798       0x20 build/Board2/production/_ext/334398652/cJSON.o
                0x9d00f798                cJSON_Parse

.text.SYS_INT_Disable
                0x9d00f7b8       0x20
 .text.SYS_INT_Disable
                0x9d00f7b8       0x20 build/Board2/production/_ext/249303043/sys_int_pic32.o
                0x9d00f7b8                SYS_INT_Disable

.text.xTaskGetSchedulerState
                0x9d00f7d8       0x20
 .text.xTaskGetSchedulerState
                0x9d00f7d8       0x20 build/Board2/production/_ext/1539584926/tasks.o
                0x9d00f7d8                xTaskGetSchedulerState

.text.IntHandlerDrvTmrInstance1
                0x9d00f7f8       0x1c
 .text.IntHandlerDrvTmrInstance1
                0x9d00f7f8       0x1c build/Board2/production/_ext/1445490755/system_interrupt.o
                0x9d00f7f8                IntHandlerDrvTmrInstance1

.text.IntHandlerDrvTmrInstance2
                0x9d00f814       0x1c
 .text.IntHandlerDrvTmrInstance2
                0x9d00f814       0x1c build/Board2/production/_ext/1445490755/system_interrupt.o
                0x9d00f814                IntHandlerDrvTmrInstance2

.text.IntHandlerDrvTmrInstance3
                0x9d00f830       0x1c
 .text.IntHandlerDrvTmrInstance3
                0x9d00f830       0x1c build/Board2/production/_ext/1445490755/system_interrupt.o
                0x9d00f830                IntHandlerDrvTmrInstance3

.text.cJSON_GetObjectItem
                0x9d00f84c       0x1c
 .text.cJSON_GetObjectItem
                0x9d00f84c       0x1c build/Board2/production/_ext/334398652/cJSON.o
                0x9d00f84c                cJSON_GetObjectItem

.rodata         0x9d00f868       0x1c
 .rodata        0x9d00f868       0x1c build/Board2/production/_ext/334398652/game_timer.o

.text.vPortClearInterruptMaskFromISR
                0x9d00f884       0x1c
 .text.vPortClearInterruptMaskFromISR
                0x9d00f884       0x1c build/Board2/production/_ext/331515796/port.o
                0x9d00f884                vPortClearInterruptMaskFromISR

.text.strtof    0x9d00f8a0       0x1c
 .text.strtof   0x9d00f8a0       0x1c /Applications/microchip/xc32/v2.15/bin/bin/../../lib/gcc/pic32mx/4.8.3/../../../../pic32mx/lib/libc.a(strtof.o)
                0x9d00f8a0                strtof

.text.negdf2    0x9d00f8bc       0x1c
 .text.negdf2   0x9d00f8bc       0x1c /Applications/microchip/xc32/v2.15/bin/bin/../../lib/gcc/pic32mx/4.8.3/../../../../pic32mx/lib/libm.a(negdf2.o)
                0x9d00f8bc                __negdf2

.text.SYS_DEVCON_JTAGDisable
                0x9d00f8d8       0x18
 .text.SYS_DEVCON_JTAGDisable
                0x9d00f8d8       0x18 build/Board2/production/_ext/733479835/sys_devcon.o
                0x9d00f8d8                SYS_DEVCON_JTAGDisable

.text._WIFI_APP_Tasks
                0x9d00f8f0       0x18
 .text._WIFI_APP_Tasks
                0x9d00f8f0       0x18 build/Board2/production/_ext/1445490755/system_tasks.o

.text._GAME_APP_Tasks
                0x9d00f908       0x18
 .text._GAME_APP_Tasks
                0x9d00f908       0x18 build/Board2/production/_ext/1445490755/system_tasks.o

.text.LED_Test  0x9d00f920       0x18
 .text.LED_Test
                0x9d00f920       0x18 build/Board2/production/_ext/334398652/debug.o
                0x9d00f920                LED_Test

.text           0x9d00f938       0x18
 .text          0x9d00f938       0x18 /Applications/microchip/xc32/v2.15/bin/bin/../../lib/gcc/pic32mx/4.8.3/../../../../pic32mx/lib/libpic32.a(default-nmi-handler.o)
                0x9d00f938                _nmi_handler

.rodata         0x9d00f950       0x18
 .rodata        0x9d00f950       0x18 /Applications/microchip/xc32/v2.15/bin/bin/../../lib/gcc/pic32mx/4.8.3/../../../../pic32mx/lib/libm.a(__strtof.o)

.text.SYS_DEVCON_Initialize
                0x9d00f968       0x14
 .text.SYS_DEVCON_Initialize
                0x9d00f968       0x14 build/Board2/production/_ext/733479835/sys_devcon.o
                0x9d00f968                SYS_DEVCON_Initialize

.text.SYS_INT_Initialize
                0x9d00f97c       0x14
 .text.SYS_INT_Initialize
                0x9d00f97c       0x14 build/Board2/production/_ext/249303043/sys_int_pic32.o
                0x9d00f97c                SYS_INT_Initialize

.text.vTaskSuspendAll
                0x9d00f990       0x14
 .text.vTaskSuspendAll
                0x9d00f990       0x14 build/Board2/production/_ext/1539584926/tasks.o
                0x9d00f990                vTaskSuspendAll

.text.vTaskInternalSetTimeOutState
                0x9d00f9a4       0x14
 .text.vTaskInternalSetTimeOutState
                0x9d00f9a4       0x14 build/Board2/production/_ext/1539584926/tasks.o
                0x9d00f9a4                vTaskInternalSetTimeOutState

.text.negsf2    0x9d00f9b8       0x14
 .text.negsf2   0x9d00f9b8       0x14 /Applications/microchip/xc32/v2.15/bin/bin/../../lib/gcc/pic32mx/4.8.3/../../../../pic32mx/lib/libm.a(negsf2.o)
                0x9d00f9b8                __negsf2

.rodata         0x9d00f9cc       0x10
 .rodata        0x9d00f9cc       0x10 build/Board2/production/_ext/334398652/wifi_timer.o

.text.vTaskMissedYield
                0x9d00f9dc       0x10
 .text.vTaskMissedYield
                0x9d00f9dc       0x10 build/Board2/production/_ext/1539584926/tasks.o
                0x9d00f9dc                vTaskMissedYield

.text.SYS_CLK_SystemFrequencyGet
                0x9d00f9ec        0xc
 .text.SYS_CLK_SystemFrequencyGet
                0x9d00f9ec        0xc build/Board2/production/_ext/697674732/sys_clk_pic32mx.o
                0x9d00f9ec                SYS_CLK_SystemFrequencyGet

.text.SYS_CLK_PeripheralFrequencyGet
                0x9d00f9f8        0xc
 .text.SYS_CLK_PeripheralFrequencyGet
                0x9d00f9f8        0xc build/Board2/production/_ext/697674732/sys_clk_pic32mx.o
                0x9d00f9f8                SYS_CLK_PeripheralFrequencyGet

.text.xTaskGetTickCount
                0x9d00fa04        0xc
 .text.xTaskGetTickCount
                0x9d00fa04        0xc build/Board2/production/_ext/1539584926/tasks.o
                0x9d00fa04                xTaskGetTickCount

.text._SYS_Tasks
                0x9d00fa10        0x8
 .text._SYS_Tasks
                0x9d00fa10        0x8 build/Board2/production/_ext/1445490755/system_tasks.o

.text.vListInitialiseItem
                0x9d00fa18        0x8
 .text.vListInitialiseItem
                0x9d00fa18        0x8 build/Board2/production/_ext/1539584926/list.o
                0x9d00fa18                vListInitialiseItem

.rodata         0x9d00fa20       0x10
 .rodata        0x9d00fa20        0x8 build/Board2/production/_ext/1539584926/tasks.o
 .rodata        0x9d00fa28        0x8 build/Board2/production/_ext/1539584926/timers.o

.text._on_reset
                0x9d00fa30        0x8
 .text._on_reset
                0x9d00fa30        0x8 /Applications/microchip/xc32/v2.15/bin/bin/../../lib/gcc/pic32mx/4.8.3/../../../../pic32mx/lib/libpic32.a(default-on-reset.o)
                0x9d00fa30                _on_reset

.text._on_bootstrap
                0x9d00fa38        0x8
 .text._on_bootstrap
                0x9d00fa38        0x8 /Applications/microchip/xc32/v2.15/bin/bin/../../lib/gcc/pic32mx/4.8.3/../../../../pic32mx/lib/libpic32.a(default-on-bootstrap.o)
                0x9d00fa38                _on_bootstrap

.rodata         0x9d00fa40       0x10
 .rodata        0x9d00fa40        0x8 /Applications/microchip/xc32/v2.15/bin/bin/../../lib/gcc/pic32mx/4.8.3/libgcc.a(_floatundidf.o)
 .rodata        0x9d00fa48        0x8 /Applications/microchip/xc32/v2.15/bin/bin/../../lib/gcc/pic32mx/4.8.3/libgcc.a(floatunsidf.o)

.rodata         0x9d00fa50        0x8
 .rodata        0x9d00fa50        0x4 build/Board2/production/_ext/331515796/port.o
                0x9d00fa50                xISRStackTop
 .rodata        0x9d00fa54        0x4 /Applications/microchip/xc32/v2.15/bin/bin/../../lib/gcc/pic32mx/4.8.3/../../../../pic32mx/lib/libm.a(w_powf.o)
